GAS LISTING /tmp/cczXZt2B.s 			page 1


   1              		.file	"fstat.c"
   2              		.option nopic
   3              		.attribute arch, "rv32i2p0_m2p0_a2p0_c2p0"
   4              		.attribute unaligned_access, 0
   5              		.attribute stack_align, 16
   6              		.text
   7              	.Ltext0:
   8              		.cfi_sections	.debug_frame
   9              		.section	.text._fstat,"ax",@progbits
  10              		.align	1
  11              		.globl	_fstat
  13              	_fstat:
  14              	.LFB1:
  15              		.file 1 "../Firmware/RISCV/stubs/fstat.c"
   1:../Firmware/RISCV/stubs/fstat.c **** /* See LICENSE of license details. */
   2:../Firmware/RISCV/stubs/fstat.c **** 
   3:../Firmware/RISCV/stubs/fstat.c **** #include <errno.h>
   4:../Firmware/RISCV/stubs/fstat.c **** #include <unistd.h>
   5:../Firmware/RISCV/stubs/fstat.c **** #include <sys/stat.h>
   6:../Firmware/RISCV/stubs/fstat.c **** #include "stub.h"
   7:../Firmware/RISCV/stubs/fstat.c **** 
   8:../Firmware/RISCV/stubs/fstat.c **** int _fstat(int fd, struct stat* st)
   9:../Firmware/RISCV/stubs/fstat.c **** {
  16              		.loc 1 9 1
  17              		.cfi_startproc
  18              	.LVL0:
  10:../Firmware/RISCV/stubs/fstat.c ****   if (isatty(fd)) {
  19              		.loc 1 10 3
   9:../Firmware/RISCV/stubs/fstat.c ****   if (isatty(fd)) {
  20              		.loc 1 9 1 is_stmt 0
  21 0000 4111     		addi	sp,sp,-16
  22              	.LCFI0:
  23              		.cfi_def_cfa_offset 16
  24 0002 22C4     		sw	s0,8(sp)
  25 0004 06C6     		sw	ra,12(sp)
  26              		.cfi_offset 8, -8
  27              		.cfi_offset 1, -4
   9:../Firmware/RISCV/stubs/fstat.c ****   if (isatty(fd)) {
  28              		.loc 1 9 1
  29 0006 2E84     		mv	s0,a1
  30              		.loc 1 10 7
  31 0008 97000000 		call	isatty
  31      E7800000 
  32              	.LVL1:
  33              		.loc 1 10 6
  34 0010 01C9     		beq	a0,zero,.L3
  11:../Firmware/RISCV/stubs/fstat.c ****     st->st_mode = S_IFCHR;
  35              		.loc 1 11 5 is_stmt 1
  36              		.loc 1 11 17 is_stmt 0
  37 0012 8967     		li	a5,8192
  38 0014 5CC0     		sw	a5,4(s0)
  12:../Firmware/RISCV/stubs/fstat.c ****     return 0;
  39              		.loc 1 12 5 is_stmt 1
  40              		.loc 1 12 12 is_stmt 0
  41 0016 0145     		li	a0,0
  42              	.L1:
  13:../Firmware/RISCV/stubs/fstat.c ****   }
GAS LISTING /tmp/cczXZt2B.s 			page 2


  14:../Firmware/RISCV/stubs/fstat.c **** 
  15:../Firmware/RISCV/stubs/fstat.c ****   return _stub(EBADF);
  16:../Firmware/RISCV/stubs/fstat.c **** }
  43              		.loc 1 16 1
  44 0018 B240     		lw	ra,12(sp)
  45              		.cfi_remember_state
  46              		.cfi_restore 1
  47 001a 2244     		lw	s0,8(sp)
  48              		.cfi_restore 8
  49              	.LVL2:
  50 001c 4101     		addi	sp,sp,16
  51              	.LCFI1:
  52              		.cfi_def_cfa_offset 0
  53 001e 8280     		jr	ra
  54              	.LVL3:
  55              	.L3:
  56              	.LCFI2:
  57              		.cfi_restore_state
  15:../Firmware/RISCV/stubs/fstat.c **** }
  58              		.loc 1 15 10
  59 0020 7D55     		li	a0,-1
  60 0022 DDBF     		j	.L1
  61              		.cfi_endproc
  62              	.LFE1:
  64              		.text
  65              	.Letext0:
  66              		.file 2 "/home/johnson/Documents/mpb-toolchain/build/riscv32-mapleboard-elf/include/machine/_defau
  67              		.file 3 "/home/johnson/Documents/mpb-toolchain/build/riscv32-mapleboard-elf/include/sys/_types.h"
  68              		.file 4 "/home/johnson/Documents/mpb-toolchain/build/riscv32-mapleboard-elf/include/sys/_timeval.h
  69              		.file 5 "/home/johnson/Documents/mpb-toolchain/build/riscv32-mapleboard-elf/include/sys/_timespec.
  70              		.file 6 "/home/johnson/Documents/mpb-toolchain/build/riscv32-mapleboard-elf/include/sys/types.h"
  71              		.file 7 "/home/johnson/Documents/mpb-toolchain/build/riscv32-mapleboard-elf/include/sys/stat.h"
  72              		.file 8 "../Firmware/RISCV/stubs/stub.h"
  73              		.file 9 "/home/johnson/Documents/mpb-toolchain/build/riscv32-mapleboard-elf/include/sys/unistd.h"
GAS LISTING /tmp/cczXZt2B.s 			page 3

