GAS LISTING /tmp/ccVZQUdL.s 			page 1


   1              		.file	"gd32vf103_timer.c"
   2              		.option nopic
   3              		.attribute arch, "rv32i2p0_m2p0_a2p0_c2p0"
   4              		.attribute unaligned_access, 0
   5              		.attribute stack_align, 16
   6              		.text
   7              	.Ltext0:
   8              		.cfi_sections	.debug_frame
   9              		.section	.text.timer_deinit,"ax",@progbits
  10              		.align	1
  11              		.globl	timer_deinit
  13              	timer_deinit:
  14              	.LFB2:
  15              		.file 1 "../Firmware/GD32VF103_standard_peripheral/Source/gd32vf103_timer.c"
   1:../Firmware/GD32VF103_standard_peripheral/Source/gd32vf103_timer.c **** /*!
   2:../Firmware/GD32VF103_standard_peripheral/Source/gd32vf103_timer.c ****     \file  gd32vf103_timer.c
   3:../Firmware/GD32VF103_standard_peripheral/Source/gd32vf103_timer.c ****     \brief TIMER driver
   4:../Firmware/GD32VF103_standard_peripheral/Source/gd32vf103_timer.c ****     
   5:../Firmware/GD32VF103_standard_peripheral/Source/gd32vf103_timer.c ****     \version 2019-6-5, V1.0.0, firmware for GD32VF103
   6:../Firmware/GD32VF103_standard_peripheral/Source/gd32vf103_timer.c **** */
   7:../Firmware/GD32VF103_standard_peripheral/Source/gd32vf103_timer.c **** 
   8:../Firmware/GD32VF103_standard_peripheral/Source/gd32vf103_timer.c **** /*
   9:../Firmware/GD32VF103_standard_peripheral/Source/gd32vf103_timer.c ****     Copyright (c) 2019, GigaDevice Semiconductor Inc.
  10:../Firmware/GD32VF103_standard_peripheral/Source/gd32vf103_timer.c **** 
  11:../Firmware/GD32VF103_standard_peripheral/Source/gd32vf103_timer.c ****     Redistribution and use in source and binary forms, with or without modification, 
  12:../Firmware/GD32VF103_standard_peripheral/Source/gd32vf103_timer.c **** are permitted provided that the following conditions are met:
  13:../Firmware/GD32VF103_standard_peripheral/Source/gd32vf103_timer.c **** 
  14:../Firmware/GD32VF103_standard_peripheral/Source/gd32vf103_timer.c ****     1. Redistributions of source code must retain the above copyright notice, this 
  15:../Firmware/GD32VF103_standard_peripheral/Source/gd32vf103_timer.c ****        list of conditions and the following disclaimer.
  16:../Firmware/GD32VF103_standard_peripheral/Source/gd32vf103_timer.c ****     2. Redistributions in binary form must reproduce the above copyright notice, 
  17:../Firmware/GD32VF103_standard_peripheral/Source/gd32vf103_timer.c ****        this list of conditions and the following disclaimer in the documentation 
  18:../Firmware/GD32VF103_standard_peripheral/Source/gd32vf103_timer.c ****        and/or other materials provided with the distribution.
  19:../Firmware/GD32VF103_standard_peripheral/Source/gd32vf103_timer.c ****     3. Neither the name of the copyright holder nor the names of its contributors 
  20:../Firmware/GD32VF103_standard_peripheral/Source/gd32vf103_timer.c ****        may be used to endorse or promote products derived from this software without 
  21:../Firmware/GD32VF103_standard_peripheral/Source/gd32vf103_timer.c ****        specific prior written permission.
  22:../Firmware/GD32VF103_standard_peripheral/Source/gd32vf103_timer.c **** 
  23:../Firmware/GD32VF103_standard_peripheral/Source/gd32vf103_timer.c ****     THIS SOFTWARE IS PROVIDED BY THE COPYRIGHT HOLDERS AND CONTRIBUTORS "AS IS" 
  24:../Firmware/GD32VF103_standard_peripheral/Source/gd32vf103_timer.c **** AND ANY EXPRESS OR IMPLIED WARRANTIES, INCLUDING, BUT NOT LIMITED TO, THE IMPLIED 
  25:../Firmware/GD32VF103_standard_peripheral/Source/gd32vf103_timer.c **** WARRANTIES OF MERCHANTABILITY AND FITNESS FOR A PARTICULAR PURPOSE ARE DISCLAIMED. 
  26:../Firmware/GD32VF103_standard_peripheral/Source/gd32vf103_timer.c **** IN NO EVENT SHALL THE COPYRIGHT HOLDER OR CONTRIBUTORS BE LIABLE FOR ANY DIRECT, 
  27:../Firmware/GD32VF103_standard_peripheral/Source/gd32vf103_timer.c **** INDIRECT, INCIDENTAL, SPECIAL, EXEMPLARY, OR CONSEQUENTIAL DAMAGES (INCLUDING, BUT 
  28:../Firmware/GD32VF103_standard_peripheral/Source/gd32vf103_timer.c **** NOT LIMITED TO, PROCUREMENT OF SUBSTITUTE GOODS OR SERVICES; LOSS OF USE, DATA, OR 
  29:../Firmware/GD32VF103_standard_peripheral/Source/gd32vf103_timer.c **** PROFITS; OR BUSINESS INTERRUPTION) HOWEVER CAUSED AND ON ANY THEORY OF LIABILITY, 
  30:../Firmware/GD32VF103_standard_peripheral/Source/gd32vf103_timer.c **** WHETHER IN CONTRACT, STRICT LIABILITY, OR TORT (INCLUDING NEGLIGENCE OR OTHERWISE) 
  31:../Firmware/GD32VF103_standard_peripheral/Source/gd32vf103_timer.c **** ARISING IN ANY WAY OUT OF THE USE OF THIS SOFTWARE, EVEN IF ADVISED OF THE POSSIBILITY 
  32:../Firmware/GD32VF103_standard_peripheral/Source/gd32vf103_timer.c **** OF SUCH DAMAGE.
  33:../Firmware/GD32VF103_standard_peripheral/Source/gd32vf103_timer.c **** */
  34:../Firmware/GD32VF103_standard_peripheral/Source/gd32vf103_timer.c **** #include "gd32vf103_timer.h"
  35:../Firmware/GD32VF103_standard_peripheral/Source/gd32vf103_timer.c **** 
  36:../Firmware/GD32VF103_standard_peripheral/Source/gd32vf103_timer.c **** /* TIMER init parameter mask */
  37:../Firmware/GD32VF103_standard_peripheral/Source/gd32vf103_timer.c **** #define ALIGNEDMODE_MASK            ((uint32_t)0x00000060U)   /*!< TIMER init parameter aligne dmod
  38:../Firmware/GD32VF103_standard_peripheral/Source/gd32vf103_timer.c **** #define COUNTERDIRECTION_MASK       ((uint32_t)0x00000010U)   /*!< TIMER init parameter counter dir
  39:../Firmware/GD32VF103_standard_peripheral/Source/gd32vf103_timer.c **** #define CLOCKDIVISION_MASK          ((uint32_t)0x00000300U)   /*!< TIMER init parameter clock divis
  40:../Firmware/GD32VF103_standard_peripheral/Source/gd32vf103_timer.c **** 
  41:../Firmware/GD32VF103_standard_peripheral/Source/gd32vf103_timer.c **** /*!
  42:../Firmware/GD32VF103_standard_peripheral/Source/gd32vf103_timer.c ****     \brief      deinit a timer
  43:../Firmware/GD32VF103_standard_peripheral/Source/gd32vf103_timer.c ****     \param[in]  timer_periph: TIMERx(x=0..13)
GAS LISTING /tmp/ccVZQUdL.s 			page 2


  44:../Firmware/GD32VF103_standard_peripheral/Source/gd32vf103_timer.c ****     \param[out] none
  45:../Firmware/GD32VF103_standard_peripheral/Source/gd32vf103_timer.c ****     \retval     none
  46:../Firmware/GD32VF103_standard_peripheral/Source/gd32vf103_timer.c **** */
  47:../Firmware/GD32VF103_standard_peripheral/Source/gd32vf103_timer.c **** void timer_deinit(uint32_t timer_periph)
  48:../Firmware/GD32VF103_standard_peripheral/Source/gd32vf103_timer.c **** {
  16              		.loc 1 48 1
  17              		.cfi_startproc
  18              	.LVL0:
  49:../Firmware/GD32VF103_standard_peripheral/Source/gd32vf103_timer.c ****     switch(timer_periph){
  19              		.loc 1 49 5
  48:../Firmware/GD32VF103_standard_peripheral/Source/gd32vf103_timer.c ****     switch(timer_periph){
  20              		.loc 1 48 1 is_stmt 0
  21 0000 4111     		addi	sp,sp,-16
  22              	.LCFI0:
  23              		.cfi_def_cfa_offset 16
  24              		.loc 1 49 5
  25 0002 B7170040 		li	a5,1073745920
  48:../Firmware/GD32VF103_standard_peripheral/Source/gd32vf103_timer.c ****     switch(timer_periph){
  26              		.loc 1 48 1
  27 0006 06C6     		sw	ra,12(sp)
  28              		.cfi_offset 1, -4
  29              		.loc 1 49 5
  30 0008 138707C0 		addi	a4,a5,-1024
  31 000c 6304E50A 		beq	a0,a4,.L2
  32 0010 636AA702 		bgtu	a0,a4,.L3
  33 0014 37070040 		li	a4,1073741824
  34 0018 93060740 		addi	a3,a4,1024
  35 001c 630AD50A 		beq	a0,a3,.L4
  36 0020 93870780 		addi	a5,a5,-2048
  37 0024 6318F504 		bne	a0,a5,.L13
  50:../Firmware/GD32VF103_standard_peripheral/Source/gd32vf103_timer.c ****     case TIMER0:
  51:../Firmware/GD32VF103_standard_peripheral/Source/gd32vf103_timer.c ****         /* reset TIMER0 */
  52:../Firmware/GD32VF103_standard_peripheral/Source/gd32vf103_timer.c ****         rcu_periph_reset_enable(RCU_TIMER0RST);
  53:../Firmware/GD32VF103_standard_peripheral/Source/gd32vf103_timer.c ****         rcu_periph_reset_disable(RCU_TIMER0RST);
  54:../Firmware/GD32VF103_standard_peripheral/Source/gd32vf103_timer.c ****         break;
  55:../Firmware/GD32VF103_standard_peripheral/Source/gd32vf103_timer.c ****     case TIMER1:
  56:../Firmware/GD32VF103_standard_peripheral/Source/gd32vf103_timer.c ****         /* reset TIMER1 */
  57:../Firmware/GD32VF103_standard_peripheral/Source/gd32vf103_timer.c ****         rcu_periph_reset_enable(RCU_TIMER1RST);
  58:../Firmware/GD32VF103_standard_peripheral/Source/gd32vf103_timer.c ****         rcu_periph_reset_disable(RCU_TIMER1RST);
  59:../Firmware/GD32VF103_standard_peripheral/Source/gd32vf103_timer.c ****         break;
  60:../Firmware/GD32VF103_standard_peripheral/Source/gd32vf103_timer.c ****     case TIMER2:
  61:../Firmware/GD32VF103_standard_peripheral/Source/gd32vf103_timer.c ****         /* reset TIMER2 */
  62:../Firmware/GD32VF103_standard_peripheral/Source/gd32vf103_timer.c ****         rcu_periph_reset_enable(RCU_TIMER2RST);
  63:../Firmware/GD32VF103_standard_peripheral/Source/gd32vf103_timer.c ****         rcu_periph_reset_disable(RCU_TIMER2RST);
  64:../Firmware/GD32VF103_standard_peripheral/Source/gd32vf103_timer.c ****         break;
  65:../Firmware/GD32VF103_standard_peripheral/Source/gd32vf103_timer.c ****     case TIMER3:
  66:../Firmware/GD32VF103_standard_peripheral/Source/gd32vf103_timer.c ****         /* reset TIMER3 */
  67:../Firmware/GD32VF103_standard_peripheral/Source/gd32vf103_timer.c ****         rcu_periph_reset_enable(RCU_TIMER3RST);
  38              		.loc 1 67 9 is_stmt 1
  39 0028 13052040 		li	a0,1026
  40              	.LVL1:
  41 002c 97000000 		call	rcu_periph_reset_enable
  41      E7800000 
  42              	.LVL2:
  68:../Firmware/GD32VF103_standard_peripheral/Source/gd32vf103_timer.c ****         rcu_periph_reset_disable(RCU_TIMER3RST);
  43              		.loc 1 68 9
  69:../Firmware/GD32VF103_standard_peripheral/Source/gd32vf103_timer.c ****         break;
GAS LISTING /tmp/ccVZQUdL.s 			page 3


  70:../Firmware/GD32VF103_standard_peripheral/Source/gd32vf103_timer.c ****     case TIMER4:
  71:../Firmware/GD32VF103_standard_peripheral/Source/gd32vf103_timer.c ****         /* reset TIMER4 */
  72:../Firmware/GD32VF103_standard_peripheral/Source/gd32vf103_timer.c ****         rcu_periph_reset_enable(RCU_TIMER4RST);
  73:../Firmware/GD32VF103_standard_peripheral/Source/gd32vf103_timer.c ****         rcu_periph_reset_disable(RCU_TIMER4RST);
  74:../Firmware/GD32VF103_standard_peripheral/Source/gd32vf103_timer.c ****         break;
  75:../Firmware/GD32VF103_standard_peripheral/Source/gd32vf103_timer.c ****     case TIMER5:
  76:../Firmware/GD32VF103_standard_peripheral/Source/gd32vf103_timer.c ****         /* reset TIMER5 */
  77:../Firmware/GD32VF103_standard_peripheral/Source/gd32vf103_timer.c ****         rcu_periph_reset_enable(RCU_TIMER5RST);
  78:../Firmware/GD32VF103_standard_peripheral/Source/gd32vf103_timer.c ****         rcu_periph_reset_disable(RCU_TIMER5RST);
  79:../Firmware/GD32VF103_standard_peripheral/Source/gd32vf103_timer.c ****         break;
  80:../Firmware/GD32VF103_standard_peripheral/Source/gd32vf103_timer.c ****     case TIMER6:
  81:../Firmware/GD32VF103_standard_peripheral/Source/gd32vf103_timer.c ****         /* reset TIMER6 */
  82:../Firmware/GD32VF103_standard_peripheral/Source/gd32vf103_timer.c ****         rcu_periph_reset_enable(RCU_TIMER6RST);
  83:../Firmware/GD32VF103_standard_peripheral/Source/gd32vf103_timer.c ****         rcu_periph_reset_disable(RCU_TIMER6RST);
  84:../Firmware/GD32VF103_standard_peripheral/Source/gd32vf103_timer.c ****         break;
  85:../Firmware/GD32VF103_standard_peripheral/Source/gd32vf103_timer.c **** 
  86:../Firmware/GD32VF103_standard_peripheral/Source/gd32vf103_timer.c ****     default:
  87:../Firmware/GD32VF103_standard_peripheral/Source/gd32vf103_timer.c ****         break;
  88:../Firmware/GD32VF103_standard_peripheral/Source/gd32vf103_timer.c ****     }
  89:../Firmware/GD32VF103_standard_peripheral/Source/gd32vf103_timer.c **** }
  44              		.loc 1 89 1 is_stmt 0
  45 0034 B240     		lw	ra,12(sp)
  46              		.cfi_remember_state
  47              		.cfi_restore 1
  68:../Firmware/GD32VF103_standard_peripheral/Source/gd32vf103_timer.c ****         rcu_periph_reset_disable(RCU_TIMER3RST);
  48              		.loc 1 68 9
  49 0036 13052040 		li	a0,1026
  50              		.loc 1 89 1
  51 003a 4101     		addi	sp,sp,16
  52              	.LCFI1:
  53              		.cfi_def_cfa_offset 0
  68:../Firmware/GD32VF103_standard_peripheral/Source/gd32vf103_timer.c ****         rcu_periph_reset_disable(RCU_TIMER3RST);
  54              		.loc 1 68 9
  55 003c 17030000 		tail	rcu_periph_reset_disable
  55      67000300 
  56              	.LVL3:
  57              	.L3:
  58              	.LCFI2:
  59              		.cfi_restore_state
  49:../Firmware/GD32VF103_standard_peripheral/Source/gd32vf103_timer.c ****     case TIMER0:
  60              		.loc 1 49 5
  61 0044 13870740 		addi	a4,a5,1024
  62 0048 6302E50A 		beq	a0,a4,.L8
  63 004c 37370140 		li	a4,1073819648
  64 0050 130707C0 		addi	a4,a4,-1024
  65 0054 6310E504 		bne	a0,a4,.L14
  52:../Firmware/GD32VF103_standard_peripheral/Source/gd32vf103_timer.c ****         rcu_periph_reset_disable(RCU_TIMER0RST);
  66              		.loc 1 52 9 is_stmt 1
  67 0058 1305B030 		li	a0,779
  68              	.LVL4:
  69 005c 97000000 		call	rcu_periph_reset_enable
  69      E7800000 
  70              	.LVL5:
  53:../Firmware/GD32VF103_standard_peripheral/Source/gd32vf103_timer.c ****         break;
  71              		.loc 1 53 9
  72              		.loc 1 89 1 is_stmt 0
  73 0064 B240     		lw	ra,12(sp)
GAS LISTING /tmp/ccVZQUdL.s 			page 4


  74              		.cfi_remember_state
  75              		.cfi_restore 1
  53:../Firmware/GD32VF103_standard_peripheral/Source/gd32vf103_timer.c ****         break;
  76              		.loc 1 53 9
  77 0066 1305B030 		li	a0,779
  78              		.loc 1 89 1
  79 006a 4101     		addi	sp,sp,16
  80              	.LCFI3:
  81              		.cfi_def_cfa_offset 0
  53:../Firmware/GD32VF103_standard_peripheral/Source/gd32vf103_timer.c ****         break;
  82              		.loc 1 53 9
  83 006c 17030000 		tail	rcu_periph_reset_disable
  83      67000300 
  84              	.LVL6:
  85              	.L13:
  86              	.LCFI4:
  87              		.cfi_restore_state
  49:../Firmware/GD32VF103_standard_peripheral/Source/gd32vf103_timer.c ****     case TIMER0:
  88              		.loc 1 49 5
  89 0074 631AE508 		bne	a0,a4,.L1
  57:../Firmware/GD32VF103_standard_peripheral/Source/gd32vf103_timer.c ****         rcu_periph_reset_disable(RCU_TIMER1RST);
  90              		.loc 1 57 9 is_stmt 1
  91 0078 13050040 		li	a0,1024
  92              	.LVL7:
  93 007c 97000000 		call	rcu_periph_reset_enable
  93      E7800000 
  94              	.LVL8:
  58:../Firmware/GD32VF103_standard_peripheral/Source/gd32vf103_timer.c ****         break;
  95              		.loc 1 58 9
  96              		.loc 1 89 1 is_stmt 0
  97 0084 B240     		lw	ra,12(sp)
  98              		.cfi_remember_state
  99              		.cfi_restore 1
  58:../Firmware/GD32VF103_standard_peripheral/Source/gd32vf103_timer.c ****         break;
 100              		.loc 1 58 9
 101 0086 13050040 		li	a0,1024
 102              		.loc 1 89 1
 103 008a 4101     		addi	sp,sp,16
 104              	.LCFI5:
 105              		.cfi_def_cfa_offset 0
  58:../Firmware/GD32VF103_standard_peripheral/Source/gd32vf103_timer.c ****         break;
 106              		.loc 1 58 9
 107 008c 17030000 		tail	rcu_periph_reset_disable
 107      67000300 
 108              	.LVL9:
 109              	.L14:
 110              	.LCFI6:
 111              		.cfi_restore_state
  49:../Firmware/GD32VF103_standard_peripheral/Source/gd32vf103_timer.c ****     case TIMER0:
 112              		.loc 1 49 5
 113 0094 631AF506 		bne	a0,a5,.L1
  77:../Firmware/GD32VF103_standard_peripheral/Source/gd32vf103_timer.c ****         rcu_periph_reset_disable(RCU_TIMER5RST);
 114              		.loc 1 77 9 is_stmt 1
 115 0098 13054040 		li	a0,1028
 116              	.LVL10:
 117 009c 97000000 		call	rcu_periph_reset_enable
 117      E7800000 
GAS LISTING /tmp/ccVZQUdL.s 			page 5


 118              	.LVL11:
  78:../Firmware/GD32VF103_standard_peripheral/Source/gd32vf103_timer.c ****         break;
 119              		.loc 1 78 9
 120              		.loc 1 89 1 is_stmt 0
 121 00a4 B240     		lw	ra,12(sp)
 122              		.cfi_remember_state
 123              		.cfi_restore 1
  78:../Firmware/GD32VF103_standard_peripheral/Source/gd32vf103_timer.c ****         break;
 124              		.loc 1 78 9
 125 00a6 13054040 		li	a0,1028
 126              		.loc 1 89 1
 127 00aa 4101     		addi	sp,sp,16
 128              	.LCFI7:
 129              		.cfi_def_cfa_offset 0
  78:../Firmware/GD32VF103_standard_peripheral/Source/gd32vf103_timer.c ****         break;
 130              		.loc 1 78 9
 131 00ac 17030000 		tail	rcu_periph_reset_disable
 131      67000300 
 132              	.LVL12:
 133              	.L2:
 134              	.LCFI8:
 135              		.cfi_restore_state
  72:../Firmware/GD32VF103_standard_peripheral/Source/gd32vf103_timer.c ****         rcu_periph_reset_disable(RCU_TIMER4RST);
 136              		.loc 1 72 9 is_stmt 1
 137 00b4 13053040 		li	a0,1027
 138              	.LVL13:
 139 00b8 97000000 		call	rcu_periph_reset_enable
 139      E7800000 
 140              	.LVL14:
  73:../Firmware/GD32VF103_standard_peripheral/Source/gd32vf103_timer.c ****         break;
 141              		.loc 1 73 9
 142              		.loc 1 89 1 is_stmt 0
 143 00c0 B240     		lw	ra,12(sp)
 144              		.cfi_remember_state
 145              		.cfi_restore 1
  73:../Firmware/GD32VF103_standard_peripheral/Source/gd32vf103_timer.c ****         break;
 146              		.loc 1 73 9
 147 00c2 13053040 		li	a0,1027
 148              		.loc 1 89 1
 149 00c6 4101     		addi	sp,sp,16
 150              	.LCFI9:
 151              		.cfi_def_cfa_offset 0
  73:../Firmware/GD32VF103_standard_peripheral/Source/gd32vf103_timer.c ****         break;
 152              		.loc 1 73 9
 153 00c8 17030000 		tail	rcu_periph_reset_disable
 153      67000300 
 154              	.LVL15:
 155              	.L4:
 156              	.LCFI10:
 157              		.cfi_restore_state
  62:../Firmware/GD32VF103_standard_peripheral/Source/gd32vf103_timer.c ****         rcu_periph_reset_disable(RCU_TIMER2RST);
 158              		.loc 1 62 9 is_stmt 1
 159 00d0 13051040 		li	a0,1025
 160              	.LVL16:
 161 00d4 97000000 		call	rcu_periph_reset_enable
 161      E7800000 
 162              	.LVL17:
GAS LISTING /tmp/ccVZQUdL.s 			page 6


  63:../Firmware/GD32VF103_standard_peripheral/Source/gd32vf103_timer.c ****         break;
 163              		.loc 1 63 9
 164              		.loc 1 89 1 is_stmt 0
 165 00dc B240     		lw	ra,12(sp)
 166              		.cfi_remember_state
 167              		.cfi_restore 1
  63:../Firmware/GD32VF103_standard_peripheral/Source/gd32vf103_timer.c ****         break;
 168              		.loc 1 63 9
 169 00de 13051040 		li	a0,1025
 170              		.loc 1 89 1
 171 00e2 4101     		addi	sp,sp,16
 172              	.LCFI11:
 173              		.cfi_def_cfa_offset 0
  63:../Firmware/GD32VF103_standard_peripheral/Source/gd32vf103_timer.c ****         break;
 174              		.loc 1 63 9
 175 00e4 17030000 		tail	rcu_periph_reset_disable
 175      67000300 
 176              	.LVL18:
 177              	.L8:
 178              	.LCFI12:
 179              		.cfi_restore_state
  82:../Firmware/GD32VF103_standard_peripheral/Source/gd32vf103_timer.c ****         rcu_periph_reset_disable(RCU_TIMER6RST);
 180              		.loc 1 82 9 is_stmt 1
 181 00ec 13055040 		li	a0,1029
 182              	.LVL19:
 183 00f0 97000000 		call	rcu_periph_reset_enable
 183      E7800000 
 184              	.LVL20:
  83:../Firmware/GD32VF103_standard_peripheral/Source/gd32vf103_timer.c ****         break;
 185              		.loc 1 83 9
 186              		.loc 1 89 1 is_stmt 0
 187 00f8 B240     		lw	ra,12(sp)
 188              		.cfi_remember_state
 189              		.cfi_restore 1
  83:../Firmware/GD32VF103_standard_peripheral/Source/gd32vf103_timer.c ****         break;
 190              		.loc 1 83 9
 191 00fa 13055040 		li	a0,1029
 192              		.loc 1 89 1
 193 00fe 4101     		addi	sp,sp,16
 194              	.LCFI13:
 195              		.cfi_def_cfa_offset 0
  83:../Firmware/GD32VF103_standard_peripheral/Source/gd32vf103_timer.c ****         break;
 196              		.loc 1 83 9
 197 0100 17030000 		tail	rcu_periph_reset_disable
 197      67000300 
 198              	.LVL21:
 199              	.L1:
 200              	.LCFI14:
 201              		.cfi_restore_state
 202              		.loc 1 89 1
 203 0108 B240     		lw	ra,12(sp)
 204              		.cfi_restore 1
 205 010a 4101     		addi	sp,sp,16
 206              	.LCFI15:
 207              		.cfi_def_cfa_offset 0
 208 010c 8280     		jr	ra
 209              		.cfi_endproc
GAS LISTING /tmp/ccVZQUdL.s 			page 7


 210              	.LFE2:
 212              		.section	.text.timer_struct_para_init,"ax",@progbits
 213              		.align	1
 214              		.globl	timer_struct_para_init
 216              	timer_struct_para_init:
 217              	.LFB3:
  90:../Firmware/GD32VF103_standard_peripheral/Source/gd32vf103_timer.c **** 
  91:../Firmware/GD32VF103_standard_peripheral/Source/gd32vf103_timer.c **** /*!
  92:../Firmware/GD32VF103_standard_peripheral/Source/gd32vf103_timer.c ****     \brief      initialize TIMER init parameter struct with a default value
  93:../Firmware/GD32VF103_standard_peripheral/Source/gd32vf103_timer.c ****     \param[in]  initpara: init parameter struct
  94:../Firmware/GD32VF103_standard_peripheral/Source/gd32vf103_timer.c ****     \param[out] none
  95:../Firmware/GD32VF103_standard_peripheral/Source/gd32vf103_timer.c ****     \retval     none
  96:../Firmware/GD32VF103_standard_peripheral/Source/gd32vf103_timer.c **** */
  97:../Firmware/GD32VF103_standard_peripheral/Source/gd32vf103_timer.c **** void timer_struct_para_init(timer_parameter_struct* initpara)
  98:../Firmware/GD32VF103_standard_peripheral/Source/gd32vf103_timer.c **** {
 218              		.loc 1 98 1 is_stmt 1
 219              		.cfi_startproc
 220              	.LVL22:
  99:../Firmware/GD32VF103_standard_peripheral/Source/gd32vf103_timer.c ****     /* initialize the init parameter struct member with the default value */
 100:../Firmware/GD32VF103_standard_peripheral/Source/gd32vf103_timer.c ****     initpara->prescaler         = 0U;
 221              		.loc 1 100 5
 101:../Firmware/GD32VF103_standard_peripheral/Source/gd32vf103_timer.c ****     initpara->alignedmode       = TIMER_COUNTER_EDGE;
 222              		.loc 1 101 5
 102:../Firmware/GD32VF103_standard_peripheral/Source/gd32vf103_timer.c ****     initpara->counterdirection  = TIMER_COUNTER_UP;
 223              		.loc 1 102 5
 103:../Firmware/GD32VF103_standard_peripheral/Source/gd32vf103_timer.c ****     initpara->period            = 65535U;
 224              		.loc 1 103 33 is_stmt 0
 225 0000 C167     		li	a5,65536
 226 0002 FD17     		addi	a5,a5,-1
 100:../Firmware/GD32VF103_standard_peripheral/Source/gd32vf103_timer.c ****     initpara->alignedmode       = TIMER_COUNTER_EDGE;
 227              		.loc 1 100 33
 228 0004 23200500 		sw	zero,0(a0)
 102:../Firmware/GD32VF103_standard_peripheral/Source/gd32vf103_timer.c ****     initpara->counterdirection  = TIMER_COUNTER_UP;
 229              		.loc 1 102 33
 230 0008 23120500 		sh	zero,4(a0)
 231              		.loc 1 103 5 is_stmt 1
 232              		.loc 1 103 33 is_stmt 0
 233 000c 1CC5     		sw	a5,8(a0)
 104:../Firmware/GD32VF103_standard_peripheral/Source/gd32vf103_timer.c ****     initpara->clockdivision     = TIMER_CKDIV_DIV1;
 234              		.loc 1 104 5 is_stmt 1
 235              		.loc 1 104 33 is_stmt 0
 236 000e 23160500 		sh	zero,12(a0)
 105:../Firmware/GD32VF103_standard_peripheral/Source/gd32vf103_timer.c ****     initpara->repetitioncounter = 0U;
 237              		.loc 1 105 5 is_stmt 1
 238              		.loc 1 105 33 is_stmt 0
 239 0012 23070500 		sb	zero,14(a0)
 106:../Firmware/GD32VF103_standard_peripheral/Source/gd32vf103_timer.c **** }
 240              		.loc 1 106 1
 241 0016 8280     		ret
 242              		.cfi_endproc
 243              	.LFE3:
 245              		.section	.text.timer_init,"ax",@progbits
 246              		.align	1
 247              		.globl	timer_init
 249              	timer_init:
 250              	.LFB4:
 107:../Firmware/GD32VF103_standard_peripheral/Source/gd32vf103_timer.c **** 
GAS LISTING /tmp/ccVZQUdL.s 			page 8


 108:../Firmware/GD32VF103_standard_peripheral/Source/gd32vf103_timer.c **** /*!
 109:../Firmware/GD32VF103_standard_peripheral/Source/gd32vf103_timer.c ****     \brief      initialize TIMER counter
 110:../Firmware/GD32VF103_standard_peripheral/Source/gd32vf103_timer.c ****     \param[in]  timer_periph: TIMERx(x=0..6)
 111:../Firmware/GD32VF103_standard_peripheral/Source/gd32vf103_timer.c ****     \param[in]  initpara: init parameter struct
 112:../Firmware/GD32VF103_standard_peripheral/Source/gd32vf103_timer.c ****                   prescaler: prescaler value of the counter clock, 0~65535
 113:../Firmware/GD32VF103_standard_peripheral/Source/gd32vf103_timer.c ****                   alignedmode: TIMER_COUNTER_EDGE, TIMER_COUNTER_CENTER_DOWN, TIMER_COUNTER_CENTER_
 114:../Firmware/GD32VF103_standard_peripheral/Source/gd32vf103_timer.c ****                                TIMER_COUNTER_CENTER_BOTH
 115:../Firmware/GD32VF103_standard_peripheral/Source/gd32vf103_timer.c ****                   counterdirection: TIMER_COUNTER_UP, TIMER_COUNTER_DOWN
 116:../Firmware/GD32VF103_standard_peripheral/Source/gd32vf103_timer.c ****                   period: counter auto reload value, 0~65535
 117:../Firmware/GD32VF103_standard_peripheral/Source/gd32vf103_timer.c ****                   clockdivision: TIMER_CKDIV_DIV1, TIMER_CKDIV_DIV2, TIMER_CKDIV_DIV4
 118:../Firmware/GD32VF103_standard_peripheral/Source/gd32vf103_timer.c ****                   repetitioncounter: counter repetition value, 0~255
 119:../Firmware/GD32VF103_standard_peripheral/Source/gd32vf103_timer.c ****     \param[out] none
 120:../Firmware/GD32VF103_standard_peripheral/Source/gd32vf103_timer.c ****     \retval     none
 121:../Firmware/GD32VF103_standard_peripheral/Source/gd32vf103_timer.c **** */
 122:../Firmware/GD32VF103_standard_peripheral/Source/gd32vf103_timer.c **** void timer_init(uint32_t timer_periph, timer_parameter_struct* initpara)
 123:../Firmware/GD32VF103_standard_peripheral/Source/gd32vf103_timer.c **** {
 251              		.loc 1 123 1 is_stmt 1
 252              		.cfi_startproc
 253              	.LVL23:
 124:../Firmware/GD32VF103_standard_peripheral/Source/gd32vf103_timer.c ****     /* configure the counter prescaler value */
 125:../Firmware/GD32VF103_standard_peripheral/Source/gd32vf103_timer.c ****     TIMER_PSC(timer_periph) = (uint16_t)initpara->prescaler;
 254              		.loc 1 125 5
 255              		.loc 1 125 31 is_stmt 0
 256 0000 83D70500 		lhu	a5,0(a1)
 126:../Firmware/GD32VF103_standard_peripheral/Source/gd32vf103_timer.c **** 
 127:../Firmware/GD32VF103_standard_peripheral/Source/gd32vf103_timer.c ****     /* configure the counter direction and aligned mode */
 128:../Firmware/GD32VF103_standard_peripheral/Source/gd32vf103_timer.c ****     if((TIMER0 == timer_periph) || (TIMER1 == timer_periph) || (TIMER2 == timer_periph)
 129:../Firmware/GD32VF103_standard_peripheral/Source/gd32vf103_timer.c ****         || (TIMER3 == timer_periph) || (TIMER4 == timer_periph) ){
 130:../Firmware/GD32VF103_standard_peripheral/Source/gd32vf103_timer.c ****         TIMER_CTL0(timer_periph) &= (~(uint32_t)(TIMER_CTL0_DIR | TIMER_CTL0_CAM));
 131:../Firmware/GD32VF103_standard_peripheral/Source/gd32vf103_timer.c ****         TIMER_CTL0(timer_periph) |= (uint32_t)(initpara->alignedmode & ALIGNEDMODE_MASK);
 132:../Firmware/GD32VF103_standard_peripheral/Source/gd32vf103_timer.c ****         TIMER_CTL0(timer_periph) |= (uint32_t)(initpara->counterdirection & COUNTERDIRECTION_MASK);
 133:../Firmware/GD32VF103_standard_peripheral/Source/gd32vf103_timer.c ****     }else{
 134:../Firmware/GD32VF103_standard_peripheral/Source/gd32vf103_timer.c ****         TIMER_CTL0(timer_periph) &= (uint32_t)(~ TIMER_CTL0_DIR);
 135:../Firmware/GD32VF103_standard_peripheral/Source/gd32vf103_timer.c ****         TIMER_CTL0(timer_periph) |= (uint32_t)(initpara->counterdirection & COUNTERDIRECTION_MASK);
 257              		.loc 1 135 37
 258 0004 03D74500 		lhu	a4,4(a1)
 125:../Firmware/GD32VF103_standard_peripheral/Source/gd32vf103_timer.c **** 
 259              		.loc 1 125 29
 260 0008 1CD5     		sw	a5,40(a0)
 128:../Firmware/GD32VF103_standard_peripheral/Source/gd32vf103_timer.c ****         || (TIMER3 == timer_periph) || (TIMER4 == timer_periph) ){
 261              		.loc 1 128 5 is_stmt 1
 128:../Firmware/GD32VF103_standard_peripheral/Source/gd32vf103_timer.c ****         || (TIMER3 == timer_periph) || (TIMER4 == timer_periph) ){
 262              		.loc 1 128 7 is_stmt 0
 263 000a B7370140 		li	a5,1073819648
 264 000e 938707C0 		addi	a5,a5,-1024
 265              		.loc 1 135 37
 266 0012 418B     		andi	a4,a4,16
 128:../Firmware/GD32VF103_standard_peripheral/Source/gd32vf103_timer.c ****         || (TIMER3 == timer_periph) || (TIMER4 == timer_periph) ){
 267              		.loc 1 128 7
 268 0014 630DF502 		beq	a0,a5,.L17
 128:../Firmware/GD32VF103_standard_peripheral/Source/gd32vf103_timer.c ****         || (TIMER3 == timer_periph) || (TIMER4 == timer_periph) ){
 269              		.loc 1 128 33 discriminator 1
 270 0018 FD77     		li	a5,-4096
 271 001a 9387F73F 		addi	a5,a5,1023
 272 001e E98F     		and	a5,a0,a5
 273 0020 B7060040 		li	a3,1073741824
 274 0024 6385D702 		beq	a5,a3,.L17
GAS LISTING /tmp/ccVZQUdL.s 			page 9


 134:../Firmware/GD32VF103_standard_peripheral/Source/gd32vf103_timer.c ****         TIMER_CTL0(timer_periph) |= (uint32_t)(initpara->counterdirection & COUNTERDIRECTION_MASK);
 275              		.loc 1 134 9 is_stmt 1
 134:../Firmware/GD32VF103_standard_peripheral/Source/gd32vf103_timer.c ****         TIMER_CTL0(timer_periph) |= (uint32_t)(initpara->counterdirection & COUNTERDIRECTION_MASK);
 276              		.loc 1 134 34 is_stmt 0
 277 0028 1C41     		lw	a5,0(a0)
 278 002a BD9B     		andi	a5,a5,-17
 279 002c 1CC1     		sw	a5,0(a0)
 280              		.loc 1 135 9 is_stmt 1
 281              		.loc 1 135 34 is_stmt 0
 282 002e 1C41     		lw	a5,0(a0)
 283 0030 5D8F     		or	a4,a5,a4
 284 0032 18C1     		sw	a4,0(a0)
 136:../Firmware/GD32VF103_standard_peripheral/Source/gd32vf103_timer.c ****     }
 137:../Firmware/GD32VF103_standard_peripheral/Source/gd32vf103_timer.c ****     
 138:../Firmware/GD32VF103_standard_peripheral/Source/gd32vf103_timer.c ****     /* configure the autoreload value */
 139:../Firmware/GD32VF103_standard_peripheral/Source/gd32vf103_timer.c ****     TIMER_CAR(timer_periph) = (uint32_t)initpara->period;
 285              		.loc 1 139 5 is_stmt 1
 286              		.loc 1 139 49 is_stmt 0
 287 0034 9445     		lw	a3,8(a1)
 140:../Firmware/GD32VF103_standard_peripheral/Source/gd32vf103_timer.c **** 
 141:../Firmware/GD32VF103_standard_peripheral/Source/gd32vf103_timer.c ****     if((TIMER5 != timer_periph) && (TIMER6 != timer_periph)){
 288              		.loc 1 141 7
 289 0036 9377F5BF 		andi	a5,a0,-1025
 290 003a 37170040 		li	a4,1073745920
 139:../Firmware/GD32VF103_standard_peripheral/Source/gd32vf103_timer.c **** 
 291              		.loc 1 139 29
 292 003e 54D5     		sw	a3,44(a0)
 293              		.loc 1 141 5 is_stmt 1
 294              		.loc 1 141 7 is_stmt 0
 295 0040 639DE702 		bne	a5,a4,.L23
 296              	.L21:
 142:../Firmware/GD32VF103_standard_peripheral/Source/gd32vf103_timer.c ****         /* reset the CKDIV bit */
 143:../Firmware/GD32VF103_standard_peripheral/Source/gd32vf103_timer.c ****         TIMER_CTL0(timer_periph) &= (~(uint32_t)TIMER_CTL0_CKDIV);
 144:../Firmware/GD32VF103_standard_peripheral/Source/gd32vf103_timer.c ****         TIMER_CTL0(timer_periph) |= (uint32_t)(initpara->clockdivision & CLOCKDIVISION_MASK);
 145:../Firmware/GD32VF103_standard_peripheral/Source/gd32vf103_timer.c ****     }
 146:../Firmware/GD32VF103_standard_peripheral/Source/gd32vf103_timer.c **** 
 147:../Firmware/GD32VF103_standard_peripheral/Source/gd32vf103_timer.c ****     if (TIMER0 == timer_periph) {
 148:../Firmware/GD32VF103_standard_peripheral/Source/gd32vf103_timer.c ****         /* configure the repetition counter value */
 149:../Firmware/GD32VF103_standard_peripheral/Source/gd32vf103_timer.c ****         TIMER_CREP(timer_periph) = (uint32_t)initpara->repetitioncounter;
 150:../Firmware/GD32VF103_standard_peripheral/Source/gd32vf103_timer.c ****     }
 151:../Firmware/GD32VF103_standard_peripheral/Source/gd32vf103_timer.c **** 
 152:../Firmware/GD32VF103_standard_peripheral/Source/gd32vf103_timer.c ****     /* generate an update event */
 153:../Firmware/GD32VF103_standard_peripheral/Source/gd32vf103_timer.c ****     TIMER_SWEVG(timer_periph) |= (uint32_t)TIMER_SWEVG_UPG;
 297              		.loc 1 153 5 is_stmt 1
 298              		.loc 1 153 31 is_stmt 0
 299 0044 5C49     		lw	a5,20(a0)
 300 0046 93E71700 		ori	a5,a5,1
 301 004a 5CC9     		sw	a5,20(a0)
 154:../Firmware/GD32VF103_standard_peripheral/Source/gd32vf103_timer.c **** }
 302              		.loc 1 154 1
 303 004c 8280     		ret
 304              	.L17:
 130:../Firmware/GD32VF103_standard_peripheral/Source/gd32vf103_timer.c ****         TIMER_CTL0(timer_periph) |= (uint32_t)(initpara->alignedmode & ALIGNEDMODE_MASK);
 305              		.loc 1 130 9 is_stmt 1
 130:../Firmware/GD32VF103_standard_peripheral/Source/gd32vf103_timer.c ****         TIMER_CTL0(timer_periph) |= (uint32_t)(initpara->alignedmode & ALIGNEDMODE_MASK);
 306              		.loc 1 130 34 is_stmt 0
 307 004e 1441     		lw	a3,0(a0)
GAS LISTING /tmp/ccVZQUdL.s 			page 10


 131:../Firmware/GD32VF103_standard_peripheral/Source/gd32vf103_timer.c ****         TIMER_CTL0(timer_periph) |= (uint32_t)(initpara->counterdirection & COUNTERDIRECTION_MASK);
 308              		.loc 1 131 37
 309 0050 83D72500 		lhu	a5,2(a1)
 130:../Firmware/GD32VF103_standard_peripheral/Source/gd32vf103_timer.c ****         TIMER_CTL0(timer_periph) |= (uint32_t)(initpara->alignedmode & ALIGNEDMODE_MASK);
 310              		.loc 1 130 34
 311 0054 93F6F6F8 		andi	a3,a3,-113
 312 0058 14C1     		sw	a3,0(a0)
 131:../Firmware/GD32VF103_standard_peripheral/Source/gd32vf103_timer.c ****         TIMER_CTL0(timer_periph) |= (uint32_t)(initpara->counterdirection & COUNTERDIRECTION_MASK);
 313              		.loc 1 131 9 is_stmt 1
 131:../Firmware/GD32VF103_standard_peripheral/Source/gd32vf103_timer.c ****         TIMER_CTL0(timer_periph) |= (uint32_t)(initpara->counterdirection & COUNTERDIRECTION_MASK);
 314              		.loc 1 131 34 is_stmt 0
 315 005a 1441     		lw	a3,0(a0)
 131:../Firmware/GD32VF103_standard_peripheral/Source/gd32vf103_timer.c ****         TIMER_CTL0(timer_periph) |= (uint32_t)(initpara->counterdirection & COUNTERDIRECTION_MASK);
 316              		.loc 1 131 37
 317 005c 93F70706 		andi	a5,a5,96
 131:../Firmware/GD32VF103_standard_peripheral/Source/gd32vf103_timer.c ****         TIMER_CTL0(timer_periph) |= (uint32_t)(initpara->counterdirection & COUNTERDIRECTION_MASK);
 318              		.loc 1 131 34
 319 0060 D58F     		or	a5,a5,a3
 320 0062 1CC1     		sw	a5,0(a0)
 132:../Firmware/GD32VF103_standard_peripheral/Source/gd32vf103_timer.c ****     }else{
 321              		.loc 1 132 9 is_stmt 1
 132:../Firmware/GD32VF103_standard_peripheral/Source/gd32vf103_timer.c ****     }else{
 322              		.loc 1 132 34 is_stmt 0
 323 0064 1C41     		lw	a5,0(a0)
 324 0066 5D8F     		or	a4,a5,a4
 325 0068 18C1     		sw	a4,0(a0)
 139:../Firmware/GD32VF103_standard_peripheral/Source/gd32vf103_timer.c **** 
 326              		.loc 1 139 5 is_stmt 1
 139:../Firmware/GD32VF103_standard_peripheral/Source/gd32vf103_timer.c **** 
 327              		.loc 1 139 49 is_stmt 0
 328 006a 9445     		lw	a3,8(a1)
 141:../Firmware/GD32VF103_standard_peripheral/Source/gd32vf103_timer.c ****         /* reset the CKDIV bit */
 329              		.loc 1 141 7
 330 006c 9377F5BF 		andi	a5,a0,-1025
 331 0070 37170040 		li	a4,1073745920
 139:../Firmware/GD32VF103_standard_peripheral/Source/gd32vf103_timer.c **** 
 332              		.loc 1 139 29
 333 0074 54D5     		sw	a3,44(a0)
 141:../Firmware/GD32VF103_standard_peripheral/Source/gd32vf103_timer.c ****         /* reset the CKDIV bit */
 334              		.loc 1 141 5 is_stmt 1
 141:../Firmware/GD32VF103_standard_peripheral/Source/gd32vf103_timer.c ****         /* reset the CKDIV bit */
 335              		.loc 1 141 7 is_stmt 0
 336 0076 E387E7FC 		beq	a5,a4,.L21
 337              	.L23:
 143:../Firmware/GD32VF103_standard_peripheral/Source/gd32vf103_timer.c ****         TIMER_CTL0(timer_periph) |= (uint32_t)(initpara->clockdivision & CLOCKDIVISION_MASK);
 338              		.loc 1 143 9 is_stmt 1
 143:../Firmware/GD32VF103_standard_peripheral/Source/gd32vf103_timer.c ****         TIMER_CTL0(timer_periph) |= (uint32_t)(initpara->clockdivision & CLOCKDIVISION_MASK);
 339              		.loc 1 143 34 is_stmt 0
 340 007a 1841     		lw	a4,0(a0)
 144:../Firmware/GD32VF103_standard_peripheral/Source/gd32vf103_timer.c ****     }
 341              		.loc 1 144 37
 342 007c 83D7C500 		lhu	a5,12(a1)
 147:../Firmware/GD32VF103_standard_peripheral/Source/gd32vf103_timer.c ****         /* configure the repetition counter value */
 343              		.loc 1 147 8
 344 0080 B7360140 		li	a3,1073819648
 143:../Firmware/GD32VF103_standard_peripheral/Source/gd32vf103_timer.c ****         TIMER_CTL0(timer_periph) |= (uint32_t)(initpara->clockdivision & CLOCKDIVISION_MASK);
 345              		.loc 1 143 34
GAS LISTING /tmp/ccVZQUdL.s 			page 11


 346 0084 1377F7CF 		andi	a4,a4,-769
 347 0088 18C1     		sw	a4,0(a0)
 144:../Firmware/GD32VF103_standard_peripheral/Source/gd32vf103_timer.c ****     }
 348              		.loc 1 144 9 is_stmt 1
 144:../Firmware/GD32VF103_standard_peripheral/Source/gd32vf103_timer.c ****     }
 349              		.loc 1 144 34 is_stmt 0
 350 008a 1041     		lw	a2,0(a0)
 144:../Firmware/GD32VF103_standard_peripheral/Source/gd32vf103_timer.c ****     }
 351              		.loc 1 144 37
 352 008c 93F70730 		andi	a5,a5,768
 147:../Firmware/GD32VF103_standard_peripheral/Source/gd32vf103_timer.c ****         /* configure the repetition counter value */
 353              		.loc 1 147 8
 354 0090 138706C0 		addi	a4,a3,-1024
 144:../Firmware/GD32VF103_standard_peripheral/Source/gd32vf103_timer.c ****     }
 355              		.loc 1 144 34
 356 0094 D18F     		or	a5,a5,a2
 357 0096 1CC1     		sw	a5,0(a0)
 147:../Firmware/GD32VF103_standard_peripheral/Source/gd32vf103_timer.c ****         /* configure the repetition counter value */
 358              		.loc 1 147 5 is_stmt 1
 147:../Firmware/GD32VF103_standard_peripheral/Source/gd32vf103_timer.c ****         /* configure the repetition counter value */
 359              		.loc 1 147 8 is_stmt 0
 360 0098 E316E5FA 		bne	a0,a4,.L21
 149:../Firmware/GD32VF103_standard_peripheral/Source/gd32vf103_timer.c ****     }
 361              		.loc 1 149 9 is_stmt 1
 149:../Firmware/GD32VF103_standard_peripheral/Source/gd32vf103_timer.c ****     }
 362              		.loc 1 149 36 is_stmt 0
 363 009c 83C7E500 		lbu	a5,14(a1)
 149:../Firmware/GD32VF103_standard_peripheral/Source/gd32vf103_timer.c ****     }
 364              		.loc 1 149 34
 365 00a0 23A8F6C2 		sw	a5,-976(a3)
 153:../Firmware/GD32VF103_standard_peripheral/Source/gd32vf103_timer.c **** }
 366              		.loc 1 153 5 is_stmt 1
 153:../Firmware/GD32VF103_standard_peripheral/Source/gd32vf103_timer.c **** }
 367              		.loc 1 153 31 is_stmt 0
 368 00a4 5C49     		lw	a5,20(a0)
 369 00a6 93E71700 		ori	a5,a5,1
 370 00aa 5CC9     		sw	a5,20(a0)
 371              		.loc 1 154 1
 372 00ac 8280     		ret
 373              		.cfi_endproc
 374              	.LFE4:
 376              		.section	.text.timer_enable,"ax",@progbits
 377              		.align	1
 378              		.globl	timer_enable
 380              	timer_enable:
 381              	.LFB5:
 155:../Firmware/GD32VF103_standard_peripheral/Source/gd32vf103_timer.c **** 
 156:../Firmware/GD32VF103_standard_peripheral/Source/gd32vf103_timer.c **** /*!
 157:../Firmware/GD32VF103_standard_peripheral/Source/gd32vf103_timer.c ****     \brief      enable a timer
 158:../Firmware/GD32VF103_standard_peripheral/Source/gd32vf103_timer.c ****     \param[in]  timer_periph: TIMERx(x=0..6)
 159:../Firmware/GD32VF103_standard_peripheral/Source/gd32vf103_timer.c ****     \param[out] none
 160:../Firmware/GD32VF103_standard_peripheral/Source/gd32vf103_timer.c ****     \retval     none
 161:../Firmware/GD32VF103_standard_peripheral/Source/gd32vf103_timer.c **** */
 162:../Firmware/GD32VF103_standard_peripheral/Source/gd32vf103_timer.c **** void timer_enable(uint32_t timer_periph)
 163:../Firmware/GD32VF103_standard_peripheral/Source/gd32vf103_timer.c **** {
 382              		.loc 1 163 1 is_stmt 1
 383              		.cfi_startproc
GAS LISTING /tmp/ccVZQUdL.s 			page 12


 384              	.LVL24:
 164:../Firmware/GD32VF103_standard_peripheral/Source/gd32vf103_timer.c ****     TIMER_CTL0(timer_periph) |= (uint32_t)TIMER_CTL0_CEN;
 385              		.loc 1 164 5
 386              		.loc 1 164 30 is_stmt 0
 387 0000 1C41     		lw	a5,0(a0)
 388 0002 93E71700 		ori	a5,a5,1
 389 0006 1CC1     		sw	a5,0(a0)
 165:../Firmware/GD32VF103_standard_peripheral/Source/gd32vf103_timer.c **** }
 390              		.loc 1 165 1
 391 0008 8280     		ret
 392              		.cfi_endproc
 393              	.LFE5:
 395              		.section	.text.timer_disable,"ax",@progbits
 396              		.align	1
 397              		.globl	timer_disable
 399              	timer_disable:
 400              	.LFB6:
 166:../Firmware/GD32VF103_standard_peripheral/Source/gd32vf103_timer.c **** 
 167:../Firmware/GD32VF103_standard_peripheral/Source/gd32vf103_timer.c **** /*!
 168:../Firmware/GD32VF103_standard_peripheral/Source/gd32vf103_timer.c ****     \brief      disable a timer
 169:../Firmware/GD32VF103_standard_peripheral/Source/gd32vf103_timer.c ****     \param[in]  timer_periph: TIMERx(x=0..13)
 170:../Firmware/GD32VF103_standard_peripheral/Source/gd32vf103_timer.c ****     \param[out] none
 171:../Firmware/GD32VF103_standard_peripheral/Source/gd32vf103_timer.c ****     \retval     none
 172:../Firmware/GD32VF103_standard_peripheral/Source/gd32vf103_timer.c **** */
 173:../Firmware/GD32VF103_standard_peripheral/Source/gd32vf103_timer.c **** void timer_disable(uint32_t timer_periph)
 174:../Firmware/GD32VF103_standard_peripheral/Source/gd32vf103_timer.c **** {
 401              		.loc 1 174 1 is_stmt 1
 402              		.cfi_startproc
 403              	.LVL25:
 175:../Firmware/GD32VF103_standard_peripheral/Source/gd32vf103_timer.c ****     TIMER_CTL0(timer_periph) &= ~(uint32_t)TIMER_CTL0_CEN;
 404              		.loc 1 175 5
 405              		.loc 1 175 30 is_stmt 0
 406 0000 1C41     		lw	a5,0(a0)
 407 0002 F99B     		andi	a5,a5,-2
 408 0004 1CC1     		sw	a5,0(a0)
 176:../Firmware/GD32VF103_standard_peripheral/Source/gd32vf103_timer.c **** }
 409              		.loc 1 176 1
 410 0006 8280     		ret
 411              		.cfi_endproc
 412              	.LFE6:
 414              		.section	.text.timer_auto_reload_shadow_enable,"ax",@progbits
 415              		.align	1
 416              		.globl	timer_auto_reload_shadow_enable
 418              	timer_auto_reload_shadow_enable:
 419              	.LFB7:
 177:../Firmware/GD32VF103_standard_peripheral/Source/gd32vf103_timer.c **** 
 178:../Firmware/GD32VF103_standard_peripheral/Source/gd32vf103_timer.c **** /*!
 179:../Firmware/GD32VF103_standard_peripheral/Source/gd32vf103_timer.c ****     \brief      enable the auto reload shadow function
 180:../Firmware/GD32VF103_standard_peripheral/Source/gd32vf103_timer.c ****     \param[in]  timer_periph: TIMERx(x=0..6)
 181:../Firmware/GD32VF103_standard_peripheral/Source/gd32vf103_timer.c ****     \param[out] none
 182:../Firmware/GD32VF103_standard_peripheral/Source/gd32vf103_timer.c ****     \retval     none
 183:../Firmware/GD32VF103_standard_peripheral/Source/gd32vf103_timer.c **** */
 184:../Firmware/GD32VF103_standard_peripheral/Source/gd32vf103_timer.c **** void timer_auto_reload_shadow_enable(uint32_t timer_periph)
 185:../Firmware/GD32VF103_standard_peripheral/Source/gd32vf103_timer.c **** {
 420              		.loc 1 185 1 is_stmt 1
 421              		.cfi_startproc
 422              	.LVL26:
GAS LISTING /tmp/ccVZQUdL.s 			page 13


 186:../Firmware/GD32VF103_standard_peripheral/Source/gd32vf103_timer.c ****     TIMER_CTL0(timer_periph) |= (uint32_t)TIMER_CTL0_ARSE;
 423              		.loc 1 186 5
 424              		.loc 1 186 30 is_stmt 0
 425 0000 1C41     		lw	a5,0(a0)
 426 0002 93E70708 		ori	a5,a5,128
 427 0006 1CC1     		sw	a5,0(a0)
 187:../Firmware/GD32VF103_standard_peripheral/Source/gd32vf103_timer.c **** }
 428              		.loc 1 187 1
 429 0008 8280     		ret
 430              		.cfi_endproc
 431              	.LFE7:
 433              		.section	.text.timer_auto_reload_shadow_disable,"ax",@progbits
 434              		.align	1
 435              		.globl	timer_auto_reload_shadow_disable
 437              	timer_auto_reload_shadow_disable:
 438              	.LFB8:
 188:../Firmware/GD32VF103_standard_peripheral/Source/gd32vf103_timer.c **** 
 189:../Firmware/GD32VF103_standard_peripheral/Source/gd32vf103_timer.c **** /*!
 190:../Firmware/GD32VF103_standard_peripheral/Source/gd32vf103_timer.c ****     \brief      disable the auto reload shadow function
 191:../Firmware/GD32VF103_standard_peripheral/Source/gd32vf103_timer.c ****     \param[in]  timer_periph: TIMERx(x=0..6)
 192:../Firmware/GD32VF103_standard_peripheral/Source/gd32vf103_timer.c ****     \param[out] none
 193:../Firmware/GD32VF103_standard_peripheral/Source/gd32vf103_timer.c ****     \retval     none
 194:../Firmware/GD32VF103_standard_peripheral/Source/gd32vf103_timer.c **** */
 195:../Firmware/GD32VF103_standard_peripheral/Source/gd32vf103_timer.c **** void timer_auto_reload_shadow_disable(uint32_t timer_periph)
 196:../Firmware/GD32VF103_standard_peripheral/Source/gd32vf103_timer.c **** {
 439              		.loc 1 196 1 is_stmt 1
 440              		.cfi_startproc
 441              	.LVL27:
 197:../Firmware/GD32VF103_standard_peripheral/Source/gd32vf103_timer.c ****     TIMER_CTL0(timer_periph) &= ~(uint32_t)TIMER_CTL0_ARSE;
 442              		.loc 1 197 5
 443              		.loc 1 197 30 is_stmt 0
 444 0000 1C41     		lw	a5,0(a0)
 445 0002 93F7F7F7 		andi	a5,a5,-129
 446 0006 1CC1     		sw	a5,0(a0)
 198:../Firmware/GD32VF103_standard_peripheral/Source/gd32vf103_timer.c **** }
 447              		.loc 1 198 1
 448 0008 8280     		ret
 449              		.cfi_endproc
 450              	.LFE8:
 452              		.section	.text.timer_update_event_enable,"ax",@progbits
 453              		.align	1
 454              		.globl	timer_update_event_enable
 456              	timer_update_event_enable:
 457              	.LFB9:
 199:../Firmware/GD32VF103_standard_peripheral/Source/gd32vf103_timer.c **** 
 200:../Firmware/GD32VF103_standard_peripheral/Source/gd32vf103_timer.c **** /*!
 201:../Firmware/GD32VF103_standard_peripheral/Source/gd32vf103_timer.c ****     \brief      enable the update event
 202:../Firmware/GD32VF103_standard_peripheral/Source/gd32vf103_timer.c ****     \param[in]  timer_periph: TIMERx(x=0..6)
 203:../Firmware/GD32VF103_standard_peripheral/Source/gd32vf103_timer.c ****     \param[out] none
 204:../Firmware/GD32VF103_standard_peripheral/Source/gd32vf103_timer.c ****     \retval     none
 205:../Firmware/GD32VF103_standard_peripheral/Source/gd32vf103_timer.c **** */
 206:../Firmware/GD32VF103_standard_peripheral/Source/gd32vf103_timer.c **** void timer_update_event_enable(uint32_t timer_periph)
 207:../Firmware/GD32VF103_standard_peripheral/Source/gd32vf103_timer.c **** {
 458              		.loc 1 207 1 is_stmt 1
 459              		.cfi_startproc
 460              	.LVL28:
 208:../Firmware/GD32VF103_standard_peripheral/Source/gd32vf103_timer.c ****     TIMER_CTL0(timer_periph) &= ~(uint32_t)TIMER_CTL0_UPDIS;
GAS LISTING /tmp/ccVZQUdL.s 			page 14


 461              		.loc 1 208 5
 462              		.loc 1 208 30 is_stmt 0
 463 0000 1C41     		lw	a5,0(a0)
 464 0002 F59B     		andi	a5,a5,-3
 465 0004 1CC1     		sw	a5,0(a0)
 209:../Firmware/GD32VF103_standard_peripheral/Source/gd32vf103_timer.c **** }
 466              		.loc 1 209 1
 467 0006 8280     		ret
 468              		.cfi_endproc
 469              	.LFE9:
 471              		.section	.text.timer_update_event_disable,"ax",@progbits
 472              		.align	1
 473              		.globl	timer_update_event_disable
 475              	timer_update_event_disable:
 476              	.LFB10:
 210:../Firmware/GD32VF103_standard_peripheral/Source/gd32vf103_timer.c **** 
 211:../Firmware/GD32VF103_standard_peripheral/Source/gd32vf103_timer.c **** /*!
 212:../Firmware/GD32VF103_standard_peripheral/Source/gd32vf103_timer.c ****     \brief      disable the update event
 213:../Firmware/GD32VF103_standard_peripheral/Source/gd32vf103_timer.c ****     \param[in]  timer_periph: TIMERx(x=0..6)
 214:../Firmware/GD32VF103_standard_peripheral/Source/gd32vf103_timer.c ****     \param[out] none
 215:../Firmware/GD32VF103_standard_peripheral/Source/gd32vf103_timer.c ****     \retval     none
 216:../Firmware/GD32VF103_standard_peripheral/Source/gd32vf103_timer.c **** */
 217:../Firmware/GD32VF103_standard_peripheral/Source/gd32vf103_timer.c **** void timer_update_event_disable(uint32_t timer_periph)
 218:../Firmware/GD32VF103_standard_peripheral/Source/gd32vf103_timer.c **** {
 477              		.loc 1 218 1 is_stmt 1
 478              		.cfi_startproc
 479              	.LVL29:
 219:../Firmware/GD32VF103_standard_peripheral/Source/gd32vf103_timer.c ****     TIMER_CTL0(timer_periph) |= (uint32_t) TIMER_CTL0_UPDIS;
 480              		.loc 1 219 5
 481              		.loc 1 219 30 is_stmt 0
 482 0000 1C41     		lw	a5,0(a0)
 483 0002 93E72700 		ori	a5,a5,2
 484 0006 1CC1     		sw	a5,0(a0)
 220:../Firmware/GD32VF103_standard_peripheral/Source/gd32vf103_timer.c **** }
 485              		.loc 1 220 1
 486 0008 8280     		ret
 487              		.cfi_endproc
 488              	.LFE10:
 490              		.section	.text.timer_counter_alignment,"ax",@progbits
 491              		.align	1
 492              		.globl	timer_counter_alignment
 494              	timer_counter_alignment:
 495              	.LFB11:
 221:../Firmware/GD32VF103_standard_peripheral/Source/gd32vf103_timer.c **** 
 222:../Firmware/GD32VF103_standard_peripheral/Source/gd32vf103_timer.c **** /*!
 223:../Firmware/GD32VF103_standard_peripheral/Source/gd32vf103_timer.c ****     \brief      set TIMER counter alignment mode
 224:../Firmware/GD32VF103_standard_peripheral/Source/gd32vf103_timer.c ****     \param[in]  timer_periph: TIMERx(x=0..4)
 225:../Firmware/GD32VF103_standard_peripheral/Source/gd32vf103_timer.c ****     \param[in]  aligned: 
 226:../Firmware/GD32VF103_standard_peripheral/Source/gd32vf103_timer.c ****                 only one parameter can be selected which is shown as below:
 227:../Firmware/GD32VF103_standard_peripheral/Source/gd32vf103_timer.c ****       \arg        TIMER_COUNTER_EDGE: edge-aligned mode
 228:../Firmware/GD32VF103_standard_peripheral/Source/gd32vf103_timer.c ****       \arg        TIMER_COUNTER_CENTER_DOWN: center-aligned and counting down assert mode
 229:../Firmware/GD32VF103_standard_peripheral/Source/gd32vf103_timer.c ****       \arg        TIMER_COUNTER_CENTER_UP: center-aligned and counting up assert mode
 230:../Firmware/GD32VF103_standard_peripheral/Source/gd32vf103_timer.c ****       \arg        TIMER_COUNTER_CENTER_BOTH: center-aligned and counting up/down assert mode
 231:../Firmware/GD32VF103_standard_peripheral/Source/gd32vf103_timer.c ****     \param[out] none
 232:../Firmware/GD32VF103_standard_peripheral/Source/gd32vf103_timer.c ****     \retval     none
 233:../Firmware/GD32VF103_standard_peripheral/Source/gd32vf103_timer.c **** */
 234:../Firmware/GD32VF103_standard_peripheral/Source/gd32vf103_timer.c **** void timer_counter_alignment(uint32_t timer_periph, uint16_t aligned)
GAS LISTING /tmp/ccVZQUdL.s 			page 15


 235:../Firmware/GD32VF103_standard_peripheral/Source/gd32vf103_timer.c **** {
 496              		.loc 1 235 1 is_stmt 1
 497              		.cfi_startproc
 498              	.LVL30:
 236:../Firmware/GD32VF103_standard_peripheral/Source/gd32vf103_timer.c ****     TIMER_CTL0(timer_periph) &= (uint32_t)(~TIMER_CTL0_CAM);
 499              		.loc 1 236 5
 500              		.loc 1 236 30 is_stmt 0
 501 0000 1C41     		lw	a5,0(a0)
 502 0002 93F7F7F9 		andi	a5,a5,-97
 503 0006 1CC1     		sw	a5,0(a0)
 237:../Firmware/GD32VF103_standard_peripheral/Source/gd32vf103_timer.c ****     TIMER_CTL0(timer_periph) |= (uint32_t)aligned;
 504              		.loc 1 237 5 is_stmt 1
 505              		.loc 1 237 30 is_stmt 0
 506 0008 1C41     		lw	a5,0(a0)
 507 000a DD8D     		or	a1,a1,a5
 508              	.LVL31:
 509 000c 0CC1     		sw	a1,0(a0)
 238:../Firmware/GD32VF103_standard_peripheral/Source/gd32vf103_timer.c **** }
 510              		.loc 1 238 1
 511 000e 8280     		ret
 512              		.cfi_endproc
 513              	.LFE11:
 515              		.section	.text.timer_counter_up_direction,"ax",@progbits
 516              		.align	1
 517              		.globl	timer_counter_up_direction
 519              	timer_counter_up_direction:
 520              	.LFB12:
 239:../Firmware/GD32VF103_standard_peripheral/Source/gd32vf103_timer.c **** 
 240:../Firmware/GD32VF103_standard_peripheral/Source/gd32vf103_timer.c **** /*!
 241:../Firmware/GD32VF103_standard_peripheral/Source/gd32vf103_timer.c ****     \brief      set TIMER counter up direction
 242:../Firmware/GD32VF103_standard_peripheral/Source/gd32vf103_timer.c ****     \param[in]  timer_periph: TIMERx(x=0..4)
 243:../Firmware/GD32VF103_standard_peripheral/Source/gd32vf103_timer.c ****     \param[out] none
 244:../Firmware/GD32VF103_standard_peripheral/Source/gd32vf103_timer.c ****     \retval     none
 245:../Firmware/GD32VF103_standard_peripheral/Source/gd32vf103_timer.c **** */
 246:../Firmware/GD32VF103_standard_peripheral/Source/gd32vf103_timer.c **** void timer_counter_up_direction(uint32_t timer_periph)
 247:../Firmware/GD32VF103_standard_peripheral/Source/gd32vf103_timer.c **** {
 521              		.loc 1 247 1 is_stmt 1
 522              		.cfi_startproc
 523              	.LVL32:
 248:../Firmware/GD32VF103_standard_peripheral/Source/gd32vf103_timer.c ****     TIMER_CTL0(timer_periph) &= ~(uint32_t)TIMER_CTL0_DIR;
 524              		.loc 1 248 5
 525              		.loc 1 248 30 is_stmt 0
 526 0000 1C41     		lw	a5,0(a0)
 527 0002 BD9B     		andi	a5,a5,-17
 528 0004 1CC1     		sw	a5,0(a0)
 249:../Firmware/GD32VF103_standard_peripheral/Source/gd32vf103_timer.c **** }
 529              		.loc 1 249 1
 530 0006 8280     		ret
 531              		.cfi_endproc
 532              	.LFE12:
 534              		.section	.text.timer_counter_down_direction,"ax",@progbits
 535              		.align	1
 536              		.globl	timer_counter_down_direction
 538              	timer_counter_down_direction:
 539              	.LFB13:
 250:../Firmware/GD32VF103_standard_peripheral/Source/gd32vf103_timer.c **** 
 251:../Firmware/GD32VF103_standard_peripheral/Source/gd32vf103_timer.c **** /*!
GAS LISTING /tmp/ccVZQUdL.s 			page 16


 252:../Firmware/GD32VF103_standard_peripheral/Source/gd32vf103_timer.c ****     \brief      set TIMER counter down direction
 253:../Firmware/GD32VF103_standard_peripheral/Source/gd32vf103_timer.c ****     \param[in]  timer_periph: TIMERx(x=0..4)
 254:../Firmware/GD32VF103_standard_peripheral/Source/gd32vf103_timer.c ****     \param[out] none
 255:../Firmware/GD32VF103_standard_peripheral/Source/gd32vf103_timer.c ****     \retval     none
 256:../Firmware/GD32VF103_standard_peripheral/Source/gd32vf103_timer.c **** */
 257:../Firmware/GD32VF103_standard_peripheral/Source/gd32vf103_timer.c **** void timer_counter_down_direction(uint32_t timer_periph)
 258:../Firmware/GD32VF103_standard_peripheral/Source/gd32vf103_timer.c **** {
 540              		.loc 1 258 1 is_stmt 1
 541              		.cfi_startproc
 542              	.LVL33:
 259:../Firmware/GD32VF103_standard_peripheral/Source/gd32vf103_timer.c ****     TIMER_CTL0(timer_periph) |= (uint32_t)TIMER_CTL0_DIR;
 543              		.loc 1 259 5
 544              		.loc 1 259 30 is_stmt 0
 545 0000 1C41     		lw	a5,0(a0)
 546 0002 93E70701 		ori	a5,a5,16
 547 0006 1CC1     		sw	a5,0(a0)
 260:../Firmware/GD32VF103_standard_peripheral/Source/gd32vf103_timer.c **** }
 548              		.loc 1 260 1
 549 0008 8280     		ret
 550              		.cfi_endproc
 551              	.LFE13:
 553              		.section	.text.timer_prescaler_config,"ax",@progbits
 554              		.align	1
 555              		.globl	timer_prescaler_config
 557              	timer_prescaler_config:
 558              	.LFB14:
 261:../Firmware/GD32VF103_standard_peripheral/Source/gd32vf103_timer.c **** 
 262:../Firmware/GD32VF103_standard_peripheral/Source/gd32vf103_timer.c **** /*!
 263:../Firmware/GD32VF103_standard_peripheral/Source/gd32vf103_timer.c ****     \brief      configure TIMER prescaler
 264:../Firmware/GD32VF103_standard_peripheral/Source/gd32vf103_timer.c ****     \param[in]  timer_periph: TIMERx(x=0..6)
 265:../Firmware/GD32VF103_standard_peripheral/Source/gd32vf103_timer.c ****     \param[in]  prescaler: prescaler value
 266:../Firmware/GD32VF103_standard_peripheral/Source/gd32vf103_timer.c ****     \param[in]  pscreload: prescaler reload mode
 267:../Firmware/GD32VF103_standard_peripheral/Source/gd32vf103_timer.c ****                 only one parameter can be selected which is shown as below:
 268:../Firmware/GD32VF103_standard_peripheral/Source/gd32vf103_timer.c ****       \arg        TIMER_PSC_RELOAD_NOW: the prescaler is loaded right now
 269:../Firmware/GD32VF103_standard_peripheral/Source/gd32vf103_timer.c ****       \arg        TIMER_PSC_RELOAD_UPDATE: the prescaler is loaded at the next update event
 270:../Firmware/GD32VF103_standard_peripheral/Source/gd32vf103_timer.c ****     \param[out] none
 271:../Firmware/GD32VF103_standard_peripheral/Source/gd32vf103_timer.c ****     \retval     none
 272:../Firmware/GD32VF103_standard_peripheral/Source/gd32vf103_timer.c **** */
 273:../Firmware/GD32VF103_standard_peripheral/Source/gd32vf103_timer.c **** void timer_prescaler_config(uint32_t timer_periph, uint16_t prescaler, uint32_t pscreload)
 274:../Firmware/GD32VF103_standard_peripheral/Source/gd32vf103_timer.c **** {
 559              		.loc 1 274 1 is_stmt 1
 560              		.cfi_startproc
 561              	.LVL34:
 275:../Firmware/GD32VF103_standard_peripheral/Source/gd32vf103_timer.c ****     TIMER_PSC(timer_periph) = (uint32_t)prescaler;
 562              		.loc 1 275 5
 563              		.loc 1 275 29 is_stmt 0
 564 0000 0CD5     		sw	a1,40(a0)
 276:../Firmware/GD32VF103_standard_peripheral/Source/gd32vf103_timer.c ****     
 277:../Firmware/GD32VF103_standard_peripheral/Source/gd32vf103_timer.c ****     if(TIMER_PSC_RELOAD_NOW == pscreload){
 565              		.loc 1 277 5 is_stmt 1
 566              		.loc 1 277 7 is_stmt 0
 567 0002 8547     		li	a5,1
 568 0004 6303F600 		beq	a2,a5,.L35
 278:../Firmware/GD32VF103_standard_peripheral/Source/gd32vf103_timer.c ****         TIMER_SWEVG(timer_periph) |= (uint32_t)TIMER_SWEVG_UPG;
 279:../Firmware/GD32VF103_standard_peripheral/Source/gd32vf103_timer.c ****     }
 280:../Firmware/GD32VF103_standard_peripheral/Source/gd32vf103_timer.c **** }
 569              		.loc 1 280 1
GAS LISTING /tmp/ccVZQUdL.s 			page 17


 570 0008 8280     		ret
 571              	.L35:
 278:../Firmware/GD32VF103_standard_peripheral/Source/gd32vf103_timer.c ****         TIMER_SWEVG(timer_periph) |= (uint32_t)TIMER_SWEVG_UPG;
 572              		.loc 1 278 9 is_stmt 1
 278:../Firmware/GD32VF103_standard_peripheral/Source/gd32vf103_timer.c ****         TIMER_SWEVG(timer_periph) |= (uint32_t)TIMER_SWEVG_UPG;
 573              		.loc 1 278 35 is_stmt 0
 574 000a 5C49     		lw	a5,20(a0)
 575 000c 93E71700 		ori	a5,a5,1
 576 0010 5CC9     		sw	a5,20(a0)
 577              		.loc 1 280 1
 578 0012 8280     		ret
 579              		.cfi_endproc
 580              	.LFE14:
 582              		.section	.text.timer_repetition_value_config,"ax",@progbits
 583              		.align	1
 584              		.globl	timer_repetition_value_config
 586              	timer_repetition_value_config:
 587              	.LFB15:
 281:../Firmware/GD32VF103_standard_peripheral/Source/gd32vf103_timer.c **** 
 282:../Firmware/GD32VF103_standard_peripheral/Source/gd32vf103_timer.c **** /*!
 283:../Firmware/GD32VF103_standard_peripheral/Source/gd32vf103_timer.c ****     \brief      configure TIMER repetition register value
 284:../Firmware/GD32VF103_standard_peripheral/Source/gd32vf103_timer.c ****     \param[in]  timer_periph: TIMERx(x=0)
 285:../Firmware/GD32VF103_standard_peripheral/Source/gd32vf103_timer.c ****     \param[in]  repetition: the counter repetition value, 0~255
 286:../Firmware/GD32VF103_standard_peripheral/Source/gd32vf103_timer.c ****     \param[out] none
 287:../Firmware/GD32VF103_standard_peripheral/Source/gd32vf103_timer.c ****     \retval     none
 288:../Firmware/GD32VF103_standard_peripheral/Source/gd32vf103_timer.c **** */
 289:../Firmware/GD32VF103_standard_peripheral/Source/gd32vf103_timer.c **** void timer_repetition_value_config(uint32_t timer_periph, uint16_t repetition)
 290:../Firmware/GD32VF103_standard_peripheral/Source/gd32vf103_timer.c **** {
 588              		.loc 1 290 1 is_stmt 1
 589              		.cfi_startproc
 590              	.LVL35:
 291:../Firmware/GD32VF103_standard_peripheral/Source/gd32vf103_timer.c ****     TIMER_CREP(timer_periph) = (uint32_t)repetition;
 591              		.loc 1 291 5
 592              		.loc 1 291 30 is_stmt 0
 593 0000 0CD9     		sw	a1,48(a0)
 292:../Firmware/GD32VF103_standard_peripheral/Source/gd32vf103_timer.c **** } 
 594              		.loc 1 292 1
 595 0002 8280     		ret
 596              		.cfi_endproc
 597              	.LFE15:
 599              		.section	.text.timer_autoreload_value_config,"ax",@progbits
 600              		.align	1
 601              		.globl	timer_autoreload_value_config
 603              	timer_autoreload_value_config:
 604              	.LFB16:
 293:../Firmware/GD32VF103_standard_peripheral/Source/gd32vf103_timer.c ****  
 294:../Firmware/GD32VF103_standard_peripheral/Source/gd32vf103_timer.c **** /*!
 295:../Firmware/GD32VF103_standard_peripheral/Source/gd32vf103_timer.c ****     \brief      configure TIMER autoreload register value
 296:../Firmware/GD32VF103_standard_peripheral/Source/gd32vf103_timer.c ****     \param[in]  timer_periph: TIMERx(x=0..6)
 297:../Firmware/GD32VF103_standard_peripheral/Source/gd32vf103_timer.c ****     \param[in]  autoreload: the counter auto-reload value
 298:../Firmware/GD32VF103_standard_peripheral/Source/gd32vf103_timer.c ****     \param[out] none
 299:../Firmware/GD32VF103_standard_peripheral/Source/gd32vf103_timer.c ****     \retval     none
 300:../Firmware/GD32VF103_standard_peripheral/Source/gd32vf103_timer.c **** */         
 301:../Firmware/GD32VF103_standard_peripheral/Source/gd32vf103_timer.c **** void timer_autoreload_value_config(uint32_t timer_periph, uint16_t autoreload)
 302:../Firmware/GD32VF103_standard_peripheral/Source/gd32vf103_timer.c **** {
 605              		.loc 1 302 1 is_stmt 1
 606              		.cfi_startproc
GAS LISTING /tmp/ccVZQUdL.s 			page 18


 607              	.LVL36:
 303:../Firmware/GD32VF103_standard_peripheral/Source/gd32vf103_timer.c ****     TIMER_CAR(timer_periph) = (uint32_t)autoreload;
 608              		.loc 1 303 5
 609              		.loc 1 303 29 is_stmt 0
 610 0000 4CD5     		sw	a1,44(a0)
 304:../Firmware/GD32VF103_standard_peripheral/Source/gd32vf103_timer.c **** }
 611              		.loc 1 304 1
 612 0002 8280     		ret
 613              		.cfi_endproc
 614              	.LFE16:
 616              		.section	.text.timer_counter_value_config,"ax",@progbits
 617              		.align	1
 618              		.globl	timer_counter_value_config
 620              	timer_counter_value_config:
 621              	.LFB17:
 305:../Firmware/GD32VF103_standard_peripheral/Source/gd32vf103_timer.c **** 
 306:../Firmware/GD32VF103_standard_peripheral/Source/gd32vf103_timer.c **** /*!
 307:../Firmware/GD32VF103_standard_peripheral/Source/gd32vf103_timer.c ****     \brief      configure TIMER counter register value
 308:../Firmware/GD32VF103_standard_peripheral/Source/gd32vf103_timer.c ****     \param[in]  timer_periph: TIMERx(x=0..6)
 309:../Firmware/GD32VF103_standard_peripheral/Source/gd32vf103_timer.c ****     \param[in]  counter: the counter value
 310:../Firmware/GD32VF103_standard_peripheral/Source/gd32vf103_timer.c ****     \param[out] none
 311:../Firmware/GD32VF103_standard_peripheral/Source/gd32vf103_timer.c ****     \retval     none
 312:../Firmware/GD32VF103_standard_peripheral/Source/gd32vf103_timer.c **** */         
 313:../Firmware/GD32VF103_standard_peripheral/Source/gd32vf103_timer.c **** void timer_counter_value_config(uint32_t timer_periph, uint16_t counter)
 314:../Firmware/GD32VF103_standard_peripheral/Source/gd32vf103_timer.c **** {
 622              		.loc 1 314 1 is_stmt 1
 623              		.cfi_startproc
 624              	.LVL37:
 315:../Firmware/GD32VF103_standard_peripheral/Source/gd32vf103_timer.c ****     TIMER_CNT(timer_periph) = (uint32_t)counter;
 625              		.loc 1 315 5
 626              		.loc 1 315 29 is_stmt 0
 627 0000 4CD1     		sw	a1,36(a0)
 316:../Firmware/GD32VF103_standard_peripheral/Source/gd32vf103_timer.c **** }
 628              		.loc 1 316 1
 629 0002 8280     		ret
 630              		.cfi_endproc
 631              	.LFE17:
 633              		.section	.text.timer_counter_read,"ax",@progbits
 634              		.align	1
 635              		.globl	timer_counter_read
 637              	timer_counter_read:
 638              	.LFB18:
 317:../Firmware/GD32VF103_standard_peripheral/Source/gd32vf103_timer.c **** 
 318:../Firmware/GD32VF103_standard_peripheral/Source/gd32vf103_timer.c **** /*!
 319:../Firmware/GD32VF103_standard_peripheral/Source/gd32vf103_timer.c ****     \brief      read TIMER counter value
 320:../Firmware/GD32VF103_standard_peripheral/Source/gd32vf103_timer.c ****     \param[in]  timer_periph: TIMERx(x=0..6)
 321:../Firmware/GD32VF103_standard_peripheral/Source/gd32vf103_timer.c ****     \param[out] none
 322:../Firmware/GD32VF103_standard_peripheral/Source/gd32vf103_timer.c ****     \retval     counter value
 323:../Firmware/GD32VF103_standard_peripheral/Source/gd32vf103_timer.c **** */         
 324:../Firmware/GD32VF103_standard_peripheral/Source/gd32vf103_timer.c **** uint32_t timer_counter_read(uint32_t timer_periph)
 325:../Firmware/GD32VF103_standard_peripheral/Source/gd32vf103_timer.c **** {
 639              		.loc 1 325 1 is_stmt 1
 640              		.cfi_startproc
 641              	.LVL38:
 326:../Firmware/GD32VF103_standard_peripheral/Source/gd32vf103_timer.c ****     uint32_t count_value = 0U;
 642              		.loc 1 326 5
 327:../Firmware/GD32VF103_standard_peripheral/Source/gd32vf103_timer.c ****     count_value = TIMER_CNT(timer_periph);
GAS LISTING /tmp/ccVZQUdL.s 			page 19


 643              		.loc 1 327 5
 644              		.loc 1 327 17 is_stmt 0
 645 0000 4851     		lw	a0,36(a0)
 646              	.LVL39:
 328:../Firmware/GD32VF103_standard_peripheral/Source/gd32vf103_timer.c ****     return (count_value);
 647              		.loc 1 328 5 is_stmt 1
 329:../Firmware/GD32VF103_standard_peripheral/Source/gd32vf103_timer.c **** }
 648              		.loc 1 329 1 is_stmt 0
 649 0002 8280     		ret
 650              		.cfi_endproc
 651              	.LFE18:
 653              		.section	.text.timer_prescaler_read,"ax",@progbits
 654              		.align	1
 655              		.globl	timer_prescaler_read
 657              	timer_prescaler_read:
 658              	.LFB19:
 330:../Firmware/GD32VF103_standard_peripheral/Source/gd32vf103_timer.c **** 
 331:../Firmware/GD32VF103_standard_peripheral/Source/gd32vf103_timer.c **** /*!
 332:../Firmware/GD32VF103_standard_peripheral/Source/gd32vf103_timer.c ****     \brief      read TIMER prescaler value
 333:../Firmware/GD32VF103_standard_peripheral/Source/gd32vf103_timer.c ****     \param[in]  timer_periph: TIMERx(x=0..6)
 334:../Firmware/GD32VF103_standard_peripheral/Source/gd32vf103_timer.c ****     \param[out] none
 335:../Firmware/GD32VF103_standard_peripheral/Source/gd32vf103_timer.c ****     \retval     prescaler register value
 336:../Firmware/GD32VF103_standard_peripheral/Source/gd32vf103_timer.c **** */         
 337:../Firmware/GD32VF103_standard_peripheral/Source/gd32vf103_timer.c **** uint16_t timer_prescaler_read(uint32_t timer_periph)
 338:../Firmware/GD32VF103_standard_peripheral/Source/gd32vf103_timer.c **** {
 659              		.loc 1 338 1 is_stmt 1
 660              		.cfi_startproc
 661              	.LVL40:
 339:../Firmware/GD32VF103_standard_peripheral/Source/gd32vf103_timer.c ****     uint16_t prescaler_value = 0U;
 662              		.loc 1 339 5
 340:../Firmware/GD32VF103_standard_peripheral/Source/gd32vf103_timer.c ****     prescaler_value = (uint16_t) (TIMER_PSC(timer_periph));
 663              		.loc 1 340 5
 664              		.loc 1 340 35 is_stmt 0
 665 0000 0855     		lw	a0,40(a0)
 666              	.LVL41:
 341:../Firmware/GD32VF103_standard_peripheral/Source/gd32vf103_timer.c ****     return (prescaler_value);
 667              		.loc 1 341 5 is_stmt 1
 342:../Firmware/GD32VF103_standard_peripheral/Source/gd32vf103_timer.c **** }
 668              		.loc 1 342 1 is_stmt 0
 669 0002 4205     		slli	a0,a0,16
 670              	.LVL42:
 671 0004 4181     		srli	a0,a0,16
 672 0006 8280     		ret
 673              		.cfi_endproc
 674              	.LFE19:
 676              		.section	.text.timer_single_pulse_mode_config,"ax",@progbits
 677              		.align	1
 678              		.globl	timer_single_pulse_mode_config
 680              	timer_single_pulse_mode_config:
 681              	.LFB20:
 343:../Firmware/GD32VF103_standard_peripheral/Source/gd32vf103_timer.c **** 
 344:../Firmware/GD32VF103_standard_peripheral/Source/gd32vf103_timer.c **** /*!
 345:../Firmware/GD32VF103_standard_peripheral/Source/gd32vf103_timer.c ****     \brief      configure TIMER single pulse mode
 346:../Firmware/GD32VF103_standard_peripheral/Source/gd32vf103_timer.c ****     \param[in]  timer_periph: TIMERx(x=0..6)
 347:../Firmware/GD32VF103_standard_peripheral/Source/gd32vf103_timer.c ****     \param[in]  spmode:
 348:../Firmware/GD32VF103_standard_peripheral/Source/gd32vf103_timer.c ****                 only one parameter can be selected which is shown as below:
 349:../Firmware/GD32VF103_standard_peripheral/Source/gd32vf103_timer.c ****       \arg        TIMER_SP_MODE_SINGLE: single pulse mode
GAS LISTING /tmp/ccVZQUdL.s 			page 20


 350:../Firmware/GD32VF103_standard_peripheral/Source/gd32vf103_timer.c ****       \arg        TIMER_SP_MODE_REPETITIVE: repetitive pulse mode
 351:../Firmware/GD32VF103_standard_peripheral/Source/gd32vf103_timer.c ****     \param[out] none
 352:../Firmware/GD32VF103_standard_peripheral/Source/gd32vf103_timer.c ****     \retval     none
 353:../Firmware/GD32VF103_standard_peripheral/Source/gd32vf103_timer.c **** */
 354:../Firmware/GD32VF103_standard_peripheral/Source/gd32vf103_timer.c **** void timer_single_pulse_mode_config(uint32_t timer_periph, uint32_t spmode)
 355:../Firmware/GD32VF103_standard_peripheral/Source/gd32vf103_timer.c **** {
 682              		.loc 1 355 1 is_stmt 1
 683              		.cfi_startproc
 684              	.LVL43:
 356:../Firmware/GD32VF103_standard_peripheral/Source/gd32vf103_timer.c ****     if(TIMER_SP_MODE_SINGLE == spmode){
 685              		.loc 1 356 5
 686              		.loc 1 356 7 is_stmt 0
 687 0000 A147     		li	a5,8
 688 0002 6387F500 		beq	a1,a5,.L44
 357:../Firmware/GD32VF103_standard_peripheral/Source/gd32vf103_timer.c ****         TIMER_CTL0(timer_periph) |= (uint32_t)TIMER_CTL0_SPM;
 358:../Firmware/GD32VF103_standard_peripheral/Source/gd32vf103_timer.c ****     }else if(TIMER_SP_MODE_REPETITIVE == spmode){
 689              		.loc 1 358 11 is_stmt 1
 690              		.loc 1 358 13 is_stmt 0
 691 0006 81E5     		bne	a1,zero,.L41
 359:../Firmware/GD32VF103_standard_peripheral/Source/gd32vf103_timer.c ****         TIMER_CTL0(timer_periph) &= ~((uint32_t)TIMER_CTL0_SPM);
 692              		.loc 1 359 9 is_stmt 1
 693              		.loc 1 359 34 is_stmt 0
 694 0008 1C41     		lw	a5,0(a0)
 695 000a DD9B     		andi	a5,a5,-9
 696 000c 1CC1     		sw	a5,0(a0)
 360:../Firmware/GD32VF103_standard_peripheral/Source/gd32vf103_timer.c ****     }else{
 361:../Firmware/GD32VF103_standard_peripheral/Source/gd32vf103_timer.c ****         /* illegal parameters */        
 362:../Firmware/GD32VF103_standard_peripheral/Source/gd32vf103_timer.c ****     }
 697              		.loc 1 362 5 is_stmt 1
 698              	.L41:
 363:../Firmware/GD32VF103_standard_peripheral/Source/gd32vf103_timer.c **** }
 699              		.loc 1 363 1 is_stmt 0
 700 000e 8280     		ret
 701              	.L44:
 357:../Firmware/GD32VF103_standard_peripheral/Source/gd32vf103_timer.c ****     }else if(TIMER_SP_MODE_REPETITIVE == spmode){
 702              		.loc 1 357 9 is_stmt 1
 357:../Firmware/GD32VF103_standard_peripheral/Source/gd32vf103_timer.c ****     }else if(TIMER_SP_MODE_REPETITIVE == spmode){
 703              		.loc 1 357 34 is_stmt 0
 704 0010 1C41     		lw	a5,0(a0)
 705 0012 93E78700 		ori	a5,a5,8
 706 0016 1CC1     		sw	a5,0(a0)
 707 0018 8280     		ret
 708              		.cfi_endproc
 709              	.LFE20:
 711              		.section	.text.timer_update_source_config,"ax",@progbits
 712              		.align	1
 713              		.globl	timer_update_source_config
 715              	timer_update_source_config:
 716              	.LFB21:
 364:../Firmware/GD32VF103_standard_peripheral/Source/gd32vf103_timer.c **** 
 365:../Firmware/GD32VF103_standard_peripheral/Source/gd32vf103_timer.c **** /*!
 366:../Firmware/GD32VF103_standard_peripheral/Source/gd32vf103_timer.c ****     \brief      configure TIMER update source 
 367:../Firmware/GD32VF103_standard_peripheral/Source/gd32vf103_timer.c ****     \param[in]  timer_periph: TIMERx(x=0..6)
 368:../Firmware/GD32VF103_standard_peripheral/Source/gd32vf103_timer.c ****     \param[in]  update:
 369:../Firmware/GD32VF103_standard_peripheral/Source/gd32vf103_timer.c ****                 only one parameter can be selected which is shown as below:
 370:../Firmware/GD32VF103_standard_peripheral/Source/gd32vf103_timer.c ****       \arg        TIMER_UPDATE_SRC_GLOBAL: update generate by setting of UPG bit or the counter ove
 371:../Firmware/GD32VF103_standard_peripheral/Source/gd32vf103_timer.c ****                                            or the slave mode controller trigger
GAS LISTING /tmp/ccVZQUdL.s 			page 21


 372:../Firmware/GD32VF103_standard_peripheral/Source/gd32vf103_timer.c ****       \arg        TIMER_UPDATE_SRC_REGULAR: update generate only by counter overflow/underflow
 373:../Firmware/GD32VF103_standard_peripheral/Source/gd32vf103_timer.c ****     \param[out] none
 374:../Firmware/GD32VF103_standard_peripheral/Source/gd32vf103_timer.c ****     \retval     none
 375:../Firmware/GD32VF103_standard_peripheral/Source/gd32vf103_timer.c **** */
 376:../Firmware/GD32VF103_standard_peripheral/Source/gd32vf103_timer.c **** void timer_update_source_config(uint32_t timer_periph, uint32_t update)
 377:../Firmware/GD32VF103_standard_peripheral/Source/gd32vf103_timer.c **** {
 717              		.loc 1 377 1 is_stmt 1
 718              		.cfi_startproc
 719              	.LVL44:
 378:../Firmware/GD32VF103_standard_peripheral/Source/gd32vf103_timer.c ****     if(TIMER_UPDATE_SRC_REGULAR == update){
 720              		.loc 1 378 5
 721              		.loc 1 378 7 is_stmt 0
 722 0000 9147     		li	a5,4
 723 0002 6387F500 		beq	a1,a5,.L48
 379:../Firmware/GD32VF103_standard_peripheral/Source/gd32vf103_timer.c ****         TIMER_CTL0(timer_periph) |= (uint32_t)TIMER_CTL0_UPS;
 380:../Firmware/GD32VF103_standard_peripheral/Source/gd32vf103_timer.c ****     }else if(TIMER_UPDATE_SRC_GLOBAL == update){
 724              		.loc 1 380 11 is_stmt 1
 725              		.loc 1 380 13 is_stmt 0
 726 0006 81E5     		bne	a1,zero,.L45
 381:../Firmware/GD32VF103_standard_peripheral/Source/gd32vf103_timer.c ****         TIMER_CTL0(timer_periph) &= ~(uint32_t)TIMER_CTL0_UPS;
 727              		.loc 1 381 9 is_stmt 1
 728              		.loc 1 381 34 is_stmt 0
 729 0008 1C41     		lw	a5,0(a0)
 730 000a ED9B     		andi	a5,a5,-5
 731 000c 1CC1     		sw	a5,0(a0)
 382:../Firmware/GD32VF103_standard_peripheral/Source/gd32vf103_timer.c ****     }else{
 383:../Firmware/GD32VF103_standard_peripheral/Source/gd32vf103_timer.c ****         /* illegal parameters */        
 384:../Firmware/GD32VF103_standard_peripheral/Source/gd32vf103_timer.c ****     }
 732              		.loc 1 384 5 is_stmt 1
 733              	.L45:
 385:../Firmware/GD32VF103_standard_peripheral/Source/gd32vf103_timer.c **** }
 734              		.loc 1 385 1 is_stmt 0
 735 000e 8280     		ret
 736              	.L48:
 379:../Firmware/GD32VF103_standard_peripheral/Source/gd32vf103_timer.c ****     }else if(TIMER_UPDATE_SRC_GLOBAL == update){
 737              		.loc 1 379 9 is_stmt 1
 379:../Firmware/GD32VF103_standard_peripheral/Source/gd32vf103_timer.c ****     }else if(TIMER_UPDATE_SRC_GLOBAL == update){
 738              		.loc 1 379 34 is_stmt 0
 739 0010 1C41     		lw	a5,0(a0)
 740 0012 93E74700 		ori	a5,a5,4
 741 0016 1CC1     		sw	a5,0(a0)
 742 0018 8280     		ret
 743              		.cfi_endproc
 744              	.LFE21:
 746              		.section	.text.timer_dma_enable,"ax",@progbits
 747              		.align	1
 748              		.globl	timer_dma_enable
 750              	timer_dma_enable:
 751              	.LFB22:
 386:../Firmware/GD32VF103_standard_peripheral/Source/gd32vf103_timer.c **** 
 387:../Firmware/GD32VF103_standard_peripheral/Source/gd32vf103_timer.c **** /*!
 388:../Firmware/GD32VF103_standard_peripheral/Source/gd32vf103_timer.c ****     \brief      enable the TIMER DMA
 389:../Firmware/GD32VF103_standard_peripheral/Source/gd32vf103_timer.c ****     \param[in]  timer_periph: TIMERx(x=0..6)
 390:../Firmware/GD32VF103_standard_peripheral/Source/gd32vf103_timer.c ****     \param[in]  dma: specify which DMA to enable
 391:../Firmware/GD32VF103_standard_peripheral/Source/gd32vf103_timer.c ****                 one or more parameters can be selected which are shown as below:
 392:../Firmware/GD32VF103_standard_peripheral/Source/gd32vf103_timer.c ****       \arg        TIMER_DMA_UPD:  update DMA enable, TIMERx(x=0..6)
 393:../Firmware/GD32VF103_standard_peripheral/Source/gd32vf103_timer.c ****       \arg        TIMER_DMA_CH0D: channel 0 DMA enable, TIMERx(x=0..4)
GAS LISTING /tmp/ccVZQUdL.s 			page 22


 394:../Firmware/GD32VF103_standard_peripheral/Source/gd32vf103_timer.c ****       \arg        TIMER_DMA_CH1D: channel 1 DMA enable, TIMERx(x=0..4)
 395:../Firmware/GD32VF103_standard_peripheral/Source/gd32vf103_timer.c ****       \arg        TIMER_DMA_CH2D: channel 2 DMA enable, TIMERx(x=0..4)
 396:../Firmware/GD32VF103_standard_peripheral/Source/gd32vf103_timer.c ****       \arg        TIMER_DMA_CH3D: channel 3 DMA enable, TIMERx(x=0..4)
 397:../Firmware/GD32VF103_standard_peripheral/Source/gd32vf103_timer.c ****       \arg        TIMER_DMA_CMTD: channel commutation DMA request enable, TIMERx(x=0)
 398:../Firmware/GD32VF103_standard_peripheral/Source/gd32vf103_timer.c ****       \arg        TIMER_DMA_TRGD: trigger DMA enable, TIMERx(x=0..4)
 399:../Firmware/GD32VF103_standard_peripheral/Source/gd32vf103_timer.c ****     \param[out] none
 400:../Firmware/GD32VF103_standard_peripheral/Source/gd32vf103_timer.c ****     \retval     none
 401:../Firmware/GD32VF103_standard_peripheral/Source/gd32vf103_timer.c **** */
 402:../Firmware/GD32VF103_standard_peripheral/Source/gd32vf103_timer.c **** void timer_dma_enable(uint32_t timer_periph, uint16_t dma)
 403:../Firmware/GD32VF103_standard_peripheral/Source/gd32vf103_timer.c **** {
 752              		.loc 1 403 1 is_stmt 1
 753              		.cfi_startproc
 754              	.LVL45:
 404:../Firmware/GD32VF103_standard_peripheral/Source/gd32vf103_timer.c ****     TIMER_DMAINTEN(timer_periph) |= (uint32_t) dma; 
 755              		.loc 1 404 5
 756              		.loc 1 404 34 is_stmt 0
 757 0000 5C45     		lw	a5,12(a0)
 758 0002 DD8D     		or	a1,a1,a5
 759              	.LVL46:
 760 0004 4CC5     		sw	a1,12(a0)
 405:../Firmware/GD32VF103_standard_peripheral/Source/gd32vf103_timer.c **** }
 761              		.loc 1 405 1
 762 0006 8280     		ret
 763              		.cfi_endproc
 764              	.LFE22:
 766              		.section	.text.timer_dma_disable,"ax",@progbits
 767              		.align	1
 768              		.globl	timer_dma_disable
 770              	timer_dma_disable:
 771              	.LFB23:
 406:../Firmware/GD32VF103_standard_peripheral/Source/gd32vf103_timer.c **** 
 407:../Firmware/GD32VF103_standard_peripheral/Source/gd32vf103_timer.c **** /*!
 408:../Firmware/GD32VF103_standard_peripheral/Source/gd32vf103_timer.c ****     \brief      disable the TIMER DMA
 409:../Firmware/GD32VF103_standard_peripheral/Source/gd32vf103_timer.c ****     \param[in]  timer_periph: TIMERxTIMERx(x=0..6)
 410:../Firmware/GD32VF103_standard_peripheral/Source/gd32vf103_timer.c ****     \param[in]  dma: specify which DMA to disbale
 411:../Firmware/GD32VF103_standard_peripheral/Source/gd32vf103_timer.c ****                 one or more parameters can be selected which are shown as below:
 412:../Firmware/GD32VF103_standard_peripheral/Source/gd32vf103_timer.c ****       \arg        TIMER_DMA_UPD:  update DMA enable, TIMERx(x=0..6)
 413:../Firmware/GD32VF103_standard_peripheral/Source/gd32vf103_timer.c ****       \arg        TIMER_DMA_CH0D: channel 0 DMA enable, TIMERx(x=0..4)
 414:../Firmware/GD32VF103_standard_peripheral/Source/gd32vf103_timer.c ****       \arg        TIMER_DMA_CH1D: channel 1 DMA enable, TIMERx(x=0..4)
 415:../Firmware/GD32VF103_standard_peripheral/Source/gd32vf103_timer.c ****       \arg        TIMER_DMA_CH2D: channel 2 DMA enable, TIMERx(x=0..4)
 416:../Firmware/GD32VF103_standard_peripheral/Source/gd32vf103_timer.c ****       \arg        TIMER_DMA_CH3D: channel 3 DMA enable, TIMERx(x=0..4)
 417:../Firmware/GD32VF103_standard_peripheral/Source/gd32vf103_timer.c ****       \arg        TIMER_DMA_CMTD: channel commutation DMA request enable, TIMERx(x=0)
 418:../Firmware/GD32VF103_standard_peripheral/Source/gd32vf103_timer.c ****       \arg        TIMER_DMA_TRGD: trigger DMA enable, TIMERx(x=0..4,7)
 419:../Firmware/GD32VF103_standard_peripheral/Source/gd32vf103_timer.c ****     \param[out] none
 420:../Firmware/GD32VF103_standard_peripheral/Source/gd32vf103_timer.c ****     \retval     none
 421:../Firmware/GD32VF103_standard_peripheral/Source/gd32vf103_timer.c **** */
 422:../Firmware/GD32VF103_standard_peripheral/Source/gd32vf103_timer.c **** void timer_dma_disable(uint32_t timer_periph, uint16_t dma)
 423:../Firmware/GD32VF103_standard_peripheral/Source/gd32vf103_timer.c **** {
 772              		.loc 1 423 1 is_stmt 1
 773              		.cfi_startproc
 774              	.LVL47:
 424:../Firmware/GD32VF103_standard_peripheral/Source/gd32vf103_timer.c ****     TIMER_DMAINTEN(timer_periph) &= (~(uint32_t)(dma)); 
 775              		.loc 1 424 5
 776              		.loc 1 424 34 is_stmt 0
 777 0000 5C45     		lw	a5,12(a0)
 778              		.loc 1 424 38
 779 0002 93C5F5FF 		not	a1,a1
GAS LISTING /tmp/ccVZQUdL.s 			page 23


 780              	.LVL48:
 781              		.loc 1 424 34
 782 0006 FD8D     		and	a1,a1,a5
 783 0008 4CC5     		sw	a1,12(a0)
 425:../Firmware/GD32VF103_standard_peripheral/Source/gd32vf103_timer.c **** }
 784              		.loc 1 425 1
 785 000a 8280     		ret
 786              		.cfi_endproc
 787              	.LFE23:
 789              		.section	.text.timer_channel_dma_request_source_select,"ax",@progbits
 790              		.align	1
 791              		.globl	timer_channel_dma_request_source_select
 793              	timer_channel_dma_request_source_select:
 794              	.LFB24:
 426:../Firmware/GD32VF103_standard_peripheral/Source/gd32vf103_timer.c **** 
 427:../Firmware/GD32VF103_standard_peripheral/Source/gd32vf103_timer.c **** /*!
 428:../Firmware/GD32VF103_standard_peripheral/Source/gd32vf103_timer.c ****     \brief      channel DMA request source selection
 429:../Firmware/GD32VF103_standard_peripheral/Source/gd32vf103_timer.c ****     \param[in]  timer_periph: TIMERx(x=0..4)
 430:../Firmware/GD32VF103_standard_peripheral/Source/gd32vf103_timer.c ****     \param[in]  dma_request: channel DMA request source selection
 431:../Firmware/GD32VF103_standard_peripheral/Source/gd32vf103_timer.c ****                 only one parameter can be selected which is shown as below:
 432:../Firmware/GD32VF103_standard_peripheral/Source/gd32vf103_timer.c ****        \arg        TIMER_DMAREQUEST_CHANNELEVENT: DMA request of channel n is sent when channel n e
 433:../Firmware/GD32VF103_standard_peripheral/Source/gd32vf103_timer.c ****        \arg        TIMER_DMAREQUEST_UPDATEEVENT: DMA request of channel n is sent when update event
 434:../Firmware/GD32VF103_standard_peripheral/Source/gd32vf103_timer.c ****     \param[out] none
 435:../Firmware/GD32VF103_standard_peripheral/Source/gd32vf103_timer.c ****     \retval     none
 436:../Firmware/GD32VF103_standard_peripheral/Source/gd32vf103_timer.c **** */
 437:../Firmware/GD32VF103_standard_peripheral/Source/gd32vf103_timer.c **** void timer_channel_dma_request_source_select(uint32_t timer_periph, uint32_t dma_request)
 438:../Firmware/GD32VF103_standard_peripheral/Source/gd32vf103_timer.c **** {
 795              		.loc 1 438 1 is_stmt 1
 796              		.cfi_startproc
 797              	.LVL49:
 439:../Firmware/GD32VF103_standard_peripheral/Source/gd32vf103_timer.c ****     if(TIMER_DMAREQUEST_UPDATEEVENT == dma_request){
 798              		.loc 1 439 5
 799              		.loc 1 439 7 is_stmt 0
 800 0000 A147     		li	a5,8
 801 0002 6387F500 		beq	a1,a5,.L54
 440:../Firmware/GD32VF103_standard_peripheral/Source/gd32vf103_timer.c ****         TIMER_CTL1(timer_periph) |= (uint32_t)TIMER_CTL1_DMAS;
 441:../Firmware/GD32VF103_standard_peripheral/Source/gd32vf103_timer.c ****     }else if(TIMER_DMAREQUEST_CHANNELEVENT == dma_request){
 802              		.loc 1 441 11 is_stmt 1
 803              		.loc 1 441 13 is_stmt 0
 804 0006 81E5     		bne	a1,zero,.L51
 442:../Firmware/GD32VF103_standard_peripheral/Source/gd32vf103_timer.c ****         TIMER_CTL1(timer_periph) &= ~(uint32_t)TIMER_CTL1_DMAS;
 805              		.loc 1 442 9 is_stmt 1
 806              		.loc 1 442 34 is_stmt 0
 807 0008 5C41     		lw	a5,4(a0)
 808 000a DD9B     		andi	a5,a5,-9
 809 000c 5CC1     		sw	a5,4(a0)
 443:../Firmware/GD32VF103_standard_peripheral/Source/gd32vf103_timer.c ****     }else{
 444:../Firmware/GD32VF103_standard_peripheral/Source/gd32vf103_timer.c ****         /* illegal parameters */        
 445:../Firmware/GD32VF103_standard_peripheral/Source/gd32vf103_timer.c ****     }
 810              		.loc 1 445 5 is_stmt 1
 811              	.L51:
 446:../Firmware/GD32VF103_standard_peripheral/Source/gd32vf103_timer.c **** }
 812              		.loc 1 446 1 is_stmt 0
 813 000e 8280     		ret
 814              	.L54:
 440:../Firmware/GD32VF103_standard_peripheral/Source/gd32vf103_timer.c ****     }else if(TIMER_DMAREQUEST_CHANNELEVENT == dma_request){
 815              		.loc 1 440 9 is_stmt 1
GAS LISTING /tmp/ccVZQUdL.s 			page 24


 440:../Firmware/GD32VF103_standard_peripheral/Source/gd32vf103_timer.c ****     }else if(TIMER_DMAREQUEST_CHANNELEVENT == dma_request){
 816              		.loc 1 440 34 is_stmt 0
 817 0010 5C41     		lw	a5,4(a0)
 818 0012 93E78700 		ori	a5,a5,8
 819 0016 5CC1     		sw	a5,4(a0)
 820 0018 8280     		ret
 821              		.cfi_endproc
 822              	.LFE24:
 824              		.section	.text.timer_dma_transfer_config,"ax",@progbits
 825              		.align	1
 826              		.globl	timer_dma_transfer_config
 828              	timer_dma_transfer_config:
 829              	.LFB25:
 447:../Firmware/GD32VF103_standard_peripheral/Source/gd32vf103_timer.c **** 
 448:../Firmware/GD32VF103_standard_peripheral/Source/gd32vf103_timer.c **** /*!
 449:../Firmware/GD32VF103_standard_peripheral/Source/gd32vf103_timer.c ****     \brief      configure the TIMER DMA transfer
 450:../Firmware/GD32VF103_standard_peripheral/Source/gd32vf103_timer.c ****     \param[in]  timer_periph: TIMERx(x=0..4)
 451:../Firmware/GD32VF103_standard_peripheral/Source/gd32vf103_timer.c ****     \param[in]  dma_baseaddr:
 452:../Firmware/GD32VF103_standard_peripheral/Source/gd32vf103_timer.c ****                 only one parameter can be selected which is shown as below:
 453:../Firmware/GD32VF103_standard_peripheral/Source/gd32vf103_timer.c ****        \arg        TIMER_DMACFG_DMATA_CTL0: DMA transfer address is TIMER_CTL0, TIMERx(x=0..4)
 454:../Firmware/GD32VF103_standard_peripheral/Source/gd32vf103_timer.c ****        \arg        TIMER_DMACFG_DMATA_CTL1: DMA transfer address is TIMER_CTL1, TIMERx(x=0..4)
 455:../Firmware/GD32VF103_standard_peripheral/Source/gd32vf103_timer.c ****        \arg        TIMER_DMACFG_DMATA_SMCFG: DMA transfer address is TIMER_SMCFG, TIMERx(x=0..4)
 456:../Firmware/GD32VF103_standard_peripheral/Source/gd32vf103_timer.c ****        \arg        TIMER_DMACFG_DMATA_DMAINTEN: DMA transfer address is TIMER_DMAINTEN, TIMERx(x=0.
 457:../Firmware/GD32VF103_standard_peripheral/Source/gd32vf103_timer.c ****        \arg        TIMER_DMACFG_DMATA_INTF: DMA transfer address is TIMER_INTF, TIMERx(x=0..4)
 458:../Firmware/GD32VF103_standard_peripheral/Source/gd32vf103_timer.c ****        \arg        TIMER_DMACFG_DMATA_SWEVG: DMA transfer address is TIMER_SWEVG, TIMERx(x=0..4)
 459:../Firmware/GD32VF103_standard_peripheral/Source/gd32vf103_timer.c ****        \arg        TIMER_DMACFG_DMATA_CHCTL0: DMA transfer address is TIMER_CHCTL0, TIMERx(x=0..4)
 460:../Firmware/GD32VF103_standard_peripheral/Source/gd32vf103_timer.c ****        \arg        TIMER_DMACFG_DMATA_CHCTL1: DMA transfer address is TIMER_CHCTL1, TIMERx(x=0..4)
 461:../Firmware/GD32VF103_standard_peripheral/Source/gd32vf103_timer.c ****        \arg        TIMER_DMACFG_DMATA_CHCTL2: DMA transfer address is TIMER_CHCTL2, TIMERx(x=0..4)
 462:../Firmware/GD32VF103_standard_peripheral/Source/gd32vf103_timer.c ****        \arg        TIMER_DMACFG_DMATA_CNT: DMA transfer address is TIMER_CNT, TIMERx(x=0..4)
 463:../Firmware/GD32VF103_standard_peripheral/Source/gd32vf103_timer.c ****        \arg        TIMER_DMACFG_DMATA_PSC: DMA transfer address is TIMER_PSC, TIMERx(x=0..4)
 464:../Firmware/GD32VF103_standard_peripheral/Source/gd32vf103_timer.c ****        \arg        TIMER_DMACFG_DMATA_CAR: DMA transfer address is TIMER_CAR, TIMERx(x=0..4)
 465:../Firmware/GD32VF103_standard_peripheral/Source/gd32vf103_timer.c ****        \arg        TIMER_DMACFG_DMATA_CREP: DMA transfer address is TIMER_CREP, TIMERx(x=0)
 466:../Firmware/GD32VF103_standard_peripheral/Source/gd32vf103_timer.c ****        \arg        TIMER_DMACFG_DMATA_CH0CV: DMA transfer address is TIMER_CH0CV, TIMERx(x=0..4)
 467:../Firmware/GD32VF103_standard_peripheral/Source/gd32vf103_timer.c ****        \arg        TIMER_DMACFG_DMATA_CH1CV: DMA transfer address is TIMER_CH1CV, TIMERx(x=0..4)
 468:../Firmware/GD32VF103_standard_peripheral/Source/gd32vf103_timer.c ****        \arg        TIMER_DMACFG_DMATA_CH2CV: DMA transfer address is TIMER_CH2CV, TIMERx(x=0..4)
 469:../Firmware/GD32VF103_standard_peripheral/Source/gd32vf103_timer.c ****        \arg        TIMER_DMACFG_DMATA_CH3CV: DMA transfer address is TIMER_CH3CV, TIMERx(x=0..4)
 470:../Firmware/GD32VF103_standard_peripheral/Source/gd32vf103_timer.c ****        \arg        TIMER_DMACFG_DMATA_CCHP: DMA transfer address is TIMER_CCHP, TIMERx(x=0)
 471:../Firmware/GD32VF103_standard_peripheral/Source/gd32vf103_timer.c ****        \arg        TIMER_DMACFG_DMATA_DMACFG: DMA transfer address is TIMER_DMACFG, TIMERx(x=0..4)
 472:../Firmware/GD32VF103_standard_peripheral/Source/gd32vf103_timer.c ****     \param[in]  dma_lenth:
 473:../Firmware/GD32VF103_standard_peripheral/Source/gd32vf103_timer.c ****                 only one parameter can be selected which is shown as below:
 474:../Firmware/GD32VF103_standard_peripheral/Source/gd32vf103_timer.c ****        \arg        TIMER_DMACFG_DMATC_xTRANSFER(x=1..6): DMA transfer x time
 475:../Firmware/GD32VF103_standard_peripheral/Source/gd32vf103_timer.c ****     \param[out] none
 476:../Firmware/GD32VF103_standard_peripheral/Source/gd32vf103_timer.c ****     \retval     none
 477:../Firmware/GD32VF103_standard_peripheral/Source/gd32vf103_timer.c **** */
 478:../Firmware/GD32VF103_standard_peripheral/Source/gd32vf103_timer.c **** void timer_dma_transfer_config(uint32_t timer_periph, uint32_t dma_baseaddr, uint32_t dma_lenth)
 479:../Firmware/GD32VF103_standard_peripheral/Source/gd32vf103_timer.c **** {
 830              		.loc 1 479 1 is_stmt 1
 831              		.cfi_startproc
 832              	.LVL50:
 480:../Firmware/GD32VF103_standard_peripheral/Source/gd32vf103_timer.c ****     TIMER_DMACFG(timer_periph) &= (~(uint32_t)(TIMER_DMACFG_DMATA | TIMER_DMACFG_DMATC));
 833              		.loc 1 480 5
 834              		.loc 1 480 32 is_stmt 0
 835 0000 3C45     		lw	a5,72(a0)
 836 0002 7977     		li	a4,-8192
 837 0004 1307070E 		addi	a4,a4,224
 838 0008 F98F     		and	a5,a5,a4
 839 000a 3CC5     		sw	a5,72(a0)
GAS LISTING /tmp/ccVZQUdL.s 			page 25


 481:../Firmware/GD32VF103_standard_peripheral/Source/gd32vf103_timer.c ****     TIMER_DMACFG(timer_periph) |= (uint32_t)(dma_baseaddr | dma_lenth);
 840              		.loc 1 481 5 is_stmt 1
 841              		.loc 1 481 32 is_stmt 0
 842 000c 3C45     		lw	a5,72(a0)
 843              		.loc 1 481 59
 844 000e D18D     		or	a1,a1,a2
 845              	.LVL51:
 846              		.loc 1 481 32
 847 0010 DD8D     		or	a1,a1,a5
 848 0012 2CC5     		sw	a1,72(a0)
 482:../Firmware/GD32VF103_standard_peripheral/Source/gd32vf103_timer.c **** }
 849              		.loc 1 482 1
 850 0014 8280     		ret
 851              		.cfi_endproc
 852              	.LFE25:
 854              		.section	.text.timer_event_software_generate,"ax",@progbits
 855              		.align	1
 856              		.globl	timer_event_software_generate
 858              	timer_event_software_generate:
 859              	.LFB26:
 483:../Firmware/GD32VF103_standard_peripheral/Source/gd32vf103_timer.c **** 
 484:../Firmware/GD32VF103_standard_peripheral/Source/gd32vf103_timer.c **** /*!
 485:../Firmware/GD32VF103_standard_peripheral/Source/gd32vf103_timer.c ****     \brief      software generate events 
 486:../Firmware/GD32VF103_standard_peripheral/Source/gd32vf103_timer.c ****     \param[in]  timer_periph: TIMERx(x=0..4)
 487:../Firmware/GD32VF103_standard_peripheral/Source/gd32vf103_timer.c ****     \param[in]  event: the timer software event generation sources
 488:../Firmware/GD32VF103_standard_peripheral/Source/gd32vf103_timer.c ****                 one or more parameters can be selected which are shown as below:
 489:../Firmware/GD32VF103_standard_peripheral/Source/gd32vf103_timer.c ****       \arg        TIMER_EVENT_SRC_UPG: update event generation, TIMERx(x=0..6)
 490:../Firmware/GD32VF103_standard_peripheral/Source/gd32vf103_timer.c ****       \arg        TIMER_EVENT_SRC_CH0G: channel 0 capture or compare event generation, TIMERx(x=0..
 491:../Firmware/GD32VF103_standard_peripheral/Source/gd32vf103_timer.c ****       \arg        TIMER_EVENT_SRC_CH1G: channel 1 capture or compare event generation, TIMERx(x=0..
 492:../Firmware/GD32VF103_standard_peripheral/Source/gd32vf103_timer.c ****       \arg        TIMER_EVENT_SRC_CH2G: channel 2 capture or compare event generation, TIMERx(x=0..
 493:../Firmware/GD32VF103_standard_peripheral/Source/gd32vf103_timer.c ****       \arg        TIMER_EVENT_SRC_CH3G: channel 3 capture or compare event generation, TIMERx(x=0..
 494:../Firmware/GD32VF103_standard_peripheral/Source/gd32vf103_timer.c ****       \arg        TIMER_EVENT_SRC_CMTG: channel commutation event generation, TIMERx(x=0) 
 495:../Firmware/GD32VF103_standard_peripheral/Source/gd32vf103_timer.c ****       \arg        TIMER_EVENT_SRC_TRGG: trigger event generation, TIMERx(x=0..4)
 496:../Firmware/GD32VF103_standard_peripheral/Source/gd32vf103_timer.c ****       \arg        TIMER_EVENT_SRC_BRKG:  break event generation, TIMERx(x=0)
 497:../Firmware/GD32VF103_standard_peripheral/Source/gd32vf103_timer.c ****     \param[out] none
 498:../Firmware/GD32VF103_standard_peripheral/Source/gd32vf103_timer.c ****     \retval     none
 499:../Firmware/GD32VF103_standard_peripheral/Source/gd32vf103_timer.c **** */
 500:../Firmware/GD32VF103_standard_peripheral/Source/gd32vf103_timer.c **** void timer_event_software_generate(uint32_t timer_periph, uint16_t event)
 501:../Firmware/GD32VF103_standard_peripheral/Source/gd32vf103_timer.c **** {
 860              		.loc 1 501 1 is_stmt 1
 861              		.cfi_startproc
 862              	.LVL52:
 502:../Firmware/GD32VF103_standard_peripheral/Source/gd32vf103_timer.c ****     TIMER_SWEVG(timer_periph) |= (uint32_t)event;
 863              		.loc 1 502 5
 864              		.loc 1 502 31 is_stmt 0
 865 0000 5C49     		lw	a5,20(a0)
 866 0002 DD8D     		or	a1,a1,a5
 867              	.LVL53:
 868 0004 4CC9     		sw	a1,20(a0)
 503:../Firmware/GD32VF103_standard_peripheral/Source/gd32vf103_timer.c **** }
 869              		.loc 1 503 1
 870 0006 8280     		ret
 871              		.cfi_endproc
 872              	.LFE26:
 874              		.section	.text.timer_break_struct_para_init,"ax",@progbits
 875              		.align	1
 876              		.globl	timer_break_struct_para_init
GAS LISTING /tmp/ccVZQUdL.s 			page 26


 878              	timer_break_struct_para_init:
 879              	.LFB27:
 504:../Firmware/GD32VF103_standard_peripheral/Source/gd32vf103_timer.c **** 
 505:../Firmware/GD32VF103_standard_peripheral/Source/gd32vf103_timer.c **** /*!
 506:../Firmware/GD32VF103_standard_peripheral/Source/gd32vf103_timer.c ****     \brief      initialize TIMER break parameter struct with a default value
 507:../Firmware/GD32VF103_standard_peripheral/Source/gd32vf103_timer.c ****     \param[in]  breakpara: TIMER break parameter struct
 508:../Firmware/GD32VF103_standard_peripheral/Source/gd32vf103_timer.c ****     \param[out] none
 509:../Firmware/GD32VF103_standard_peripheral/Source/gd32vf103_timer.c ****     \retval     none
 510:../Firmware/GD32VF103_standard_peripheral/Source/gd32vf103_timer.c **** */
 511:../Firmware/GD32VF103_standard_peripheral/Source/gd32vf103_timer.c **** void timer_break_struct_para_init(timer_break_parameter_struct* breakpara)
 512:../Firmware/GD32VF103_standard_peripheral/Source/gd32vf103_timer.c **** {
 880              		.loc 1 512 1 is_stmt 1
 881              		.cfi_startproc
 882              	.LVL54:
 513:../Firmware/GD32VF103_standard_peripheral/Source/gd32vf103_timer.c ****     /* initialize the break parameter struct member with the default value */
 514:../Firmware/GD32VF103_standard_peripheral/Source/gd32vf103_timer.c ****     breakpara->runoffstate     = TIMER_ROS_STATE_DISABLE;
 883              		.loc 1 514 5
 884              		.loc 1 514 32 is_stmt 0
 885 0000 23100500 		sh	zero,0(a0)
 515:../Firmware/GD32VF103_standard_peripheral/Source/gd32vf103_timer.c ****     breakpara->ideloffstate    = TIMER_IOS_STATE_DISABLE;
 886              		.loc 1 515 5 is_stmt 1
 887              		.loc 1 515 32 is_stmt 0
 888 0004 23110500 		sh	zero,2(a0)
 516:../Firmware/GD32VF103_standard_peripheral/Source/gd32vf103_timer.c ****     breakpara->deadtime        = 0U;
 889              		.loc 1 516 5 is_stmt 1
 890              		.loc 1 516 32 is_stmt 0
 891 0008 23120500 		sh	zero,4(a0)
 517:../Firmware/GD32VF103_standard_peripheral/Source/gd32vf103_timer.c ****     breakpara->breakpolarity   = TIMER_BREAK_POLARITY_LOW;
 892              		.loc 1 517 5 is_stmt 1
 893              		.loc 1 517 32 is_stmt 0
 894 000c 23130500 		sh	zero,6(a0)
 518:../Firmware/GD32VF103_standard_peripheral/Source/gd32vf103_timer.c ****     breakpara->outputautostate = TIMER_OUTAUTO_DISABLE;
 895              		.loc 1 518 5 is_stmt 1
 896              		.loc 1 518 32 is_stmt 0
 897 0010 23140500 		sh	zero,8(a0)
 519:../Firmware/GD32VF103_standard_peripheral/Source/gd32vf103_timer.c ****     breakpara->protectmode     = TIMER_CCHP_PROT_OFF;
 898              		.loc 1 519 5 is_stmt 1
 899              		.loc 1 519 32 is_stmt 0
 900 0014 23150500 		sh	zero,10(a0)
 520:../Firmware/GD32VF103_standard_peripheral/Source/gd32vf103_timer.c ****     breakpara->breakstate      = TIMER_BREAK_DISABLE;
 901              		.loc 1 520 5 is_stmt 1
 902              		.loc 1 520 32 is_stmt 0
 903 0018 23160500 		sh	zero,12(a0)
 521:../Firmware/GD32VF103_standard_peripheral/Source/gd32vf103_timer.c **** }
 904              		.loc 1 521 1
 905 001c 8280     		ret
 906              		.cfi_endproc
 907              	.LFE27:
 909              		.section	.text.timer_break_config,"ax",@progbits
 910              		.align	1
 911              		.globl	timer_break_config
 913              	timer_break_config:
 914              	.LFB28:
 522:../Firmware/GD32VF103_standard_peripheral/Source/gd32vf103_timer.c **** 
 523:../Firmware/GD32VF103_standard_peripheral/Source/gd32vf103_timer.c **** /*!
 524:../Firmware/GD32VF103_standard_peripheral/Source/gd32vf103_timer.c ****     \brief      configure TIMER break function 
 525:../Firmware/GD32VF103_standard_peripheral/Source/gd32vf103_timer.c ****     \param[in]  timer_periph: TIMERx(x=0)
GAS LISTING /tmp/ccVZQUdL.s 			page 27


 526:../Firmware/GD32VF103_standard_peripheral/Source/gd32vf103_timer.c ****     \param[in]  breakpara: TIMER break parameter struct
 527:../Firmware/GD32VF103_standard_peripheral/Source/gd32vf103_timer.c ****                   runoffstate: TIMER_ROS_STATE_ENABLE, TIMER_ROS_STATE_DISABLE
 528:../Firmware/GD32VF103_standard_peripheral/Source/gd32vf103_timer.c ****                   ideloffstate: TIMER_IOS_STATE_ENABLE, TIMER_IOS_STATE_DISABLE
 529:../Firmware/GD32VF103_standard_peripheral/Source/gd32vf103_timer.c ****                   deadtime: 0~255
 530:../Firmware/GD32VF103_standard_peripheral/Source/gd32vf103_timer.c ****                   breakpolarity: TIMER_BREAK_POLARITY_LOW, TIMER_BREAK_POLARITY_HIGH
 531:../Firmware/GD32VF103_standard_peripheral/Source/gd32vf103_timer.c ****                   outputautostate: TIMER_OUTAUTO_ENABLE, TIMER_OUTAUTO_DISABLE
 532:../Firmware/GD32VF103_standard_peripheral/Source/gd32vf103_timer.c ****                   protectmode: TIMER_CCHP_PROT_OFF, TIMER_CCHP_PROT_0, TIMER_CCHP_PROT_1, TIMER_CCH
 533:../Firmware/GD32VF103_standard_peripheral/Source/gd32vf103_timer.c ****                   breakstate: TIMER_BREAK_ENABLE, TIMER_BREAK_DISABLE
 534:../Firmware/GD32VF103_standard_peripheral/Source/gd32vf103_timer.c ****     \param[out] none
 535:../Firmware/GD32VF103_standard_peripheral/Source/gd32vf103_timer.c ****     \retval     none
 536:../Firmware/GD32VF103_standard_peripheral/Source/gd32vf103_timer.c **** */
 537:../Firmware/GD32VF103_standard_peripheral/Source/gd32vf103_timer.c **** void timer_break_config(uint32_t timer_periph, timer_break_parameter_struct* breakpara)
 538:../Firmware/GD32VF103_standard_peripheral/Source/gd32vf103_timer.c **** {
 915              		.loc 1 538 1 is_stmt 1
 916              		.cfi_startproc
 917              	.LVL55:
 539:../Firmware/GD32VF103_standard_peripheral/Source/gd32vf103_timer.c ****     TIMER_CCHP(timer_periph) = (uint32_t)(((uint32_t)(breakpara->runoffstate)) |
 918              		.loc 1 539 5
 919              		.loc 1 539 32 is_stmt 0
 920 0000 83D62500 		lhu	a3,2(a1)
 921 0004 83D70500 		lhu	a5,0(a1)
 922 0008 03D74500 		lhu	a4,4(a1)
 923 000c 03D86500 		lhu	a6,6(a1)
 924 0010 03D68500 		lhu	a2,8(a1)
 925 0014 D58F     		or	a5,a5,a3
 926 0016 D98F     		or	a5,a5,a4
 927 0018 83D6A500 		lhu	a3,10(a1)
 928 001c 03D7C500 		lhu	a4,12(a1)
 929 0020 B3E70701 		or	a5,a5,a6
 930 0024 D18F     		or	a5,a5,a2
 931 0026 D58F     		or	a5,a5,a3
 932 0028 D98F     		or	a5,a5,a4
 933 002a C207     		slli	a5,a5,16
 934 002c C183     		srli	a5,a5,16
 935              		.loc 1 539 30
 936 002e 7CC1     		sw	a5,68(a0)
 540:../Firmware/GD32VF103_standard_peripheral/Source/gd32vf103_timer.c ****                                           ((uint32_t)(breakpara->ideloffstate))|
 541:../Firmware/GD32VF103_standard_peripheral/Source/gd32vf103_timer.c ****                                           ((uint32_t)(breakpara->deadtime)) |
 542:../Firmware/GD32VF103_standard_peripheral/Source/gd32vf103_timer.c ****                                           ((uint32_t)(breakpara->breakpolarity)) |
 543:../Firmware/GD32VF103_standard_peripheral/Source/gd32vf103_timer.c ****                                           ((uint32_t)(breakpara->outputautostate)) |
 544:../Firmware/GD32VF103_standard_peripheral/Source/gd32vf103_timer.c ****                                           ((uint32_t)(breakpara->protectmode)) |
 545:../Firmware/GD32VF103_standard_peripheral/Source/gd32vf103_timer.c ****                                           ((uint32_t)(breakpara->breakstate)));
 546:../Firmware/GD32VF103_standard_peripheral/Source/gd32vf103_timer.c **** }
 937              		.loc 1 546 1
 938 0030 8280     		ret
 939              		.cfi_endproc
 940              	.LFE28:
 942              		.section	.text.timer_break_enable,"ax",@progbits
 943              		.align	1
 944              		.globl	timer_break_enable
 946              	timer_break_enable:
 947              	.LFB29:
 547:../Firmware/GD32VF103_standard_peripheral/Source/gd32vf103_timer.c **** 
 548:../Firmware/GD32VF103_standard_peripheral/Source/gd32vf103_timer.c **** /*!
 549:../Firmware/GD32VF103_standard_peripheral/Source/gd32vf103_timer.c ****     \brief      enable TIMER break function
 550:../Firmware/GD32VF103_standard_peripheral/Source/gd32vf103_timer.c ****     \param[in]  timer_periph: TIMERx(x=0)
 551:../Firmware/GD32VF103_standard_peripheral/Source/gd32vf103_timer.c ****     \param[out] none
GAS LISTING /tmp/ccVZQUdL.s 			page 28


 552:../Firmware/GD32VF103_standard_peripheral/Source/gd32vf103_timer.c ****     \retval     none
 553:../Firmware/GD32VF103_standard_peripheral/Source/gd32vf103_timer.c **** */
 554:../Firmware/GD32VF103_standard_peripheral/Source/gd32vf103_timer.c **** void timer_break_enable(uint32_t timer_periph)
 555:../Firmware/GD32VF103_standard_peripheral/Source/gd32vf103_timer.c **** {
 948              		.loc 1 555 1 is_stmt 1
 949              		.cfi_startproc
 950              	.LVL56:
 556:../Firmware/GD32VF103_standard_peripheral/Source/gd32vf103_timer.c ****     TIMER_CCHP(timer_periph) |= (uint32_t)TIMER_CCHP_BRKEN;
 951              		.loc 1 556 5
 952              		.loc 1 556 30 is_stmt 0
 953 0000 7C41     		lw	a5,68(a0)
 954 0002 0567     		li	a4,4096
 955 0004 D98F     		or	a5,a5,a4
 956 0006 7CC1     		sw	a5,68(a0)
 557:../Firmware/GD32VF103_standard_peripheral/Source/gd32vf103_timer.c **** }
 957              		.loc 1 557 1
 958 0008 8280     		ret
 959              		.cfi_endproc
 960              	.LFE29:
 962              		.section	.text.timer_break_disable,"ax",@progbits
 963              		.align	1
 964              		.globl	timer_break_disable
 966              	timer_break_disable:
 967              	.LFB30:
 558:../Firmware/GD32VF103_standard_peripheral/Source/gd32vf103_timer.c **** 
 559:../Firmware/GD32VF103_standard_peripheral/Source/gd32vf103_timer.c **** /*!
 560:../Firmware/GD32VF103_standard_peripheral/Source/gd32vf103_timer.c ****     \brief      disable TIMER break function
 561:../Firmware/GD32VF103_standard_peripheral/Source/gd32vf103_timer.c ****     \param[in]  timer_periph: TIMERx(x=0)
 562:../Firmware/GD32VF103_standard_peripheral/Source/gd32vf103_timer.c ****     \param[out] none
 563:../Firmware/GD32VF103_standard_peripheral/Source/gd32vf103_timer.c ****     \retval     none
 564:../Firmware/GD32VF103_standard_peripheral/Source/gd32vf103_timer.c **** */
 565:../Firmware/GD32VF103_standard_peripheral/Source/gd32vf103_timer.c **** void timer_break_disable(uint32_t timer_periph)
 566:../Firmware/GD32VF103_standard_peripheral/Source/gd32vf103_timer.c **** {
 968              		.loc 1 566 1 is_stmt 1
 969              		.cfi_startproc
 970              	.LVL57:
 567:../Firmware/GD32VF103_standard_peripheral/Source/gd32vf103_timer.c ****     TIMER_CCHP(timer_periph) &= ~(uint32_t)TIMER_CCHP_BRKEN;
 971              		.loc 1 567 5
 972              		.loc 1 567 30 is_stmt 0
 973 0000 7C41     		lw	a5,68(a0)
 974 0002 7D77     		li	a4,-4096
 975 0004 7D17     		addi	a4,a4,-1
 976 0006 F98F     		and	a5,a5,a4
 977 0008 7CC1     		sw	a5,68(a0)
 568:../Firmware/GD32VF103_standard_peripheral/Source/gd32vf103_timer.c **** }
 978              		.loc 1 568 1
 979 000a 8280     		ret
 980              		.cfi_endproc
 981              	.LFE30:
 983              		.section	.text.timer_automatic_output_enable,"ax",@progbits
 984              		.align	1
 985              		.globl	timer_automatic_output_enable
 987              	timer_automatic_output_enable:
 988              	.LFB31:
 569:../Firmware/GD32VF103_standard_peripheral/Source/gd32vf103_timer.c **** 
 570:../Firmware/GD32VF103_standard_peripheral/Source/gd32vf103_timer.c **** /*!
 571:../Firmware/GD32VF103_standard_peripheral/Source/gd32vf103_timer.c ****     \brief      enable TIMER output automatic function
GAS LISTING /tmp/ccVZQUdL.s 			page 29


 572:../Firmware/GD32VF103_standard_peripheral/Source/gd32vf103_timer.c ****     \param[in]  timer_periph: TIMERx(x=0)
 573:../Firmware/GD32VF103_standard_peripheral/Source/gd32vf103_timer.c ****     \param[out] none
 574:../Firmware/GD32VF103_standard_peripheral/Source/gd32vf103_timer.c ****     \retval     none
 575:../Firmware/GD32VF103_standard_peripheral/Source/gd32vf103_timer.c **** */
 576:../Firmware/GD32VF103_standard_peripheral/Source/gd32vf103_timer.c **** void timer_automatic_output_enable(uint32_t timer_periph)
 577:../Firmware/GD32VF103_standard_peripheral/Source/gd32vf103_timer.c **** {
 989              		.loc 1 577 1 is_stmt 1
 990              		.cfi_startproc
 991              	.LVL58:
 578:../Firmware/GD32VF103_standard_peripheral/Source/gd32vf103_timer.c ****     TIMER_CCHP(timer_periph) |= (uint32_t)TIMER_CCHP_OAEN;
 992              		.loc 1 578 5
 993              		.loc 1 578 30 is_stmt 0
 994 0000 7C41     		lw	a5,68(a0)
 995 0002 1167     		li	a4,16384
 996 0004 D98F     		or	a5,a5,a4
 997 0006 7CC1     		sw	a5,68(a0)
 579:../Firmware/GD32VF103_standard_peripheral/Source/gd32vf103_timer.c **** }
 998              		.loc 1 579 1
 999 0008 8280     		ret
 1000              		.cfi_endproc
 1001              	.LFE31:
 1003              		.section	.text.timer_automatic_output_disable,"ax",@progbits
 1004              		.align	1
 1005              		.globl	timer_automatic_output_disable
 1007              	timer_automatic_output_disable:
 1008              	.LFB32:
 580:../Firmware/GD32VF103_standard_peripheral/Source/gd32vf103_timer.c **** 
 581:../Firmware/GD32VF103_standard_peripheral/Source/gd32vf103_timer.c **** /*!
 582:../Firmware/GD32VF103_standard_peripheral/Source/gd32vf103_timer.c ****     \brief      disable TIMER output automatic function
 583:../Firmware/GD32VF103_standard_peripheral/Source/gd32vf103_timer.c ****     \param[in]  timer_periph: TIMERx(x=0)
 584:../Firmware/GD32VF103_standard_peripheral/Source/gd32vf103_timer.c ****     \param[out] none
 585:../Firmware/GD32VF103_standard_peripheral/Source/gd32vf103_timer.c ****     \retval     none
 586:../Firmware/GD32VF103_standard_peripheral/Source/gd32vf103_timer.c **** */
 587:../Firmware/GD32VF103_standard_peripheral/Source/gd32vf103_timer.c **** void timer_automatic_output_disable(uint32_t timer_periph)
 588:../Firmware/GD32VF103_standard_peripheral/Source/gd32vf103_timer.c **** {
 1009              		.loc 1 588 1 is_stmt 1
 1010              		.cfi_startproc
 1011              	.LVL59:
 589:../Firmware/GD32VF103_standard_peripheral/Source/gd32vf103_timer.c ****     TIMER_CCHP(timer_periph) &= ~(uint32_t)TIMER_CCHP_OAEN;
 1012              		.loc 1 589 5
 1013              		.loc 1 589 30 is_stmt 0
 1014 0000 7C41     		lw	a5,68(a0)
 1015 0002 7177     		li	a4,-16384
 1016 0004 7D17     		addi	a4,a4,-1
 1017 0006 F98F     		and	a5,a5,a4
 1018 0008 7CC1     		sw	a5,68(a0)
 590:../Firmware/GD32VF103_standard_peripheral/Source/gd32vf103_timer.c **** }
 1019              		.loc 1 590 1
 1020 000a 8280     		ret
 1021              		.cfi_endproc
 1022              	.LFE32:
 1024              		.section	.text.timer_primary_output_config,"ax",@progbits
 1025              		.align	1
 1026              		.globl	timer_primary_output_config
 1028              	timer_primary_output_config:
 1029              	.LFB33:
 591:../Firmware/GD32VF103_standard_peripheral/Source/gd32vf103_timer.c **** 
GAS LISTING /tmp/ccVZQUdL.s 			page 30


 592:../Firmware/GD32VF103_standard_peripheral/Source/gd32vf103_timer.c **** /*!
 593:../Firmware/GD32VF103_standard_peripheral/Source/gd32vf103_timer.c ****     \brief      enable or disable TIMER primary output function
 594:../Firmware/GD32VF103_standard_peripheral/Source/gd32vf103_timer.c ****     \param[in]  timer_periph: TIMERx(x=0)
 595:../Firmware/GD32VF103_standard_peripheral/Source/gd32vf103_timer.c ****     \param[in]  newvalue: ENABLE or DISABLE
 596:../Firmware/GD32VF103_standard_peripheral/Source/gd32vf103_timer.c ****     \param[out] none
 597:../Firmware/GD32VF103_standard_peripheral/Source/gd32vf103_timer.c ****     \retval     none
 598:../Firmware/GD32VF103_standard_peripheral/Source/gd32vf103_timer.c **** */
 599:../Firmware/GD32VF103_standard_peripheral/Source/gd32vf103_timer.c **** void timer_primary_output_config(uint32_t timer_periph, ControlStatus newvalue)
 600:../Firmware/GD32VF103_standard_peripheral/Source/gd32vf103_timer.c **** {
 1030              		.loc 1 600 1 is_stmt 1
 1031              		.cfi_startproc
 1032              	.LVL60:
 601:../Firmware/GD32VF103_standard_peripheral/Source/gd32vf103_timer.c ****     if(ENABLE == newvalue){
 1033              		.loc 1 601 5
 1034              		.loc 1 601 7 is_stmt 0
 1035 0000 8547     		li	a5,1
 1036 0002 6388F500 		beq	a1,a5,.L66
 602:../Firmware/GD32VF103_standard_peripheral/Source/gd32vf103_timer.c ****         TIMER_CCHP(timer_periph) |= (uint32_t)TIMER_CCHP_POEN;
 603:../Firmware/GD32VF103_standard_peripheral/Source/gd32vf103_timer.c ****     }else{
 604:../Firmware/GD32VF103_standard_peripheral/Source/gd32vf103_timer.c ****         TIMER_CCHP(timer_periph) &= (~(uint32_t)TIMER_CCHP_POEN);
 1037              		.loc 1 604 9 is_stmt 1
 1038              		.loc 1 604 34 is_stmt 0
 1039 0006 7C41     		lw	a5,68(a0)
 1040 0008 6177     		li	a4,-32768
 1041 000a 7D17     		addi	a4,a4,-1
 1042 000c F98F     		and	a5,a5,a4
 1043 000e 7CC1     		sw	a5,68(a0)
 605:../Firmware/GD32VF103_standard_peripheral/Source/gd32vf103_timer.c ****     }
 606:../Firmware/GD32VF103_standard_peripheral/Source/gd32vf103_timer.c **** }
 1044              		.loc 1 606 1
 1045 0010 8280     		ret
 1046              	.L66:
 602:../Firmware/GD32VF103_standard_peripheral/Source/gd32vf103_timer.c ****         TIMER_CCHP(timer_periph) |= (uint32_t)TIMER_CCHP_POEN;
 1047              		.loc 1 602 9 is_stmt 1
 602:../Firmware/GD32VF103_standard_peripheral/Source/gd32vf103_timer.c ****         TIMER_CCHP(timer_periph) |= (uint32_t)TIMER_CCHP_POEN;
 1048              		.loc 1 602 34 is_stmt 0
 1049 0012 7C41     		lw	a5,68(a0)
 1050 0014 2167     		li	a4,32768
 1051 0016 D98F     		or	a5,a5,a4
 1052 0018 7CC1     		sw	a5,68(a0)
 1053 001a 8280     		ret
 1054              		.cfi_endproc
 1055              	.LFE33:
 1057              		.section	.text.timer_channel_control_shadow_config,"ax",@progbits
 1058              		.align	1
 1059              		.globl	timer_channel_control_shadow_config
 1061              	timer_channel_control_shadow_config:
 1062              	.LFB34:
 607:../Firmware/GD32VF103_standard_peripheral/Source/gd32vf103_timer.c **** 
 608:../Firmware/GD32VF103_standard_peripheral/Source/gd32vf103_timer.c **** /*!
 609:../Firmware/GD32VF103_standard_peripheral/Source/gd32vf103_timer.c ****     \brief      enable or disable channel capture/compare control shadow register 
 610:../Firmware/GD32VF103_standard_peripheral/Source/gd32vf103_timer.c ****     \param[in]  timer_periph: TIMERx(x=0)
 611:../Firmware/GD32VF103_standard_peripheral/Source/gd32vf103_timer.c ****     \param[in]  newvalue: ENABLE or DISABLE 
 612:../Firmware/GD32VF103_standard_peripheral/Source/gd32vf103_timer.c ****     \param[out] none
 613:../Firmware/GD32VF103_standard_peripheral/Source/gd32vf103_timer.c ****     \retval     none
 614:../Firmware/GD32VF103_standard_peripheral/Source/gd32vf103_timer.c **** */
 615:../Firmware/GD32VF103_standard_peripheral/Source/gd32vf103_timer.c **** void timer_channel_control_shadow_config(uint32_t timer_periph, ControlStatus newvalue)
GAS LISTING /tmp/ccVZQUdL.s 			page 31


 616:../Firmware/GD32VF103_standard_peripheral/Source/gd32vf103_timer.c **** {
 1063              		.loc 1 616 1 is_stmt 1
 1064              		.cfi_startproc
 1065              	.LVL61:
 617:../Firmware/GD32VF103_standard_peripheral/Source/gd32vf103_timer.c ****      if(ENABLE == newvalue){
 1066              		.loc 1 617 6
 1067              		.loc 1 617 8 is_stmt 0
 1068 0000 8547     		li	a5,1
 1069 0002 6386F500 		beq	a1,a5,.L70
 618:../Firmware/GD32VF103_standard_peripheral/Source/gd32vf103_timer.c ****         TIMER_CTL1(timer_periph) |= (uint32_t)TIMER_CTL1_CCSE;
 619:../Firmware/GD32VF103_standard_peripheral/Source/gd32vf103_timer.c ****     }else{
 620:../Firmware/GD32VF103_standard_peripheral/Source/gd32vf103_timer.c ****         TIMER_CTL1(timer_periph) &= (~(uint32_t)TIMER_CTL1_CCSE);
 1070              		.loc 1 620 9 is_stmt 1
 1071              		.loc 1 620 34 is_stmt 0
 1072 0006 5C41     		lw	a5,4(a0)
 1073 0008 F99B     		andi	a5,a5,-2
 1074 000a 5CC1     		sw	a5,4(a0)
 621:../Firmware/GD32VF103_standard_peripheral/Source/gd32vf103_timer.c ****     }
 622:../Firmware/GD32VF103_standard_peripheral/Source/gd32vf103_timer.c **** }
 1075              		.loc 1 622 1
 1076 000c 8280     		ret
 1077              	.L70:
 618:../Firmware/GD32VF103_standard_peripheral/Source/gd32vf103_timer.c ****         TIMER_CTL1(timer_periph) |= (uint32_t)TIMER_CTL1_CCSE;
 1078              		.loc 1 618 9 is_stmt 1
 618:../Firmware/GD32VF103_standard_peripheral/Source/gd32vf103_timer.c ****         TIMER_CTL1(timer_periph) |= (uint32_t)TIMER_CTL1_CCSE;
 1079              		.loc 1 618 34 is_stmt 0
 1080 000e 5C41     		lw	a5,4(a0)
 1081 0010 93E71700 		ori	a5,a5,1
 1082 0014 5CC1     		sw	a5,4(a0)
 1083 0016 8280     		ret
 1084              		.cfi_endproc
 1085              	.LFE34:
 1087              		.section	.text.timer_channel_control_shadow_update_config,"ax",@progbits
 1088              		.align	1
 1089              		.globl	timer_channel_control_shadow_update_config
 1091              	timer_channel_control_shadow_update_config:
 1092              	.LFB35:
 623:../Firmware/GD32VF103_standard_peripheral/Source/gd32vf103_timer.c **** 
 624:../Firmware/GD32VF103_standard_peripheral/Source/gd32vf103_timer.c **** /*!
 625:../Firmware/GD32VF103_standard_peripheral/Source/gd32vf103_timer.c ****     \brief      configure TIMER channel control shadow register update control
 626:../Firmware/GD32VF103_standard_peripheral/Source/gd32vf103_timer.c ****     \param[in]  timer_periph: TIMERx(x=0)
 627:../Firmware/GD32VF103_standard_peripheral/Source/gd32vf103_timer.c ****     \param[in]  ccuctl: channel control shadow register update control
 628:../Firmware/GD32VF103_standard_peripheral/Source/gd32vf103_timer.c ****                 only one parameter can be selected which is shown as below:
 629:../Firmware/GD32VF103_standard_peripheral/Source/gd32vf103_timer.c ****       \arg        TIMER_UPDATECTL_CCU: the shadow registers update by when CMTG bit is set
 630:../Firmware/GD32VF103_standard_peripheral/Source/gd32vf103_timer.c ****       \arg        TIMER_UPDATECTL_CCUTRI: the shadow registers update by when CMTG bit is set or an
 631:../Firmware/GD32VF103_standard_peripheral/Source/gd32vf103_timer.c ****     \param[out] none
 632:../Firmware/GD32VF103_standard_peripheral/Source/gd32vf103_timer.c ****     \retval     none
 633:../Firmware/GD32VF103_standard_peripheral/Source/gd32vf103_timer.c **** */              
 634:../Firmware/GD32VF103_standard_peripheral/Source/gd32vf103_timer.c **** void timer_channel_control_shadow_update_config(uint32_t timer_periph, uint32_t ccuctl)
 635:../Firmware/GD32VF103_standard_peripheral/Source/gd32vf103_timer.c **** {
 1093              		.loc 1 635 1 is_stmt 1
 1094              		.cfi_startproc
 1095              	.LVL62:
 636:../Firmware/GD32VF103_standard_peripheral/Source/gd32vf103_timer.c ****     if(TIMER_UPDATECTL_CCU == ccuctl){
 1096              		.loc 1 636 5
 1097              		.loc 1 636 7 is_stmt 0
 1098 0000 89E5     		bne	a1,zero,.L72
GAS LISTING /tmp/ccVZQUdL.s 			page 32


 637:../Firmware/GD32VF103_standard_peripheral/Source/gd32vf103_timer.c ****         TIMER_CTL1(timer_periph) &= (~(uint32_t)TIMER_CTL1_CCUC);
 1099              		.loc 1 637 9 is_stmt 1
 1100              		.loc 1 637 34 is_stmt 0
 1101 0002 5C41     		lw	a5,4(a0)
 1102 0004 ED9B     		andi	a5,a5,-5
 1103 0006 5CC1     		sw	a5,4(a0)
 1104 0008 8280     		ret
 1105              	.L72:
 638:../Firmware/GD32VF103_standard_peripheral/Source/gd32vf103_timer.c ****     }else if(TIMER_UPDATECTL_CCUTRI == ccuctl){
 1106              		.loc 1 638 11 is_stmt 1
 1107              		.loc 1 638 13 is_stmt 0
 1108 000a 9147     		li	a5,4
 1109 000c 6383F500 		beq	a1,a5,.L74
 639:../Firmware/GD32VF103_standard_peripheral/Source/gd32vf103_timer.c ****         TIMER_CTL1(timer_periph) |= (uint32_t)TIMER_CTL1_CCUC;
 640:../Firmware/GD32VF103_standard_peripheral/Source/gd32vf103_timer.c ****     }else{
 641:../Firmware/GD32VF103_standard_peripheral/Source/gd32vf103_timer.c ****         /* illegal parameters */        
 642:../Firmware/GD32VF103_standard_peripheral/Source/gd32vf103_timer.c ****     }
 643:../Firmware/GD32VF103_standard_peripheral/Source/gd32vf103_timer.c **** }
 1110              		.loc 1 643 1
 1111 0010 8280     		ret
 1112              	.L74:
 639:../Firmware/GD32VF103_standard_peripheral/Source/gd32vf103_timer.c ****         TIMER_CTL1(timer_periph) |= (uint32_t)TIMER_CTL1_CCUC;
 1113              		.loc 1 639 9 is_stmt 1
 639:../Firmware/GD32VF103_standard_peripheral/Source/gd32vf103_timer.c ****         TIMER_CTL1(timer_periph) |= (uint32_t)TIMER_CTL1_CCUC;
 1114              		.loc 1 639 34 is_stmt 0
 1115 0012 5C41     		lw	a5,4(a0)
 1116 0014 93E74700 		ori	a5,a5,4
 1117 0018 5CC1     		sw	a5,4(a0)
 642:../Firmware/GD32VF103_standard_peripheral/Source/gd32vf103_timer.c **** }
 1118              		.loc 1 642 5 is_stmt 1
 1119              		.loc 1 643 1 is_stmt 0
 1120 001a 8280     		ret
 1121              		.cfi_endproc
 1122              	.LFE35:
 1124              		.section	.text.timer_channel_output_struct_para_init,"ax",@progbits
 1125              		.align	1
 1126              		.globl	timer_channel_output_struct_para_init
 1128              	timer_channel_output_struct_para_init:
 1129              	.LFB36:
 644:../Firmware/GD32VF103_standard_peripheral/Source/gd32vf103_timer.c **** 
 645:../Firmware/GD32VF103_standard_peripheral/Source/gd32vf103_timer.c **** /*!
 646:../Firmware/GD32VF103_standard_peripheral/Source/gd32vf103_timer.c ****     \brief      initialize TIMER channel output parameter struct with a default value
 647:../Firmware/GD32VF103_standard_peripheral/Source/gd32vf103_timer.c ****     \param[in]  ocpara: TIMER channel n output parameter struct
 648:../Firmware/GD32VF103_standard_peripheral/Source/gd32vf103_timer.c ****     \param[out] none
 649:../Firmware/GD32VF103_standard_peripheral/Source/gd32vf103_timer.c ****     \retval     none
 650:../Firmware/GD32VF103_standard_peripheral/Source/gd32vf103_timer.c **** */
 651:../Firmware/GD32VF103_standard_peripheral/Source/gd32vf103_timer.c **** void timer_channel_output_struct_para_init(timer_oc_parameter_struct* ocpara)
 652:../Firmware/GD32VF103_standard_peripheral/Source/gd32vf103_timer.c **** {
 1130              		.loc 1 652 1 is_stmt 1
 1131              		.cfi_startproc
 1132              	.LVL63:
 653:../Firmware/GD32VF103_standard_peripheral/Source/gd32vf103_timer.c ****     /* initialize the channel output parameter struct member with the default value */
 654:../Firmware/GD32VF103_standard_peripheral/Source/gd32vf103_timer.c ****     ocpara->outputstate  = TIMER_CCX_DISABLE;
 1133              		.loc 1 654 5
 1134              		.loc 1 654 26 is_stmt 0
 1135 0000 23100500 		sh	zero,0(a0)
 655:../Firmware/GD32VF103_standard_peripheral/Source/gd32vf103_timer.c ****     ocpara->outputnstate = TIMER_CCXN_DISABLE;
GAS LISTING /tmp/ccVZQUdL.s 			page 33


 1136              		.loc 1 655 5 is_stmt 1
 1137              		.loc 1 655 26 is_stmt 0
 1138 0004 23110500 		sh	zero,2(a0)
 656:../Firmware/GD32VF103_standard_peripheral/Source/gd32vf103_timer.c ****     ocpara->ocpolarity   = TIMER_OC_POLARITY_HIGH;
 1139              		.loc 1 656 5 is_stmt 1
 1140              		.loc 1 656 26 is_stmt 0
 1141 0008 23120500 		sh	zero,4(a0)
 657:../Firmware/GD32VF103_standard_peripheral/Source/gd32vf103_timer.c ****     ocpara->ocnpolarity  = TIMER_OCN_POLARITY_HIGH;
 1142              		.loc 1 657 5 is_stmt 1
 1143              		.loc 1 657 26 is_stmt 0
 1144 000c 23130500 		sh	zero,6(a0)
 658:../Firmware/GD32VF103_standard_peripheral/Source/gd32vf103_timer.c ****     ocpara->ocidlestate  = TIMER_OC_IDLE_STATE_LOW;
 1145              		.loc 1 658 5 is_stmt 1
 1146              		.loc 1 658 26 is_stmt 0
 1147 0010 23140500 		sh	zero,8(a0)
 659:../Firmware/GD32VF103_standard_peripheral/Source/gd32vf103_timer.c ****     ocpara->ocnidlestate = TIMER_OCN_IDLE_STATE_LOW;
 1148              		.loc 1 659 5 is_stmt 1
 1149              		.loc 1 659 26 is_stmt 0
 1150 0014 23150500 		sh	zero,10(a0)
 660:../Firmware/GD32VF103_standard_peripheral/Source/gd32vf103_timer.c **** }
 1151              		.loc 1 660 1
 1152 0018 8280     		ret
 1153              		.cfi_endproc
 1154              	.LFE36:
 1156              		.section	.text.timer_channel_output_config,"ax",@progbits
 1157              		.align	1
 1158              		.globl	timer_channel_output_config
 1160              	timer_channel_output_config:
 1161              	.LFB37:
 661:../Firmware/GD32VF103_standard_peripheral/Source/gd32vf103_timer.c **** 
 662:../Firmware/GD32VF103_standard_peripheral/Source/gd32vf103_timer.c **** /*!
 663:../Firmware/GD32VF103_standard_peripheral/Source/gd32vf103_timer.c ****     \brief      configure TIMER channel output function
 664:../Firmware/GD32VF103_standard_peripheral/Source/gd32vf103_timer.c ****     \param[in]  timer_periph: TIMERx(x=0..4)
 665:../Firmware/GD32VF103_standard_peripheral/Source/gd32vf103_timer.c ****     \param[in]  channel:
 666:../Firmware/GD32VF103_standard_peripheral/Source/gd32vf103_timer.c ****                 only one parameter can be selected which is shown as below:
 667:../Firmware/GD32VF103_standard_peripheral/Source/gd32vf103_timer.c ****       \arg        TIMER_CH_0: TIMER channel 0(TIMERx(x=0..4))
 668:../Firmware/GD32VF103_standard_peripheral/Source/gd32vf103_timer.c ****       \arg        TIMER_CH_1: TIMER channel 1(TIMERx(x=0..4))
 669:../Firmware/GD32VF103_standard_peripheral/Source/gd32vf103_timer.c ****       \arg        TIMER_CH_2: TIMER channel 2(TIMERx(x=0..4))
 670:../Firmware/GD32VF103_standard_peripheral/Source/gd32vf103_timer.c ****       \arg        TIMER_CH_3: TIMER channel 3(TIMERx(x=0..4))
 671:../Firmware/GD32VF103_standard_peripheral/Source/gd32vf103_timer.c ****     \param[in]  ocpara: TIMER channeln output parameter struct
 672:../Firmware/GD32VF103_standard_peripheral/Source/gd32vf103_timer.c ****                   outputstate: TIMER_CCX_ENABLE, TIMER_CCX_DISABLE
 673:../Firmware/GD32VF103_standard_peripheral/Source/gd32vf103_timer.c ****                   outputnstate: TIMER_CCXN_ENABLE, TIMER_CCXN_DISABLE
 674:../Firmware/GD32VF103_standard_peripheral/Source/gd32vf103_timer.c ****                   ocpolarity: TIMER_OC_POLARITY_HIGH, TIMER_OC_POLARITY_LOW
 675:../Firmware/GD32VF103_standard_peripheral/Source/gd32vf103_timer.c ****                   ocnpolarity: TIMER_OCN_POLARITY_HIGH, TIMER_OCN_POLARITY_LOW
 676:../Firmware/GD32VF103_standard_peripheral/Source/gd32vf103_timer.c ****                   ocidlestate: TIMER_OC_IDLE_STATE_LOW, TIMER_OC_IDLE_STATE_HIGH
 677:../Firmware/GD32VF103_standard_peripheral/Source/gd32vf103_timer.c ****                   ocnidlestate: TIMER_OCN_IDLE_STATE_LOW, TIMER_OCN_IDLE_STATE_HIGH
 678:../Firmware/GD32VF103_standard_peripheral/Source/gd32vf103_timer.c ****     \param[out] none
 679:../Firmware/GD32VF103_standard_peripheral/Source/gd32vf103_timer.c ****     \retval     none
 680:../Firmware/GD32VF103_standard_peripheral/Source/gd32vf103_timer.c **** */
 681:../Firmware/GD32VF103_standard_peripheral/Source/gd32vf103_timer.c **** void timer_channel_output_config(uint32_t timer_periph, uint16_t channel, timer_oc_parameter_struct
 682:../Firmware/GD32VF103_standard_peripheral/Source/gd32vf103_timer.c **** {
 1162              		.loc 1 682 1 is_stmt 1
 1163              		.cfi_startproc
 1164              	.LVL64:
 683:../Firmware/GD32VF103_standard_peripheral/Source/gd32vf103_timer.c ****     switch(channel){
 1165              		.loc 1 683 5
 1166 0000 8947     		li	a5,2
GAS LISTING /tmp/ccVZQUdL.s 			page 34


 1167 0002 6384F50C 		beq	a1,a5,.L77
 1168 0006 63E1B704 		bgtu	a1,a5,.L78
 1169 000a C1C5     		beq	a1,zero,.L88
 684:../Firmware/GD32VF103_standard_peripheral/Source/gd32vf103_timer.c ****     /* configure TIMER_CH_0 */
 685:../Firmware/GD32VF103_standard_peripheral/Source/gd32vf103_timer.c ****     case TIMER_CH_0:
 686:../Firmware/GD32VF103_standard_peripheral/Source/gd32vf103_timer.c ****         /* reset the CH0EN bit */
 687:../Firmware/GD32VF103_standard_peripheral/Source/gd32vf103_timer.c ****         TIMER_CHCTL2(timer_periph) &= (~(uint32_t)TIMER_CHCTL2_CH0EN);
 688:../Firmware/GD32VF103_standard_peripheral/Source/gd32vf103_timer.c ****         /* set the CH0EN bit */
 689:../Firmware/GD32VF103_standard_peripheral/Source/gd32vf103_timer.c ****         TIMER_CHCTL2(timer_periph) |= (uint32_t)ocpara->outputstate;
 690:../Firmware/GD32VF103_standard_peripheral/Source/gd32vf103_timer.c ****         /* reset the CH0P bit */
 691:../Firmware/GD32VF103_standard_peripheral/Source/gd32vf103_timer.c ****         TIMER_CHCTL2(timer_periph) &= (~(uint32_t)TIMER_CHCTL2_CH0P);
 692:../Firmware/GD32VF103_standard_peripheral/Source/gd32vf103_timer.c ****         /* set the CH0P bit */
 693:../Firmware/GD32VF103_standard_peripheral/Source/gd32vf103_timer.c ****         TIMER_CHCTL2(timer_periph) |= (uint32_t)ocpara->ocpolarity;
 694:../Firmware/GD32VF103_standard_peripheral/Source/gd32vf103_timer.c **** 
 695:../Firmware/GD32VF103_standard_peripheral/Source/gd32vf103_timer.c ****         if (TIMER0 == timer_periph) {
 696:../Firmware/GD32VF103_standard_peripheral/Source/gd32vf103_timer.c ****             /* reset the CH0NEN bit */
 697:../Firmware/GD32VF103_standard_peripheral/Source/gd32vf103_timer.c ****             TIMER_CHCTL2(timer_periph) &= (~(uint32_t)TIMER_CHCTL2_CH0NEN);
 698:../Firmware/GD32VF103_standard_peripheral/Source/gd32vf103_timer.c ****             /* set the CH0NEN bit */
 699:../Firmware/GD32VF103_standard_peripheral/Source/gd32vf103_timer.c ****             TIMER_CHCTL2(timer_periph) |= (uint32_t)ocpara->outputnstate;
 700:../Firmware/GD32VF103_standard_peripheral/Source/gd32vf103_timer.c ****             /* reset the CH0NP bit */
 701:../Firmware/GD32VF103_standard_peripheral/Source/gd32vf103_timer.c ****             TIMER_CHCTL2(timer_periph) &= (~(uint32_t)TIMER_CHCTL2_CH0NP);
 702:../Firmware/GD32VF103_standard_peripheral/Source/gd32vf103_timer.c ****             /* set the CH0NP bit */
 703:../Firmware/GD32VF103_standard_peripheral/Source/gd32vf103_timer.c ****             TIMER_CHCTL2(timer_periph) |= (uint32_t)ocpara->ocnpolarity;
 704:../Firmware/GD32VF103_standard_peripheral/Source/gd32vf103_timer.c ****             /* reset the ISO0 bit */
 705:../Firmware/GD32VF103_standard_peripheral/Source/gd32vf103_timer.c ****             TIMER_CTL1(timer_periph) &= (~(uint32_t)TIMER_CTL1_ISO0);
 706:../Firmware/GD32VF103_standard_peripheral/Source/gd32vf103_timer.c ****             /* set the ISO0 bit */
 707:../Firmware/GD32VF103_standard_peripheral/Source/gd32vf103_timer.c ****             TIMER_CTL1(timer_periph) |= (uint32_t)ocpara->ocidlestate;
 708:../Firmware/GD32VF103_standard_peripheral/Source/gd32vf103_timer.c ****             /* reset the ISO0N bit */
 709:../Firmware/GD32VF103_standard_peripheral/Source/gd32vf103_timer.c ****             TIMER_CTL1(timer_periph) &= (~(uint32_t)TIMER_CTL1_ISO0N);
 710:../Firmware/GD32VF103_standard_peripheral/Source/gd32vf103_timer.c ****             /* set the ISO0N bit */
 711:../Firmware/GD32VF103_standard_peripheral/Source/gd32vf103_timer.c ****             TIMER_CTL1(timer_periph) |= (uint32_t)ocpara->ocnidlestate;
 712:../Firmware/GD32VF103_standard_peripheral/Source/gd32vf103_timer.c ****         }
 713:../Firmware/GD32VF103_standard_peripheral/Source/gd32vf103_timer.c ****         TIMER_CHCTL0(timer_periph) &= ~(uint32_t)TIMER_CHCTL0_CH0MS;
 714:../Firmware/GD32VF103_standard_peripheral/Source/gd32vf103_timer.c ****         break;
 715:../Firmware/GD32VF103_standard_peripheral/Source/gd32vf103_timer.c ****     /* configure TIMER_CH_1 */
 716:../Firmware/GD32VF103_standard_peripheral/Source/gd32vf103_timer.c ****     case TIMER_CH_1:
 717:../Firmware/GD32VF103_standard_peripheral/Source/gd32vf103_timer.c ****         /* reset the CH1EN bit */
 718:../Firmware/GD32VF103_standard_peripheral/Source/gd32vf103_timer.c ****         TIMER_CHCTL2(timer_periph) &= (~(uint32_t)TIMER_CHCTL2_CH1EN);
 1170              		.loc 1 718 9
 1171              		.loc 1 718 36 is_stmt 0
 1172 000c 1451     		lw	a3,32(a0)
 719:../Firmware/GD32VF103_standard_peripheral/Source/gd32vf103_timer.c ****         /* set the CH1EN bit */
 720:../Firmware/GD32VF103_standard_peripheral/Source/gd32vf103_timer.c ****         TIMER_CHCTL2(timer_periph) |= (uint32_t)((uint32_t)(ocpara->outputstate) << 4U);
 1173              		.loc 1 720 50
 1174 000e 03570600 		lhu	a4,0(a2)
 721:../Firmware/GD32VF103_standard_peripheral/Source/gd32vf103_timer.c ****         /* reset the CH1P bit */
 722:../Firmware/GD32VF103_standard_peripheral/Source/gd32vf103_timer.c ****         TIMER_CHCTL2(timer_periph) &= (~(uint32_t)TIMER_CHCTL2_CH1P);
 723:../Firmware/GD32VF103_standard_peripheral/Source/gd32vf103_timer.c ****         /* set the CH1P bit */
 724:../Firmware/GD32VF103_standard_peripheral/Source/gd32vf103_timer.c ****         TIMER_CHCTL2(timer_periph) |= (uint32_t)((uint32_t)(ocpara->ocpolarity) << 4U);
 1175              		.loc 1 724 50
 1176 0012 83574600 		lhu	a5,4(a2)
 718:../Firmware/GD32VF103_standard_peripheral/Source/gd32vf103_timer.c ****         /* set the CH1EN bit */
 1177              		.loc 1 718 36
 1178 0016 BD9A     		andi	a3,a3,-17
 1179 0018 14D1     		sw	a3,32(a0)
 720:../Firmware/GD32VF103_standard_peripheral/Source/gd32vf103_timer.c ****         /* reset the CH1P bit */
 1180              		.loc 1 720 9 is_stmt 1
GAS LISTING /tmp/ccVZQUdL.s 			page 35


 720:../Firmware/GD32VF103_standard_peripheral/Source/gd32vf103_timer.c ****         /* reset the CH1P bit */
 1181              		.loc 1 720 36 is_stmt 0
 1182 001a 1451     		lw	a3,32(a0)
 720:../Firmware/GD32VF103_standard_peripheral/Source/gd32vf103_timer.c ****         /* reset the CH1P bit */
 1183              		.loc 1 720 39
 1184 001c 1207     		slli	a4,a4,4
 1185              		.loc 1 724 39
 1186 001e 9207     		slli	a5,a5,4
 720:../Firmware/GD32VF103_standard_peripheral/Source/gd32vf103_timer.c ****         /* reset the CH1P bit */
 1187              		.loc 1 720 36
 1188 0020 558F     		or	a4,a4,a3
 1189 0022 18D1     		sw	a4,32(a0)
 722:../Firmware/GD32VF103_standard_peripheral/Source/gd32vf103_timer.c ****         /* set the CH1P bit */
 1190              		.loc 1 722 9 is_stmt 1
 722:../Firmware/GD32VF103_standard_peripheral/Source/gd32vf103_timer.c ****         /* set the CH1P bit */
 1191              		.loc 1 722 36 is_stmt 0
 1192 0024 1451     		lw	a3,32(a0)
 725:../Firmware/GD32VF103_standard_peripheral/Source/gd32vf103_timer.c **** 
 726:../Firmware/GD32VF103_standard_peripheral/Source/gd32vf103_timer.c ****         if (TIMER0 == timer_periph) {
 1193              		.loc 1 726 12
 1194 0026 37370140 		li	a4,1073819648
 1195 002a 930507C0 		addi	a1,a4,-1024
 1196              	.LVL65:
 722:../Firmware/GD32VF103_standard_peripheral/Source/gd32vf103_timer.c ****         /* set the CH1P bit */
 1197              		.loc 1 722 36
 1198 002e 93F6F6FD 		andi	a3,a3,-33
 1199 0032 14D1     		sw	a3,32(a0)
 724:../Firmware/GD32VF103_standard_peripheral/Source/gd32vf103_timer.c **** 
 1200              		.loc 1 724 9 is_stmt 1
 724:../Firmware/GD32VF103_standard_peripheral/Source/gd32vf103_timer.c **** 
 1201              		.loc 1 724 36 is_stmt 0
 1202 0034 1451     		lw	a3,32(a0)
 1203 0036 D58F     		or	a5,a5,a3
 1204 0038 1CD1     		sw	a5,32(a0)
 1205              		.loc 1 726 9 is_stmt 1
 1206              		.loc 1 726 12 is_stmt 0
 1207 003a 630CB51A 		beq	a0,a1,.L89
 1208              	.LVL66:
 1209              	.L84:
 727:../Firmware/GD32VF103_standard_peripheral/Source/gd32vf103_timer.c ****             /* reset the CH1NEN bit */
 728:../Firmware/GD32VF103_standard_peripheral/Source/gd32vf103_timer.c ****             TIMER_CHCTL2(timer_periph) &= (~(uint32_t)TIMER_CHCTL2_CH1NEN);
 729:../Firmware/GD32VF103_standard_peripheral/Source/gd32vf103_timer.c ****             /* set the CH1NEN bit */
 730:../Firmware/GD32VF103_standard_peripheral/Source/gd32vf103_timer.c ****             TIMER_CHCTL2(timer_periph) |= (uint32_t)((uint32_t)(ocpara->outputnstate) << 4U);
 731:../Firmware/GD32VF103_standard_peripheral/Source/gd32vf103_timer.c ****             /* reset the CH1NP bit */
 732:../Firmware/GD32VF103_standard_peripheral/Source/gd32vf103_timer.c ****             TIMER_CHCTL2(timer_periph) &= (~(uint32_t)TIMER_CHCTL2_CH1NP);
 733:../Firmware/GD32VF103_standard_peripheral/Source/gd32vf103_timer.c ****             /* set the CH1NP bit */
 734:../Firmware/GD32VF103_standard_peripheral/Source/gd32vf103_timer.c ****             TIMER_CHCTL2(timer_periph) |= (uint32_t)((uint32_t)(ocpara->ocnpolarity) << 4U);
 735:../Firmware/GD32VF103_standard_peripheral/Source/gd32vf103_timer.c ****             /* reset the ISO1 bit */
 736:../Firmware/GD32VF103_standard_peripheral/Source/gd32vf103_timer.c ****             TIMER_CTL1(timer_periph) &= (~(uint32_t)TIMER_CTL1_ISO1);
 737:../Firmware/GD32VF103_standard_peripheral/Source/gd32vf103_timer.c ****             /* set the ISO1 bit */
 738:../Firmware/GD32VF103_standard_peripheral/Source/gd32vf103_timer.c ****             TIMER_CTL1(timer_periph) |= (uint32_t)((uint32_t)(ocpara->ocidlestate) << 2U);
 739:../Firmware/GD32VF103_standard_peripheral/Source/gd32vf103_timer.c ****             /* reset the ISO1N bit */
 740:../Firmware/GD32VF103_standard_peripheral/Source/gd32vf103_timer.c ****             TIMER_CTL1(timer_periph) &= (~(uint32_t)TIMER_CTL1_ISO1N);
 741:../Firmware/GD32VF103_standard_peripheral/Source/gd32vf103_timer.c ****             /* set the ISO1N bit */
 742:../Firmware/GD32VF103_standard_peripheral/Source/gd32vf103_timer.c ****             TIMER_CTL1(timer_periph) |= (uint32_t)((uint32_t)(ocpara->ocnidlestate) << 2U);
 743:../Firmware/GD32VF103_standard_peripheral/Source/gd32vf103_timer.c ****         }
 744:../Firmware/GD32VF103_standard_peripheral/Source/gd32vf103_timer.c ****         TIMER_CHCTL0(timer_periph) &= ~(uint32_t)TIMER_CHCTL0_CH1MS;
GAS LISTING /tmp/ccVZQUdL.s 			page 36


 1210              		.loc 1 744 9 is_stmt 1
 1211              		.loc 1 744 36 is_stmt 0
 1212 003e 1C4D     		lw	a5,24(a0)
 1213 0040 93F7F7CF 		andi	a5,a5,-769
 1214 0044 1CCD     		sw	a5,24(a0)
 745:../Firmware/GD32VF103_standard_peripheral/Source/gd32vf103_timer.c ****         break;
 1215              		.loc 1 745 9 is_stmt 1
 1216 0046 8280     		ret
 1217              	.LVL67:
 1218              	.L78:
 683:../Firmware/GD32VF103_standard_peripheral/Source/gd32vf103_timer.c ****     /* configure TIMER_CH_0 */
 1219              		.loc 1 683 5 is_stmt 0
 1220 0048 8D47     		li	a5,3
 1221 004a 6393F504 		bne	a1,a5,.L90
 746:../Firmware/GD32VF103_standard_peripheral/Source/gd32vf103_timer.c ****     /* configure TIMER_CH_2 */
 747:../Firmware/GD32VF103_standard_peripheral/Source/gd32vf103_timer.c ****     case TIMER_CH_2:
 748:../Firmware/GD32VF103_standard_peripheral/Source/gd32vf103_timer.c ****         /* reset the CH2EN bit */
 749:../Firmware/GD32VF103_standard_peripheral/Source/gd32vf103_timer.c ****         TIMER_CHCTL2(timer_periph) &= (~(uint32_t)TIMER_CHCTL2_CH2EN);
 750:../Firmware/GD32VF103_standard_peripheral/Source/gd32vf103_timer.c ****         /* set the CH2EN bit */
 751:../Firmware/GD32VF103_standard_peripheral/Source/gd32vf103_timer.c ****         TIMER_CHCTL2(timer_periph) |= (uint32_t)((uint32_t)(ocpara->outputstate) << 8U);
 752:../Firmware/GD32VF103_standard_peripheral/Source/gd32vf103_timer.c ****         /* reset the CH2P bit */
 753:../Firmware/GD32VF103_standard_peripheral/Source/gd32vf103_timer.c ****         TIMER_CHCTL2(timer_periph) &= (~(uint32_t)TIMER_CHCTL2_CH2P);
 754:../Firmware/GD32VF103_standard_peripheral/Source/gd32vf103_timer.c ****         /* set the CH2P bit */
 755:../Firmware/GD32VF103_standard_peripheral/Source/gd32vf103_timer.c ****         TIMER_CHCTL2(timer_periph) |= (uint32_t)((uint32_t)(ocpara->ocpolarity) << 8U);
 756:../Firmware/GD32VF103_standard_peripheral/Source/gd32vf103_timer.c **** 
 757:../Firmware/GD32VF103_standard_peripheral/Source/gd32vf103_timer.c ****         if (TIMER0 == timer_periph) {
 758:../Firmware/GD32VF103_standard_peripheral/Source/gd32vf103_timer.c ****             /* reset the CH2NEN bit */
 759:../Firmware/GD32VF103_standard_peripheral/Source/gd32vf103_timer.c ****             TIMER_CHCTL2(timer_periph) &= (~(uint32_t)TIMER_CHCTL2_CH2NEN);
 760:../Firmware/GD32VF103_standard_peripheral/Source/gd32vf103_timer.c ****             /* set the CH2NEN bit */
 761:../Firmware/GD32VF103_standard_peripheral/Source/gd32vf103_timer.c ****             TIMER_CHCTL2(timer_periph) |= (uint32_t)((uint32_t)(ocpara->outputnstate) << 8U);
 762:../Firmware/GD32VF103_standard_peripheral/Source/gd32vf103_timer.c ****             /* reset the CH2NP bit */
 763:../Firmware/GD32VF103_standard_peripheral/Source/gd32vf103_timer.c ****             TIMER_CHCTL2(timer_periph) &= (~(uint32_t)TIMER_CHCTL2_CH2NP);
 764:../Firmware/GD32VF103_standard_peripheral/Source/gd32vf103_timer.c ****             /* set the CH2NP bit */
 765:../Firmware/GD32VF103_standard_peripheral/Source/gd32vf103_timer.c ****             TIMER_CHCTL2(timer_periph) |= (uint32_t)((uint32_t)(ocpara->ocnpolarity) << 8U);
 766:../Firmware/GD32VF103_standard_peripheral/Source/gd32vf103_timer.c ****             /* reset the ISO2 bit */
 767:../Firmware/GD32VF103_standard_peripheral/Source/gd32vf103_timer.c ****             TIMER_CTL1(timer_periph) &= (~(uint32_t)TIMER_CTL1_ISO2);
 768:../Firmware/GD32VF103_standard_peripheral/Source/gd32vf103_timer.c ****             /* set the ISO2 bit */
 769:../Firmware/GD32VF103_standard_peripheral/Source/gd32vf103_timer.c ****             TIMER_CTL1(timer_periph) |= (uint32_t)((uint32_t)(ocpara->ocidlestate) << 4U);
 770:../Firmware/GD32VF103_standard_peripheral/Source/gd32vf103_timer.c ****             /* reset the ISO2N bit */
 771:../Firmware/GD32VF103_standard_peripheral/Source/gd32vf103_timer.c ****             TIMER_CTL1(timer_periph) &= (~(uint32_t)TIMER_CTL1_ISO2N);
 772:../Firmware/GD32VF103_standard_peripheral/Source/gd32vf103_timer.c ****             /* set the ISO2N bit */
 773:../Firmware/GD32VF103_standard_peripheral/Source/gd32vf103_timer.c ****             TIMER_CTL1(timer_periph) |= (uint32_t)((uint32_t)(ocpara->ocnidlestate) << 4U);
 774:../Firmware/GD32VF103_standard_peripheral/Source/gd32vf103_timer.c ****         }
 775:../Firmware/GD32VF103_standard_peripheral/Source/gd32vf103_timer.c ****         TIMER_CHCTL1(timer_periph) &= ~(uint32_t)TIMER_CHCTL1_CH2MS;
 776:../Firmware/GD32VF103_standard_peripheral/Source/gd32vf103_timer.c ****         break;
 777:../Firmware/GD32VF103_standard_peripheral/Source/gd32vf103_timer.c ****     /* configure TIMER_CH_3 */
 778:../Firmware/GD32VF103_standard_peripheral/Source/gd32vf103_timer.c ****     case TIMER_CH_3:
 779:../Firmware/GD32VF103_standard_peripheral/Source/gd32vf103_timer.c ****         /* reset the CH3EN bit */
 780:../Firmware/GD32VF103_standard_peripheral/Source/gd32vf103_timer.c ****         TIMER_CHCTL2(timer_periph) &=(~(uint32_t)TIMER_CHCTL2_CH3EN);
 1222              		.loc 1 780 9 is_stmt 1
 1223              		.loc 1 780 36 is_stmt 0
 1224 004e 1C51     		lw	a5,32(a0)
 1225 0050 7D77     		li	a4,-4096
 1226 0052 7D17     		addi	a4,a4,-1
 1227 0054 F98F     		and	a5,a5,a4
 1228 0056 1CD1     		sw	a5,32(a0)
 781:../Firmware/GD32VF103_standard_peripheral/Source/gd32vf103_timer.c ****         /* set the CH3EN bit */
GAS LISTING /tmp/ccVZQUdL.s 			page 37


 782:../Firmware/GD32VF103_standard_peripheral/Source/gd32vf103_timer.c ****         TIMER_CHCTL2(timer_periph) |= (uint32_t)((uint32_t)(ocpara->outputstate) << 12U);
 1229              		.loc 1 782 9 is_stmt 1
 1230              		.loc 1 782 50 is_stmt 0
 1231 0058 83570600 		lhu	a5,0(a2)
 1232              		.loc 1 782 36
 1233 005c 1851     		lw	a4,32(a0)
 783:../Firmware/GD32VF103_standard_peripheral/Source/gd32vf103_timer.c ****         /* reset the CH3P bit */
 784:../Firmware/GD32VF103_standard_peripheral/Source/gd32vf103_timer.c ****         TIMER_CHCTL2(timer_periph) &= (~(uint32_t)TIMER_CHCTL2_CH3P);
 1234              		.loc 1 784 36
 1235 005e F976     		li	a3,-8192
 782:../Firmware/GD32VF103_standard_peripheral/Source/gd32vf103_timer.c ****         /* reset the CH3P bit */
 1236              		.loc 1 782 39
 1237 0060 B207     		slli	a5,a5,12
 782:../Firmware/GD32VF103_standard_peripheral/Source/gd32vf103_timer.c ****         /* reset the CH3P bit */
 1238              		.loc 1 782 36
 1239 0062 D98F     		or	a5,a5,a4
 1240 0064 1CD1     		sw	a5,32(a0)
 1241              		.loc 1 784 9 is_stmt 1
 1242              		.loc 1 784 36 is_stmt 0
 1243 0066 1851     		lw	a4,32(a0)
 1244 0068 FD16     		addi	a3,a3,-1
 785:../Firmware/GD32VF103_standard_peripheral/Source/gd32vf103_timer.c ****         /* set the CH3P bit */
 786:../Firmware/GD32VF103_standard_peripheral/Source/gd32vf103_timer.c ****         TIMER_CHCTL2(timer_periph) |= (uint32_t)((uint32_t)(ocpara->ocpolarity) << 12U);
 1245              		.loc 1 786 50
 1246 006a 83574600 		lhu	a5,4(a2)
 784:../Firmware/GD32VF103_standard_peripheral/Source/gd32vf103_timer.c ****         /* set the CH3P bit */
 1247              		.loc 1 784 36
 1248 006e 758F     		and	a4,a4,a3
 1249 0070 18D1     		sw	a4,32(a0)
 1250              		.loc 1 786 9 is_stmt 1
 1251              		.loc 1 786 36 is_stmt 0
 1252 0072 1451     		lw	a3,32(a0)
 1253              		.loc 1 786 39
 1254 0074 B207     		slli	a5,a5,12
 787:../Firmware/GD32VF103_standard_peripheral/Source/gd32vf103_timer.c **** 
 788:../Firmware/GD32VF103_standard_peripheral/Source/gd32vf103_timer.c ****         if (TIMER0 == timer_periph) {
 1255              		.loc 1 788 12
 1256 0076 37370140 		li	a4,1073819648
 786:../Firmware/GD32VF103_standard_peripheral/Source/gd32vf103_timer.c **** 
 1257              		.loc 1 786 36
 1258 007a D58F     		or	a5,a5,a3
 1259 007c 1CD1     		sw	a5,32(a0)
 1260              		.loc 1 788 9 is_stmt 1
 1261              		.loc 1 788 12 is_stmt 0
 1262 007e 930707C0 		addi	a5,a4,-1024
 1263 0082 6308F514 		beq	a0,a5,.L91
 1264              	.L86:
 789:../Firmware/GD32VF103_standard_peripheral/Source/gd32vf103_timer.c ****             /* reset the ISO3 bit */
 790:../Firmware/GD32VF103_standard_peripheral/Source/gd32vf103_timer.c ****             TIMER_CTL1(timer_periph) &= (~(uint32_t)TIMER_CTL1_ISO3);
 791:../Firmware/GD32VF103_standard_peripheral/Source/gd32vf103_timer.c ****             /* set the ISO3 bit */
 792:../Firmware/GD32VF103_standard_peripheral/Source/gd32vf103_timer.c ****             TIMER_CTL1(timer_periph) |= (uint32_t)((uint32_t)(ocpara->ocidlestate) << 6U);
 793:../Firmware/GD32VF103_standard_peripheral/Source/gd32vf103_timer.c ****         }
 794:../Firmware/GD32VF103_standard_peripheral/Source/gd32vf103_timer.c ****         TIMER_CHCTL1(timer_periph) &= ~(uint32_t)TIMER_CHCTL1_CH3MS;
 1265              		.loc 1 794 9 is_stmt 1
 1266              		.loc 1 794 36 is_stmt 0
 1267 0086 5C4D     		lw	a5,28(a0)
 1268 0088 93F7F7CF 		andi	a5,a5,-769
GAS LISTING /tmp/ccVZQUdL.s 			page 38


 1269 008c 5CCD     		sw	a5,28(a0)
 795:../Firmware/GD32VF103_standard_peripheral/Source/gd32vf103_timer.c ****         break;
 1270              		.loc 1 795 9 is_stmt 1
 796:../Firmware/GD32VF103_standard_peripheral/Source/gd32vf103_timer.c ****     default:
 797:../Firmware/GD32VF103_standard_peripheral/Source/gd32vf103_timer.c ****         break;
 798:../Firmware/GD32VF103_standard_peripheral/Source/gd32vf103_timer.c ****     }
 799:../Firmware/GD32VF103_standard_peripheral/Source/gd32vf103_timer.c **** }
 1271              		.loc 1 799 1 is_stmt 0
 1272 008e 8280     		ret
 1273              	.L90:
 1274 0090 8280     		ret
 1275              	.L88:
 687:../Firmware/GD32VF103_standard_peripheral/Source/gd32vf103_timer.c ****         /* set the CH0EN bit */
 1276              		.loc 1 687 9 is_stmt 1
 687:../Firmware/GD32VF103_standard_peripheral/Source/gd32vf103_timer.c ****         /* set the CH0EN bit */
 1277              		.loc 1 687 36 is_stmt 0
 1278 0092 1C51     		lw	a5,32(a0)
 689:../Firmware/GD32VF103_standard_peripheral/Source/gd32vf103_timer.c ****         /* reset the CH0P bit */
 1279              		.loc 1 689 39
 1280 0094 83560600 		lhu	a3,0(a2)
 693:../Firmware/GD32VF103_standard_peripheral/Source/gd32vf103_timer.c **** 
 1281              		.loc 1 693 39
 1282 0098 03574600 		lhu	a4,4(a2)
 687:../Firmware/GD32VF103_standard_peripheral/Source/gd32vf103_timer.c ****         /* set the CH0EN bit */
 1283              		.loc 1 687 36
 1284 009c F99B     		andi	a5,a5,-2
 1285 009e 1CD1     		sw	a5,32(a0)
 689:../Firmware/GD32VF103_standard_peripheral/Source/gd32vf103_timer.c ****         /* reset the CH0P bit */
 1286              		.loc 1 689 9 is_stmt 1
 689:../Firmware/GD32VF103_standard_peripheral/Source/gd32vf103_timer.c ****         /* reset the CH0P bit */
 1287              		.loc 1 689 36 is_stmt 0
 1288 00a0 03280502 		lw	a6,32(a0)
 695:../Firmware/GD32VF103_standard_peripheral/Source/gd32vf103_timer.c ****             /* reset the CH0NEN bit */
 1289              		.loc 1 695 12
 1290 00a4 B7370140 		li	a5,1073819648
 1291 00a8 938507C0 		addi	a1,a5,-1024
 1292              	.LVL68:
 689:../Firmware/GD32VF103_standard_peripheral/Source/gd32vf103_timer.c ****         /* reset the CH0P bit */
 1293              		.loc 1 689 36
 1294 00ac B3E60601 		or	a3,a3,a6
 1295 00b0 14D1     		sw	a3,32(a0)
 691:../Firmware/GD32VF103_standard_peripheral/Source/gd32vf103_timer.c ****         /* set the CH0P bit */
 1296              		.loc 1 691 9 is_stmt 1
 691:../Firmware/GD32VF103_standard_peripheral/Source/gd32vf103_timer.c ****         /* set the CH0P bit */
 1297              		.loc 1 691 36 is_stmt 0
 1298 00b2 1451     		lw	a3,32(a0)
 1299 00b4 F59A     		andi	a3,a3,-3
 1300 00b6 14D1     		sw	a3,32(a0)
 693:../Firmware/GD32VF103_standard_peripheral/Source/gd32vf103_timer.c **** 
 1301              		.loc 1 693 9 is_stmt 1
 693:../Firmware/GD32VF103_standard_peripheral/Source/gd32vf103_timer.c **** 
 1302              		.loc 1 693 36 is_stmt 0
 1303 00b8 1451     		lw	a3,32(a0)
 1304 00ba 558F     		or	a4,a4,a3
 1305 00bc 18D1     		sw	a4,32(a0)
 695:../Firmware/GD32VF103_standard_peripheral/Source/gd32vf103_timer.c ****             /* reset the CH0NEN bit */
 1306              		.loc 1 695 9 is_stmt 1
GAS LISTING /tmp/ccVZQUdL.s 			page 39


 695:../Firmware/GD32VF103_standard_peripheral/Source/gd32vf103_timer.c ****             /* reset the CH0NEN bit */
 1307              		.loc 1 695 12 is_stmt 0
 1308 00be 630DB50A 		beq	a0,a1,.L92
 1309              	.LVL69:
 1310              	.L83:
 713:../Firmware/GD32VF103_standard_peripheral/Source/gd32vf103_timer.c ****         break;
 1311              		.loc 1 713 9 is_stmt 1
 713:../Firmware/GD32VF103_standard_peripheral/Source/gd32vf103_timer.c ****         break;
 1312              		.loc 1 713 36 is_stmt 0
 1313 00c2 1C4D     		lw	a5,24(a0)
 1314 00c4 F19B     		andi	a5,a5,-4
 1315 00c6 1CCD     		sw	a5,24(a0)
 714:../Firmware/GD32VF103_standard_peripheral/Source/gd32vf103_timer.c ****     /* configure TIMER_CH_1 */
 1316              		.loc 1 714 9 is_stmt 1
 1317 00c8 8280     		ret
 1318              	.LVL70:
 1319              	.L77:
 749:../Firmware/GD32VF103_standard_peripheral/Source/gd32vf103_timer.c ****         /* set the CH2EN bit */
 1320              		.loc 1 749 9
 749:../Firmware/GD32VF103_standard_peripheral/Source/gd32vf103_timer.c ****         /* set the CH2EN bit */
 1321              		.loc 1 749 36 is_stmt 0
 1322 00ca 1451     		lw	a3,32(a0)
 751:../Firmware/GD32VF103_standard_peripheral/Source/gd32vf103_timer.c ****         /* reset the CH2P bit */
 1323              		.loc 1 751 50
 1324 00cc 03570600 		lhu	a4,0(a2)
 755:../Firmware/GD32VF103_standard_peripheral/Source/gd32vf103_timer.c **** 
 1325              		.loc 1 755 50
 1326 00d0 83574600 		lhu	a5,4(a2)
 749:../Firmware/GD32VF103_standard_peripheral/Source/gd32vf103_timer.c ****         /* set the CH2EN bit */
 1327              		.loc 1 749 36
 1328 00d4 93F6F6EF 		andi	a3,a3,-257
 1329 00d8 14D1     		sw	a3,32(a0)
 751:../Firmware/GD32VF103_standard_peripheral/Source/gd32vf103_timer.c ****         /* reset the CH2P bit */
 1330              		.loc 1 751 9 is_stmt 1
 751:../Firmware/GD32VF103_standard_peripheral/Source/gd32vf103_timer.c ****         /* reset the CH2P bit */
 1331              		.loc 1 751 36 is_stmt 0
 1332 00da 1451     		lw	a3,32(a0)
 751:../Firmware/GD32VF103_standard_peripheral/Source/gd32vf103_timer.c ****         /* reset the CH2P bit */
 1333              		.loc 1 751 39
 1334 00dc 2207     		slli	a4,a4,8
 755:../Firmware/GD32VF103_standard_peripheral/Source/gd32vf103_timer.c **** 
 1335              		.loc 1 755 39
 1336 00de A207     		slli	a5,a5,8
 751:../Firmware/GD32VF103_standard_peripheral/Source/gd32vf103_timer.c ****         /* reset the CH2P bit */
 1337              		.loc 1 751 36
 1338 00e0 558F     		or	a4,a4,a3
 1339 00e2 18D1     		sw	a4,32(a0)
 753:../Firmware/GD32VF103_standard_peripheral/Source/gd32vf103_timer.c ****         /* set the CH2P bit */
 1340              		.loc 1 753 9 is_stmt 1
 753:../Firmware/GD32VF103_standard_peripheral/Source/gd32vf103_timer.c ****         /* set the CH2P bit */
 1341              		.loc 1 753 36 is_stmt 0
 1342 00e4 1451     		lw	a3,32(a0)
 757:../Firmware/GD32VF103_standard_peripheral/Source/gd32vf103_timer.c ****             /* reset the CH2NEN bit */
 1343              		.loc 1 757 12
 1344 00e6 37370140 		li	a4,1073819648
 1345 00ea 930507C0 		addi	a1,a4,-1024
 1346              	.LVL71:
GAS LISTING /tmp/ccVZQUdL.s 			page 40


 753:../Firmware/GD32VF103_standard_peripheral/Source/gd32vf103_timer.c ****         /* set the CH2P bit */
 1347              		.loc 1 753 36
 1348 00ee 93F6F6DF 		andi	a3,a3,-513
 1349 00f2 14D1     		sw	a3,32(a0)
 755:../Firmware/GD32VF103_standard_peripheral/Source/gd32vf103_timer.c **** 
 1350              		.loc 1 755 9 is_stmt 1
 755:../Firmware/GD32VF103_standard_peripheral/Source/gd32vf103_timer.c **** 
 1351              		.loc 1 755 36 is_stmt 0
 1352 00f4 1451     		lw	a3,32(a0)
 1353 00f6 D58F     		or	a5,a5,a3
 1354 00f8 1CD1     		sw	a5,32(a0)
 757:../Firmware/GD32VF103_standard_peripheral/Source/gd32vf103_timer.c ****             /* reset the CH2NEN bit */
 1355              		.loc 1 757 9 is_stmt 1
 757:../Firmware/GD32VF103_standard_peripheral/Source/gd32vf103_timer.c ****             /* reset the CH2NEN bit */
 1356              		.loc 1 757 12 is_stmt 0
 1357 00fa 6306B500 		beq	a0,a1,.L93
 1358              	.LVL72:
 1359              	.L85:
 775:../Firmware/GD32VF103_standard_peripheral/Source/gd32vf103_timer.c ****         break;
 1360              		.loc 1 775 9 is_stmt 1
 775:../Firmware/GD32VF103_standard_peripheral/Source/gd32vf103_timer.c ****         break;
 1361              		.loc 1 775 36 is_stmt 0
 1362 00fe 5C4D     		lw	a5,28(a0)
 1363 0100 F19B     		andi	a5,a5,-4
 1364 0102 5CCD     		sw	a5,28(a0)
 776:../Firmware/GD32VF103_standard_peripheral/Source/gd32vf103_timer.c ****     /* configure TIMER_CH_3 */
 1365              		.loc 1 776 9 is_stmt 1
 1366 0104 8280     		ret
 1367              	.LVL73:
 1368              	.L93:
 759:../Firmware/GD32VF103_standard_peripheral/Source/gd32vf103_timer.c ****             /* set the CH2NEN bit */
 1369              		.loc 1 759 13
 759:../Firmware/GD32VF103_standard_peripheral/Source/gd32vf103_timer.c ****             /* set the CH2NEN bit */
 1370              		.loc 1 759 40 is_stmt 0
 1371 0106 0C51     		lw	a1,32(a0)
 761:../Firmware/GD32VF103_standard_peripheral/Source/gd32vf103_timer.c ****             /* reset the CH2NP bit */
 1372              		.loc 1 761 54
 1373 0108 83572600 		lhu	a5,2(a2)
 763:../Firmware/GD32VF103_standard_peripheral/Source/gd32vf103_timer.c ****             /* set the CH2NP bit */
 1374              		.loc 1 763 40
 1375 010c FD76     		li	a3,-4096
 759:../Firmware/GD32VF103_standard_peripheral/Source/gd32vf103_timer.c ****             /* set the CH2NEN bit */
 1376              		.loc 1 759 40
 1377 010e 93F5F5BF 		andi	a1,a1,-1025
 1378 0112 0CD1     		sw	a1,32(a0)
 761:../Firmware/GD32VF103_standard_peripheral/Source/gd32vf103_timer.c ****             /* reset the CH2NP bit */
 1379              		.loc 1 761 13 is_stmt 1
 761:../Firmware/GD32VF103_standard_peripheral/Source/gd32vf103_timer.c ****             /* reset the CH2NP bit */
 1380              		.loc 1 761 40 is_stmt 0
 1381 0114 0C51     		lw	a1,32(a0)
 761:../Firmware/GD32VF103_standard_peripheral/Source/gd32vf103_timer.c ****             /* reset the CH2NP bit */
 1382              		.loc 1 761 43
 1383 0116 A207     		slli	a5,a5,8
 763:../Firmware/GD32VF103_standard_peripheral/Source/gd32vf103_timer.c ****             /* set the CH2NP bit */
 1384              		.loc 1 763 40
 1385 0118 9388F67F 		addi	a7,a3,2047
 761:../Firmware/GD32VF103_standard_peripheral/Source/gd32vf103_timer.c ****             /* reset the CH2NP bit */
GAS LISTING /tmp/ccVZQUdL.s 			page 41


 1386              		.loc 1 761 40
 1387 011c CD8F     		or	a5,a5,a1
 1388 011e 1CD1     		sw	a5,32(a0)
 763:../Firmware/GD32VF103_standard_peripheral/Source/gd32vf103_timer.c ****             /* set the CH2NP bit */
 1389              		.loc 1 763 13 is_stmt 1
 763:../Firmware/GD32VF103_standard_peripheral/Source/gd32vf103_timer.c ****             /* set the CH2NP bit */
 1390              		.loc 1 763 40 is_stmt 0
 1391 0120 03280502 		lw	a6,32(a0)
 767:../Firmware/GD32VF103_standard_peripheral/Source/gd32vf103_timer.c ****             /* set the ISO2 bit */
 1392              		.loc 1 767 38
 1393 0124 9385F6FF 		addi	a1,a3,-1
 765:../Firmware/GD32VF103_standard_peripheral/Source/gd32vf103_timer.c ****             /* reset the ISO2 bit */
 1394              		.loc 1 765 54
 1395 0128 83576600 		lhu	a5,6(a2)
 763:../Firmware/GD32VF103_standard_peripheral/Source/gd32vf103_timer.c ****             /* set the CH2NP bit */
 1396              		.loc 1 763 40
 1397 012c B3761801 		and	a3,a6,a7
 1398 0130 14D1     		sw	a3,32(a0)
 765:../Firmware/GD32VF103_standard_peripheral/Source/gd32vf103_timer.c ****             /* reset the ISO2 bit */
 1399              		.loc 1 765 13 is_stmt 1
 765:../Firmware/GD32VF103_standard_peripheral/Source/gd32vf103_timer.c ****             /* reset the ISO2 bit */
 1400              		.loc 1 765 40 is_stmt 0
 1401 0132 03280502 		lw	a6,32(a0)
 765:../Firmware/GD32VF103_standard_peripheral/Source/gd32vf103_timer.c ****             /* reset the ISO2 bit */
 1402              		.loc 1 765 43
 1403 0136 A207     		slli	a5,a5,8
 769:../Firmware/GD32VF103_standard_peripheral/Source/gd32vf103_timer.c ****             /* reset the ISO2N bit */
 1404              		.loc 1 769 52
 1405 0138 83568600 		lhu	a3,8(a2)
 765:../Firmware/GD32VF103_standard_peripheral/Source/gd32vf103_timer.c ****             /* reset the ISO2 bit */
 1406              		.loc 1 765 40
 1407 013c B3E70701 		or	a5,a5,a6
 1408 0140 1CD1     		sw	a5,32(a0)
 767:../Firmware/GD32VF103_standard_peripheral/Source/gd32vf103_timer.c ****             /* set the ISO2 bit */
 1409              		.loc 1 767 13 is_stmt 1
 767:../Firmware/GD32VF103_standard_peripheral/Source/gd32vf103_timer.c ****             /* set the ISO2 bit */
 1410              		.loc 1 767 38 is_stmt 0
 1411 0142 832747C0 		lw	a5,-1020(a4)
 769:../Firmware/GD32VF103_standard_peripheral/Source/gd32vf103_timer.c ****             /* reset the ISO2N bit */
 1412              		.loc 1 769 41
 1413 0146 9206     		slli	a3,a3,4
 767:../Firmware/GD32VF103_standard_peripheral/Source/gd32vf103_timer.c ****             /* set the ISO2 bit */
 1414              		.loc 1 767 38
 1415 0148 FD8D     		and	a1,a5,a1
 1416 014a 2322B7C0 		sw	a1,-1020(a4)
 769:../Firmware/GD32VF103_standard_peripheral/Source/gd32vf103_timer.c ****             /* reset the ISO2N bit */
 1417              		.loc 1 769 13 is_stmt 1
 769:../Firmware/GD32VF103_standard_peripheral/Source/gd32vf103_timer.c ****             /* reset the ISO2N bit */
 1418              		.loc 1 769 38 is_stmt 0
 1419 014e 832547C0 		lw	a1,-1020(a4)
 773:../Firmware/GD32VF103_standard_peripheral/Source/gd32vf103_timer.c ****         }
 1420              		.loc 1 773 52
 1421 0152 8357A600 		lhu	a5,10(a2)
 771:../Firmware/GD32VF103_standard_peripheral/Source/gd32vf103_timer.c ****             /* set the ISO2N bit */
 1422              		.loc 1 771 38
 1423 0156 7976     		li	a2,-8192
 1424              	.LVL74:
GAS LISTING /tmp/ccVZQUdL.s 			page 42


 769:../Firmware/GD32VF103_standard_peripheral/Source/gd32vf103_timer.c ****             /* reset the ISO2N bit */
 1425              		.loc 1 769 38
 1426 0158 CD8E     		or	a3,a3,a1
 1427 015a 2322D7C0 		sw	a3,-1020(a4)
 771:../Firmware/GD32VF103_standard_peripheral/Source/gd32vf103_timer.c ****             /* set the ISO2N bit */
 1428              		.loc 1 771 13 is_stmt 1
 771:../Firmware/GD32VF103_standard_peripheral/Source/gd32vf103_timer.c ****             /* set the ISO2N bit */
 1429              		.loc 1 771 38 is_stmt 0
 1430 015e 832647C0 		lw	a3,-1020(a4)
 1431 0162 7D16     		addi	a2,a2,-1
 773:../Firmware/GD32VF103_standard_peripheral/Source/gd32vf103_timer.c ****         }
 1432              		.loc 1 773 41
 1433 0164 9207     		slli	a5,a5,4
 771:../Firmware/GD32VF103_standard_peripheral/Source/gd32vf103_timer.c ****             /* set the ISO2N bit */
 1434              		.loc 1 771 38
 1435 0166 F18E     		and	a3,a3,a2
 1436 0168 2322D7C0 		sw	a3,-1020(a4)
 773:../Firmware/GD32VF103_standard_peripheral/Source/gd32vf103_timer.c ****         }
 1437              		.loc 1 773 13 is_stmt 1
 773:../Firmware/GD32VF103_standard_peripheral/Source/gd32vf103_timer.c ****         }
 1438              		.loc 1 773 38 is_stmt 0
 1439 016c 832647C0 		lw	a3,-1020(a4)
 1440 0170 D58F     		or	a5,a5,a3
 1441 0172 2322F7C0 		sw	a5,-1020(a4)
 1442 0176 61B7     		j	.L85
 1443              	.LVL75:
 1444              	.L92:
 697:../Firmware/GD32VF103_standard_peripheral/Source/gd32vf103_timer.c ****             /* set the CH0NEN bit */
 1445              		.loc 1 697 13 is_stmt 1
 697:../Firmware/GD32VF103_standard_peripheral/Source/gd32vf103_timer.c ****             /* set the CH0NEN bit */
 1446              		.loc 1 697 40 is_stmt 0
 1447 0178 1851     		lw	a4,32(a0)
 703:../Firmware/GD32VF103_standard_peripheral/Source/gd32vf103_timer.c ****             /* reset the ISO0 bit */
 1448              		.loc 1 703 43
 1449 017a 83556600 		lhu	a1,6(a2)
 699:../Firmware/GD32VF103_standard_peripheral/Source/gd32vf103_timer.c ****             /* reset the CH0NP bit */
 1450              		.loc 1 699 43
 1451 017e 03582600 		lhu	a6,2(a2)
 697:../Firmware/GD32VF103_standard_peripheral/Source/gd32vf103_timer.c ****             /* set the CH0NEN bit */
 1452              		.loc 1 697 40
 1453 0182 6D9B     		andi	a4,a4,-5
 1454 0184 18D1     		sw	a4,32(a0)
 699:../Firmware/GD32VF103_standard_peripheral/Source/gd32vf103_timer.c ****             /* reset the CH0NP bit */
 1455              		.loc 1 699 13 is_stmt 1
 699:../Firmware/GD32VF103_standard_peripheral/Source/gd32vf103_timer.c ****             /* reset the CH0NP bit */
 1456              		.loc 1 699 40 is_stmt 0
 1457 0186 83280502 		lw	a7,32(a0)
 707:../Firmware/GD32VF103_standard_peripheral/Source/gd32vf103_timer.c ****             /* reset the ISO0N bit */
 1458              		.loc 1 707 41
 1459 018a 83568600 		lhu	a3,8(a2)
 711:../Firmware/GD32VF103_standard_peripheral/Source/gd32vf103_timer.c ****         }
 1460              		.loc 1 711 41
 1461 018e 0357A600 		lhu	a4,10(a2)
 699:../Firmware/GD32VF103_standard_peripheral/Source/gd32vf103_timer.c ****             /* reset the CH0NP bit */
 1462              		.loc 1 699 40
 1463 0192 33661801 		or	a2,a6,a7
 1464              	.LVL76:
GAS LISTING /tmp/ccVZQUdL.s 			page 43


 1465 0196 10D1     		sw	a2,32(a0)
 701:../Firmware/GD32VF103_standard_peripheral/Source/gd32vf103_timer.c ****             /* set the CH0NP bit */
 1466              		.loc 1 701 13 is_stmt 1
 701:../Firmware/GD32VF103_standard_peripheral/Source/gd32vf103_timer.c ****             /* set the CH0NP bit */
 1467              		.loc 1 701 40 is_stmt 0
 1468 0198 1051     		lw	a2,32(a0)
 1469 019a 5D9A     		andi	a2,a2,-9
 1470 019c 10D1     		sw	a2,32(a0)
 703:../Firmware/GD32VF103_standard_peripheral/Source/gd32vf103_timer.c ****             /* reset the ISO0 bit */
 1471              		.loc 1 703 13 is_stmt 1
 703:../Firmware/GD32VF103_standard_peripheral/Source/gd32vf103_timer.c ****             /* reset the ISO0 bit */
 1472              		.loc 1 703 40 is_stmt 0
 1473 019e 1051     		lw	a2,32(a0)
 1474 01a0 4D8E     		or	a2,a1,a2
 1475 01a2 10D1     		sw	a2,32(a0)
 705:../Firmware/GD32VF103_standard_peripheral/Source/gd32vf103_timer.c ****             /* set the ISO0 bit */
 1476              		.loc 1 705 13 is_stmt 1
 705:../Firmware/GD32VF103_standard_peripheral/Source/gd32vf103_timer.c ****             /* set the ISO0 bit */
 1477              		.loc 1 705 38 is_stmt 0
 1478 01a4 03A647C0 		lw	a2,-1020(a5)
 1479 01a8 1376F6EF 		andi	a2,a2,-257
 1480 01ac 23A2C7C0 		sw	a2,-1020(a5)
 707:../Firmware/GD32VF103_standard_peripheral/Source/gd32vf103_timer.c ****             /* reset the ISO0N bit */
 1481              		.loc 1 707 13 is_stmt 1
 707:../Firmware/GD32VF103_standard_peripheral/Source/gd32vf103_timer.c ****             /* reset the ISO0N bit */
 1482              		.loc 1 707 38 is_stmt 0
 1483 01b0 03A647C0 		lw	a2,-1020(a5)
 1484 01b4 D18E     		or	a3,a3,a2
 1485 01b6 23A2D7C0 		sw	a3,-1020(a5)
 709:../Firmware/GD32VF103_standard_peripheral/Source/gd32vf103_timer.c ****             /* set the ISO0N bit */
 1486              		.loc 1 709 13 is_stmt 1
 709:../Firmware/GD32VF103_standard_peripheral/Source/gd32vf103_timer.c ****             /* set the ISO0N bit */
 1487              		.loc 1 709 38 is_stmt 0
 1488 01ba 83A647C0 		lw	a3,-1020(a5)
 1489 01be 93F6F6DF 		andi	a3,a3,-513
 1490 01c2 23A2D7C0 		sw	a3,-1020(a5)
 711:../Firmware/GD32VF103_standard_peripheral/Source/gd32vf103_timer.c ****         }
 1491              		.loc 1 711 13 is_stmt 1
 711:../Firmware/GD32VF103_standard_peripheral/Source/gd32vf103_timer.c ****         }
 1492              		.loc 1 711 38 is_stmt 0
 1493 01c6 83A647C0 		lw	a3,-1020(a5)
 1494 01ca 558F     		or	a4,a4,a3
 1495 01cc 23A2E7C0 		sw	a4,-1020(a5)
 1496 01d0 CDBD     		j	.L83
 1497              	.LVL77:
 1498              	.L91:
 790:../Firmware/GD32VF103_standard_peripheral/Source/gd32vf103_timer.c ****             /* set the ISO3 bit */
 1499              		.loc 1 790 13 is_stmt 1
 790:../Firmware/GD32VF103_standard_peripheral/Source/gd32vf103_timer.c ****             /* set the ISO3 bit */
 1500              		.loc 1 790 38 is_stmt 0
 1501 01d2 832647C0 		lw	a3,-1020(a4)
 1502 01d6 F177     		li	a5,-16384
 1503 01d8 FD17     		addi	a5,a5,-1
 1504 01da FD8E     		and	a3,a3,a5
 792:../Firmware/GD32VF103_standard_peripheral/Source/gd32vf103_timer.c ****         }
 1505              		.loc 1 792 52
 1506 01dc 83578600 		lhu	a5,8(a2)
GAS LISTING /tmp/ccVZQUdL.s 			page 44


 790:../Firmware/GD32VF103_standard_peripheral/Source/gd32vf103_timer.c ****             /* set the ISO3 bit */
 1507              		.loc 1 790 38
 1508 01e0 2322D7C0 		sw	a3,-1020(a4)
 792:../Firmware/GD32VF103_standard_peripheral/Source/gd32vf103_timer.c ****         }
 1509              		.loc 1 792 13 is_stmt 1
 792:../Firmware/GD32VF103_standard_peripheral/Source/gd32vf103_timer.c ****         }
 1510              		.loc 1 792 38 is_stmt 0
 1511 01e4 832647C0 		lw	a3,-1020(a4)
 792:../Firmware/GD32VF103_standard_peripheral/Source/gd32vf103_timer.c ****         }
 1512              		.loc 1 792 41
 1513 01e8 9A07     		slli	a5,a5,6
 792:../Firmware/GD32VF103_standard_peripheral/Source/gd32vf103_timer.c ****         }
 1514              		.loc 1 792 38
 1515 01ea D58F     		or	a5,a5,a3
 1516 01ec 2322F7C0 		sw	a5,-1020(a4)
 1517 01f0 59BD     		j	.L86
 1518              	.LVL78:
 1519              	.L89:
 728:../Firmware/GD32VF103_standard_peripheral/Source/gd32vf103_timer.c ****             /* set the CH1NEN bit */
 1520              		.loc 1 728 13 is_stmt 1
 728:../Firmware/GD32VF103_standard_peripheral/Source/gd32vf103_timer.c ****             /* set the CH1NEN bit */
 1521              		.loc 1 728 40 is_stmt 0
 1522 01f2 0C51     		lw	a1,32(a0)
 730:../Firmware/GD32VF103_standard_peripheral/Source/gd32vf103_timer.c ****             /* reset the CH1NP bit */
 1523              		.loc 1 730 54
 1524 01f4 83562600 		lhu	a3,2(a2)
 734:../Firmware/GD32VF103_standard_peripheral/Source/gd32vf103_timer.c ****             /* reset the ISO1 bit */
 1525              		.loc 1 734 54
 1526 01f8 83576600 		lhu	a5,6(a2)
 728:../Firmware/GD32VF103_standard_peripheral/Source/gd32vf103_timer.c ****             /* set the CH1NEN bit */
 1527              		.loc 1 728 40
 1528 01fc 93F5F5FB 		andi	a1,a1,-65
 1529 0200 0CD1     		sw	a1,32(a0)
 730:../Firmware/GD32VF103_standard_peripheral/Source/gd32vf103_timer.c ****             /* reset the CH1NP bit */
 1530              		.loc 1 730 13 is_stmt 1
 730:../Firmware/GD32VF103_standard_peripheral/Source/gd32vf103_timer.c ****             /* reset the CH1NP bit */
 1531              		.loc 1 730 40 is_stmt 0
 1532 0202 0C51     		lw	a1,32(a0)
 730:../Firmware/GD32VF103_standard_peripheral/Source/gd32vf103_timer.c ****             /* reset the CH1NP bit */
 1533              		.loc 1 730 43
 1534 0204 9206     		slli	a3,a3,4
 734:../Firmware/GD32VF103_standard_peripheral/Source/gd32vf103_timer.c ****             /* reset the ISO1 bit */
 1535              		.loc 1 734 43
 1536 0206 9207     		slli	a5,a5,4
 730:../Firmware/GD32VF103_standard_peripheral/Source/gd32vf103_timer.c ****             /* reset the CH1NP bit */
 1537              		.loc 1 730 40
 1538 0208 CD8E     		or	a3,a3,a1
 1539 020a 14D1     		sw	a3,32(a0)
 732:../Firmware/GD32VF103_standard_peripheral/Source/gd32vf103_timer.c ****             /* set the CH1NP bit */
 1540              		.loc 1 732 13 is_stmt 1
 732:../Firmware/GD32VF103_standard_peripheral/Source/gd32vf103_timer.c ****             /* set the CH1NP bit */
 1541              		.loc 1 732 40 is_stmt 0
 1542 020c 0C51     		lw	a1,32(a0)
 738:../Firmware/GD32VF103_standard_peripheral/Source/gd32vf103_timer.c ****             /* reset the ISO1N bit */
 1543              		.loc 1 738 52
 1544 020e 83568600 		lhu	a3,8(a2)
 732:../Firmware/GD32VF103_standard_peripheral/Source/gd32vf103_timer.c ****             /* set the CH1NP bit */
GAS LISTING /tmp/ccVZQUdL.s 			page 45


 1545              		.loc 1 732 40
 1546 0212 93F5F5F7 		andi	a1,a1,-129
 1547 0216 0CD1     		sw	a1,32(a0)
 734:../Firmware/GD32VF103_standard_peripheral/Source/gd32vf103_timer.c ****             /* reset the ISO1 bit */
 1548              		.loc 1 734 13 is_stmt 1
 734:../Firmware/GD32VF103_standard_peripheral/Source/gd32vf103_timer.c ****             /* reset the ISO1 bit */
 1549              		.loc 1 734 40 is_stmt 0
 1550 0218 0C51     		lw	a1,32(a0)
 738:../Firmware/GD32VF103_standard_peripheral/Source/gd32vf103_timer.c ****             /* reset the ISO1N bit */
 1551              		.loc 1 738 41
 1552 021a 8A06     		slli	a3,a3,2
 734:../Firmware/GD32VF103_standard_peripheral/Source/gd32vf103_timer.c ****             /* reset the ISO1 bit */
 1553              		.loc 1 734 40
 1554 021c CD8F     		or	a5,a5,a1
 1555 021e 1CD1     		sw	a5,32(a0)
 736:../Firmware/GD32VF103_standard_peripheral/Source/gd32vf103_timer.c ****             /* set the ISO1 bit */
 1556              		.loc 1 736 13 is_stmt 1
 736:../Firmware/GD32VF103_standard_peripheral/Source/gd32vf103_timer.c ****             /* set the ISO1 bit */
 1557              		.loc 1 736 38 is_stmt 0
 1558 0220 832547C0 		lw	a1,-1020(a4)
 742:../Firmware/GD32VF103_standard_peripheral/Source/gd32vf103_timer.c ****         }
 1559              		.loc 1 742 52
 1560 0224 8357A600 		lhu	a5,10(a2)
 736:../Firmware/GD32VF103_standard_peripheral/Source/gd32vf103_timer.c ****             /* set the ISO1 bit */
 1561              		.loc 1 736 38
 1562 0228 13F6F5BF 		andi	a2,a1,-1025
 1563              	.LVL79:
 1564 022c 2322C7C0 		sw	a2,-1020(a4)
 738:../Firmware/GD32VF103_standard_peripheral/Source/gd32vf103_timer.c ****             /* reset the ISO1N bit */
 1565              		.loc 1 738 13 is_stmt 1
 738:../Firmware/GD32VF103_standard_peripheral/Source/gd32vf103_timer.c ****             /* reset the ISO1N bit */
 1566              		.loc 1 738 38 is_stmt 0
 1567 0230 032647C0 		lw	a2,-1020(a4)
 742:../Firmware/GD32VF103_standard_peripheral/Source/gd32vf103_timer.c ****         }
 1568              		.loc 1 742 41
 1569 0234 8A07     		slli	a5,a5,2
 738:../Firmware/GD32VF103_standard_peripheral/Source/gd32vf103_timer.c ****             /* reset the ISO1N bit */
 1570              		.loc 1 738 38
 1571 0236 D18E     		or	a3,a3,a2
 1572 0238 2322D7C0 		sw	a3,-1020(a4)
 740:../Firmware/GD32VF103_standard_peripheral/Source/gd32vf103_timer.c ****             /* set the ISO1N bit */
 1573              		.loc 1 740 13 is_stmt 1
 740:../Firmware/GD32VF103_standard_peripheral/Source/gd32vf103_timer.c ****             /* set the ISO1N bit */
 1574              		.loc 1 740 38 is_stmt 0
 1575 023c 832647C0 		lw	a3,-1020(a4)
 1576 0240 7D76     		li	a2,-4096
 1577 0242 1306F67F 		addi	a2,a2,2047
 1578 0246 F18E     		and	a3,a3,a2
 1579 0248 2322D7C0 		sw	a3,-1020(a4)
 742:../Firmware/GD32VF103_standard_peripheral/Source/gd32vf103_timer.c ****         }
 1580              		.loc 1 742 13 is_stmt 1
 742:../Firmware/GD32VF103_standard_peripheral/Source/gd32vf103_timer.c ****         }
 1581              		.loc 1 742 38 is_stmt 0
 1582 024c 832647C0 		lw	a3,-1020(a4)
 1583 0250 D58F     		or	a5,a5,a3
 1584 0252 2322F7C0 		sw	a5,-1020(a4)
 1585 0256 E5B3     		j	.L84
GAS LISTING /tmp/ccVZQUdL.s 			page 46


 1586              		.cfi_endproc
 1587              	.LFE37:
 1589              		.section	.text.timer_channel_output_mode_config,"ax",@progbits
 1590              		.align	1
 1591              		.globl	timer_channel_output_mode_config
 1593              	timer_channel_output_mode_config:
 1594              	.LFB38:
 800:../Firmware/GD32VF103_standard_peripheral/Source/gd32vf103_timer.c **** 
 801:../Firmware/GD32VF103_standard_peripheral/Source/gd32vf103_timer.c **** /*!
 802:../Firmware/GD32VF103_standard_peripheral/Source/gd32vf103_timer.c ****     \brief      configure TIMER channel output compare mode
 803:../Firmware/GD32VF103_standard_peripheral/Source/gd32vf103_timer.c ****     \param[in]  timer_periph: TIMERx(x=0..4)
 804:../Firmware/GD32VF103_standard_peripheral/Source/gd32vf103_timer.c ****     \param[in]  channel:
 805:../Firmware/GD32VF103_standard_peripheral/Source/gd32vf103_timer.c ****                 only one parameter can be selected which is shown as below:
 806:../Firmware/GD32VF103_standard_peripheral/Source/gd32vf103_timer.c ****       \arg        TIMER_CH_0: TIMER channel 0(TIMERx(x=0..4))
 807:../Firmware/GD32VF103_standard_peripheral/Source/gd32vf103_timer.c ****       \arg        TIMER_CH_1: TIMER channel 1(TIMERx(x=0..4))
 808:../Firmware/GD32VF103_standard_peripheral/Source/gd32vf103_timer.c ****       \arg        TIMER_CH_2: TIMER channel 2(TIMERx(x=0..4))
 809:../Firmware/GD32VF103_standard_peripheral/Source/gd32vf103_timer.c ****       \arg        TIMER_CH_3: TIMER channel 3(TIMERx(x=0..4))
 810:../Firmware/GD32VF103_standard_peripheral/Source/gd32vf103_timer.c ****     \param[in]  ocmode: channel output compare mode
 811:../Firmware/GD32VF103_standard_peripheral/Source/gd32vf103_timer.c ****                 only one parameter can be selected which is shown as below:
 812:../Firmware/GD32VF103_standard_peripheral/Source/gd32vf103_timer.c ****       \arg        TIMER_OC_MODE_TIMING: timing mode
 813:../Firmware/GD32VF103_standard_peripheral/Source/gd32vf103_timer.c ****       \arg        TIMER_OC_MODE_ACTIVE: active mode
 814:../Firmware/GD32VF103_standard_peripheral/Source/gd32vf103_timer.c ****       \arg        TIMER_OC_MODE_INACTIVE: inactive mode
 815:../Firmware/GD32VF103_standard_peripheral/Source/gd32vf103_timer.c ****       \arg        TIMER_OC_MODE_TOGGLE: toggle mode
 816:../Firmware/GD32VF103_standard_peripheral/Source/gd32vf103_timer.c ****       \arg        TIMER_OC_MODE_LOW: force low mode
 817:../Firmware/GD32VF103_standard_peripheral/Source/gd32vf103_timer.c ****       \arg        TIMER_OC_MODE_HIGH: force high mode
 818:../Firmware/GD32VF103_standard_peripheral/Source/gd32vf103_timer.c ****       \arg        TIMER_OC_MODE_PWM0: PWM mode 0
 819:../Firmware/GD32VF103_standard_peripheral/Source/gd32vf103_timer.c ****       \arg        TIMER_OC_MODE_PWM1: PWM mode 1
 820:../Firmware/GD32VF103_standard_peripheral/Source/gd32vf103_timer.c ****     \param[out] none
 821:../Firmware/GD32VF103_standard_peripheral/Source/gd32vf103_timer.c ****     \retval     none
 822:../Firmware/GD32VF103_standard_peripheral/Source/gd32vf103_timer.c **** */
 823:../Firmware/GD32VF103_standard_peripheral/Source/gd32vf103_timer.c **** void timer_channel_output_mode_config(uint32_t timer_periph, uint16_t channel, uint16_t ocmode)
 824:../Firmware/GD32VF103_standard_peripheral/Source/gd32vf103_timer.c **** {
 1595              		.loc 1 824 1 is_stmt 1
 1596              		.cfi_startproc
 1597              	.LVL80:
 825:../Firmware/GD32VF103_standard_peripheral/Source/gd32vf103_timer.c ****     switch(channel){
 1598              		.loc 1 825 5
 1599 0000 8947     		li	a5,2
 1600 0002 6385F504 		beq	a1,a5,.L95
 1601 0006 63EDB700 		bgtu	a1,a5,.L96
 1602 000a 8DC9     		beq	a1,zero,.L102
 826:../Firmware/GD32VF103_standard_peripheral/Source/gd32vf103_timer.c ****     /* configure TIMER_CH_0 */
 827:../Firmware/GD32VF103_standard_peripheral/Source/gd32vf103_timer.c ****     case TIMER_CH_0:
 828:../Firmware/GD32VF103_standard_peripheral/Source/gd32vf103_timer.c ****         TIMER_CHCTL0(timer_periph) &= (~(uint32_t)TIMER_CHCTL0_CH0COMCTL);
 829:../Firmware/GD32VF103_standard_peripheral/Source/gd32vf103_timer.c ****         TIMER_CHCTL0(timer_periph) |= (uint32_t)ocmode;
 830:../Firmware/GD32VF103_standard_peripheral/Source/gd32vf103_timer.c ****         break;
 831:../Firmware/GD32VF103_standard_peripheral/Source/gd32vf103_timer.c ****     /* configure TIMER_CH_1 */
 832:../Firmware/GD32VF103_standard_peripheral/Source/gd32vf103_timer.c ****     case TIMER_CH_1:
 833:../Firmware/GD32VF103_standard_peripheral/Source/gd32vf103_timer.c ****         TIMER_CHCTL0(timer_periph) &= (~(uint32_t)TIMER_CHCTL0_CH1COMCTL);
 1603              		.loc 1 833 9
 1604              		.loc 1 833 36 is_stmt 0
 1605 000c 1C4D     		lw	a5,24(a0)
 1606 000e 6577     		li	a4,-28672
 1607 0010 7D17     		addi	a4,a4,-1
 1608 0012 F98F     		and	a5,a5,a4
 1609 0014 1CCD     		sw	a5,24(a0)
 834:../Firmware/GD32VF103_standard_peripheral/Source/gd32vf103_timer.c ****         TIMER_CHCTL0(timer_periph) |= (uint32_t)((uint32_t)(ocmode) << 8U);
GAS LISTING /tmp/ccVZQUdL.s 			page 47


 1610              		.loc 1 834 9 is_stmt 1
 1611              		.loc 1 834 36 is_stmt 0
 1612 0016 1C4D     		lw	a5,24(a0)
 1613              		.loc 1 834 39
 1614 0018 2206     		slli	a2,a2,8
 1615              	.LVL81:
 1616              		.loc 1 834 36
 1617 001a 5D8E     		or	a2,a2,a5
 1618 001c 10CD     		sw	a2,24(a0)
 835:../Firmware/GD32VF103_standard_peripheral/Source/gd32vf103_timer.c ****         break;
 1619              		.loc 1 835 9 is_stmt 1
 1620 001e 8280     		ret
 1621              	.LVL82:
 1622              	.L96:
 825:../Firmware/GD32VF103_standard_peripheral/Source/gd32vf103_timer.c ****     /* configure TIMER_CH_0 */
 1623              		.loc 1 825 5 is_stmt 0
 1624 0020 8D47     		li	a5,3
 1625 0022 639CF500 		bne	a1,a5,.L103
 836:../Firmware/GD32VF103_standard_peripheral/Source/gd32vf103_timer.c ****     /* configure TIMER_CH_2 */
 837:../Firmware/GD32VF103_standard_peripheral/Source/gd32vf103_timer.c ****     case TIMER_CH_2:
 838:../Firmware/GD32VF103_standard_peripheral/Source/gd32vf103_timer.c ****         TIMER_CHCTL1(timer_periph) &= (~(uint32_t)TIMER_CHCTL1_CH2COMCTL);
 839:../Firmware/GD32VF103_standard_peripheral/Source/gd32vf103_timer.c ****         TIMER_CHCTL1(timer_periph) |= (uint32_t)ocmode;
 840:../Firmware/GD32VF103_standard_peripheral/Source/gd32vf103_timer.c ****         break;
 841:../Firmware/GD32VF103_standard_peripheral/Source/gd32vf103_timer.c ****     /* configure TIMER_CH_3 */
 842:../Firmware/GD32VF103_standard_peripheral/Source/gd32vf103_timer.c ****     case TIMER_CH_3:
 843:../Firmware/GD32VF103_standard_peripheral/Source/gd32vf103_timer.c ****         TIMER_CHCTL1(timer_periph) &= (~(uint32_t)TIMER_CHCTL1_CH3COMCTL);
 1626              		.loc 1 843 9 is_stmt 1
 1627              		.loc 1 843 36 is_stmt 0
 1628 0026 5C4D     		lw	a5,28(a0)
 1629 0028 6577     		li	a4,-28672
 1630 002a 7D17     		addi	a4,a4,-1
 1631 002c F98F     		and	a5,a5,a4
 1632 002e 5CCD     		sw	a5,28(a0)
 844:../Firmware/GD32VF103_standard_peripheral/Source/gd32vf103_timer.c ****         TIMER_CHCTL1(timer_periph) |= (uint32_t)((uint32_t)(ocmode) << 8U);
 1633              		.loc 1 844 9 is_stmt 1
 1634              		.loc 1 844 36 is_stmt 0
 1635 0030 5C4D     		lw	a5,28(a0)
 1636              		.loc 1 844 39
 1637 0032 2206     		slli	a2,a2,8
 1638              	.LVL83:
 1639              		.loc 1 844 36
 1640 0034 5D8E     		or	a2,a2,a5
 1641 0036 50CD     		sw	a2,28(a0)
 845:../Firmware/GD32VF103_standard_peripheral/Source/gd32vf103_timer.c ****         break;
 1642              		.loc 1 845 9 is_stmt 1
 846:../Firmware/GD32VF103_standard_peripheral/Source/gd32vf103_timer.c ****     default:
 847:../Firmware/GD32VF103_standard_peripheral/Source/gd32vf103_timer.c ****         break;
 848:../Firmware/GD32VF103_standard_peripheral/Source/gd32vf103_timer.c ****     }
 849:../Firmware/GD32VF103_standard_peripheral/Source/gd32vf103_timer.c **** }
 1643              		.loc 1 849 1 is_stmt 0
 1644 0038 8280     		ret
 1645              	.LVL84:
 1646              	.L103:
 1647 003a 8280     		ret
 1648              	.L102:
 828:../Firmware/GD32VF103_standard_peripheral/Source/gd32vf103_timer.c ****         TIMER_CHCTL0(timer_periph) |= (uint32_t)ocmode;
 1649              		.loc 1 828 9 is_stmt 1
GAS LISTING /tmp/ccVZQUdL.s 			page 48


 828:../Firmware/GD32VF103_standard_peripheral/Source/gd32vf103_timer.c ****         TIMER_CHCTL0(timer_periph) |= (uint32_t)ocmode;
 1650              		.loc 1 828 36 is_stmt 0
 1651 003c 1C4D     		lw	a5,24(a0)
 1652 003e 93F7F7F8 		andi	a5,a5,-113
 1653 0042 1CCD     		sw	a5,24(a0)
 829:../Firmware/GD32VF103_standard_peripheral/Source/gd32vf103_timer.c ****         break;
 1654              		.loc 1 829 9 is_stmt 1
 829:../Firmware/GD32VF103_standard_peripheral/Source/gd32vf103_timer.c ****         break;
 1655              		.loc 1 829 36 is_stmt 0
 1656 0044 1C4D     		lw	a5,24(a0)
 1657 0046 5D8E     		or	a2,a2,a5
 1658              	.LVL85:
 1659 0048 10CD     		sw	a2,24(a0)
 830:../Firmware/GD32VF103_standard_peripheral/Source/gd32vf103_timer.c ****     /* configure TIMER_CH_1 */
 1660              		.loc 1 830 9 is_stmt 1
 1661 004a 8280     		ret
 1662              	.LVL86:
 1663              	.L95:
 838:../Firmware/GD32VF103_standard_peripheral/Source/gd32vf103_timer.c ****         TIMER_CHCTL1(timer_periph) |= (uint32_t)ocmode;
 1664              		.loc 1 838 9
 838:../Firmware/GD32VF103_standard_peripheral/Source/gd32vf103_timer.c ****         TIMER_CHCTL1(timer_periph) |= (uint32_t)ocmode;
 1665              		.loc 1 838 36 is_stmt 0
 1666 004c 5C4D     		lw	a5,28(a0)
 1667 004e 93F7F7F8 		andi	a5,a5,-113
 1668 0052 5CCD     		sw	a5,28(a0)
 839:../Firmware/GD32VF103_standard_peripheral/Source/gd32vf103_timer.c ****         break;
 1669              		.loc 1 839 9 is_stmt 1
 839:../Firmware/GD32VF103_standard_peripheral/Source/gd32vf103_timer.c ****         break;
 1670              		.loc 1 839 36 is_stmt 0
 1671 0054 5C4D     		lw	a5,28(a0)
 1672 0056 5D8E     		or	a2,a2,a5
 1673              	.LVL87:
 1674 0058 50CD     		sw	a2,28(a0)
 840:../Firmware/GD32VF103_standard_peripheral/Source/gd32vf103_timer.c ****     /* configure TIMER_CH_3 */
 1675              		.loc 1 840 9 is_stmt 1
 1676 005a 8280     		ret
 1677              		.cfi_endproc
 1678              	.LFE38:
 1680              		.section	.text.timer_channel_output_pulse_value_config,"ax",@progbits
 1681              		.align	1
 1682              		.globl	timer_channel_output_pulse_value_config
 1684              	timer_channel_output_pulse_value_config:
 1685              	.LFB39:
 850:../Firmware/GD32VF103_standard_peripheral/Source/gd32vf103_timer.c **** 
 851:../Firmware/GD32VF103_standard_peripheral/Source/gd32vf103_timer.c **** /*!
 852:../Firmware/GD32VF103_standard_peripheral/Source/gd32vf103_timer.c ****     \brief      configure TIMER channel output pulse value
 853:../Firmware/GD32VF103_standard_peripheral/Source/gd32vf103_timer.c ****     \param[in]  timer_periph: TIMERx(x=0..4)
 854:../Firmware/GD32VF103_standard_peripheral/Source/gd32vf103_timer.c ****     \param[in]  channel:
 855:../Firmware/GD32VF103_standard_peripheral/Source/gd32vf103_timer.c ****                 only one parameter can be selected which is shown as below:
 856:../Firmware/GD32VF103_standard_peripheral/Source/gd32vf103_timer.c ****       \arg        TIMER_CH_0: TIMER channel 0(TIMERx(x=0..4))
 857:../Firmware/GD32VF103_standard_peripheral/Source/gd32vf103_timer.c ****       \arg        TIMER_CH_1: TIMER channel 1(TIMERx(x=0..4))
 858:../Firmware/GD32VF103_standard_peripheral/Source/gd32vf103_timer.c ****       \arg        TIMER_CH_2: TIMER channel 2(TIMERx(x=0..4))
 859:../Firmware/GD32VF103_standard_peripheral/Source/gd32vf103_timer.c ****       \arg        TIMER_CH_3: TIMER channel 3(TIMERx(x=0..4))
 860:../Firmware/GD32VF103_standard_peripheral/Source/gd32vf103_timer.c ****     \param[in]  pulse: channel output pulse value
 861:../Firmware/GD32VF103_standard_peripheral/Source/gd32vf103_timer.c ****     \param[out] none
 862:../Firmware/GD32VF103_standard_peripheral/Source/gd32vf103_timer.c ****     \retval     none
 863:../Firmware/GD32VF103_standard_peripheral/Source/gd32vf103_timer.c **** */
GAS LISTING /tmp/ccVZQUdL.s 			page 49


 864:../Firmware/GD32VF103_standard_peripheral/Source/gd32vf103_timer.c **** void timer_channel_output_pulse_value_config(uint32_t timer_periph, uint16_t channel, uint32_t puls
 865:../Firmware/GD32VF103_standard_peripheral/Source/gd32vf103_timer.c **** {
 1686              		.loc 1 865 1
 1687              		.cfi_startproc
 1688              	.LVL88:
 866:../Firmware/GD32VF103_standard_peripheral/Source/gd32vf103_timer.c ****     switch(channel){
 1689              		.loc 1 866 5
 1690 0000 8947     		li	a5,2
 1691 0002 638FF500 		beq	a1,a5,.L105
 1692 0006 63E5B700 		bgtu	a1,a5,.L106
 1693 000a 89C9     		beq	a1,zero,.L112
 867:../Firmware/GD32VF103_standard_peripheral/Source/gd32vf103_timer.c ****     /* configure TIMER_CH_0 */
 868:../Firmware/GD32VF103_standard_peripheral/Source/gd32vf103_timer.c ****     case TIMER_CH_0:
 869:../Firmware/GD32VF103_standard_peripheral/Source/gd32vf103_timer.c ****         TIMER_CH0CV(timer_periph) = (uint32_t)pulse;
 870:../Firmware/GD32VF103_standard_peripheral/Source/gd32vf103_timer.c ****         break;
 871:../Firmware/GD32VF103_standard_peripheral/Source/gd32vf103_timer.c ****     /* configure TIMER_CH_1 */
 872:../Firmware/GD32VF103_standard_peripheral/Source/gd32vf103_timer.c ****     case TIMER_CH_1:
 873:../Firmware/GD32VF103_standard_peripheral/Source/gd32vf103_timer.c ****         TIMER_CH1CV(timer_periph) = (uint32_t)pulse;
 1694              		.loc 1 873 9
 1695              		.loc 1 873 35 is_stmt 0
 1696 000c 10DD     		sw	a2,56(a0)
 874:../Firmware/GD32VF103_standard_peripheral/Source/gd32vf103_timer.c ****         break;
 1697              		.loc 1 874 9 is_stmt 1
 1698 000e 8280     		ret
 1699              	.L106:
 866:../Firmware/GD32VF103_standard_peripheral/Source/gd32vf103_timer.c ****     switch(channel){
 1700              		.loc 1 866 5 is_stmt 0
 1701 0010 8D47     		li	a5,3
 1702 0012 6394F500 		bne	a1,a5,.L113
 875:../Firmware/GD32VF103_standard_peripheral/Source/gd32vf103_timer.c ****     /* configure TIMER_CH_2 */
 876:../Firmware/GD32VF103_standard_peripheral/Source/gd32vf103_timer.c ****     case TIMER_CH_2:
 877:../Firmware/GD32VF103_standard_peripheral/Source/gd32vf103_timer.c ****         TIMER_CH2CV(timer_periph) = (uint32_t)pulse;
 878:../Firmware/GD32VF103_standard_peripheral/Source/gd32vf103_timer.c ****         break;
 879:../Firmware/GD32VF103_standard_peripheral/Source/gd32vf103_timer.c ****     /* configure TIMER_CH_3 */
 880:../Firmware/GD32VF103_standard_peripheral/Source/gd32vf103_timer.c ****     case TIMER_CH_3:
 881:../Firmware/GD32VF103_standard_peripheral/Source/gd32vf103_timer.c ****          TIMER_CH3CV(timer_periph) = (uint32_t)pulse;
 1703              		.loc 1 881 10 is_stmt 1
 1704              		.loc 1 881 36 is_stmt 0
 1705 0016 30C1     		sw	a2,64(a0)
 882:../Firmware/GD32VF103_standard_peripheral/Source/gd32vf103_timer.c ****         break;
 1706              		.loc 1 882 9 is_stmt 1
 883:../Firmware/GD32VF103_standard_peripheral/Source/gd32vf103_timer.c ****     default:
 884:../Firmware/GD32VF103_standard_peripheral/Source/gd32vf103_timer.c ****         break;
 885:../Firmware/GD32VF103_standard_peripheral/Source/gd32vf103_timer.c ****     }
 886:../Firmware/GD32VF103_standard_peripheral/Source/gd32vf103_timer.c **** }
 1707              		.loc 1 886 1 is_stmt 0
 1708 0018 8280     		ret
 1709              	.L113:
 1710 001a 8280     		ret
 1711              	.L112:
 869:../Firmware/GD32VF103_standard_peripheral/Source/gd32vf103_timer.c ****         break;
 1712              		.loc 1 869 9 is_stmt 1
 869:../Firmware/GD32VF103_standard_peripheral/Source/gd32vf103_timer.c ****         break;
 1713              		.loc 1 869 35 is_stmt 0
 1714 001c 50D9     		sw	a2,52(a0)
 870:../Firmware/GD32VF103_standard_peripheral/Source/gd32vf103_timer.c ****     /* configure TIMER_CH_1 */
 1715              		.loc 1 870 9 is_stmt 1
GAS LISTING /tmp/ccVZQUdL.s 			page 50


 1716 001e 8280     		ret
 1717              	.L105:
 877:../Firmware/GD32VF103_standard_peripheral/Source/gd32vf103_timer.c ****         break;
 1718              		.loc 1 877 9
 877:../Firmware/GD32VF103_standard_peripheral/Source/gd32vf103_timer.c ****         break;
 1719              		.loc 1 877 35 is_stmt 0
 1720 0020 50DD     		sw	a2,60(a0)
 878:../Firmware/GD32VF103_standard_peripheral/Source/gd32vf103_timer.c ****     /* configure TIMER_CH_3 */
 1721              		.loc 1 878 9 is_stmt 1
 1722 0022 8280     		ret
 1723              		.cfi_endproc
 1724              	.LFE39:
 1726              		.section	.text.timer_channel_output_shadow_config,"ax",@progbits
 1727              		.align	1
 1728              		.globl	timer_channel_output_shadow_config
 1730              	timer_channel_output_shadow_config:
 1731              	.LFB40:
 887:../Firmware/GD32VF103_standard_peripheral/Source/gd32vf103_timer.c **** 
 888:../Firmware/GD32VF103_standard_peripheral/Source/gd32vf103_timer.c **** /*!
 889:../Firmware/GD32VF103_standard_peripheral/Source/gd32vf103_timer.c ****     \brief      configure TIMER channel output shadow function
 890:../Firmware/GD32VF103_standard_peripheral/Source/gd32vf103_timer.c ****     \param[in]  timer_periph: TIMERx(x=0..4)
 891:../Firmware/GD32VF103_standard_peripheral/Source/gd32vf103_timer.c ****     \param[in]  channel:
 892:../Firmware/GD32VF103_standard_peripheral/Source/gd32vf103_timer.c ****                 only one parameter can be selected which is shown as below:
 893:../Firmware/GD32VF103_standard_peripheral/Source/gd32vf103_timer.c ****       \arg        TIMER_CH_0: TIMER channel 0(TIMERx(x=0..4))
 894:../Firmware/GD32VF103_standard_peripheral/Source/gd32vf103_timer.c ****       \arg        TIMER_CH_1: TIMER channel 1(TIMERx(x=0..4))
 895:../Firmware/GD32VF103_standard_peripheral/Source/gd32vf103_timer.c ****       \arg        TIMER_CH_2: TIMER channel 2(TIMERx(x=0..4))
 896:../Firmware/GD32VF103_standard_peripheral/Source/gd32vf103_timer.c ****       \arg        TIMER_CH_3: TIMER channel 3(TIMERx(x=0..4))
 897:../Firmware/GD32VF103_standard_peripheral/Source/gd32vf103_timer.c ****     \param[in]  ocshadow: channel output shadow state
 898:../Firmware/GD32VF103_standard_peripheral/Source/gd32vf103_timer.c ****                 only one parameter can be selected which is shown as below:
 899:../Firmware/GD32VF103_standard_peripheral/Source/gd32vf103_timer.c ****       \arg        TIMER_OC_SHADOW_ENABLE: channel output shadow state enable
 900:../Firmware/GD32VF103_standard_peripheral/Source/gd32vf103_timer.c ****       \arg        TIMER_OC_SHADOW_DISABLE: channel output shadow state disable
 901:../Firmware/GD32VF103_standard_peripheral/Source/gd32vf103_timer.c ****     \param[out] none
 902:../Firmware/GD32VF103_standard_peripheral/Source/gd32vf103_timer.c ****     \retval     none
 903:../Firmware/GD32VF103_standard_peripheral/Source/gd32vf103_timer.c **** */
 904:../Firmware/GD32VF103_standard_peripheral/Source/gd32vf103_timer.c **** void timer_channel_output_shadow_config(uint32_t timer_periph, uint16_t channel, uint16_t ocshadow)
 905:../Firmware/GD32VF103_standard_peripheral/Source/gd32vf103_timer.c **** {
 1732              		.loc 1 905 1
 1733              		.cfi_startproc
 1734              	.LVL89:
 906:../Firmware/GD32VF103_standard_peripheral/Source/gd32vf103_timer.c ****     switch(channel){
 1735              		.loc 1 906 5
 1736 0000 8947     		li	a5,2
 1737 0002 6386F504 		beq	a1,a5,.L115
 1738 0006 63EEB700 		bgtu	a1,a5,.L116
 1739 000a 9DC9     		beq	a1,zero,.L122
 907:../Firmware/GD32VF103_standard_peripheral/Source/gd32vf103_timer.c ****     /* configure TIMER_CH_0 */
 908:../Firmware/GD32VF103_standard_peripheral/Source/gd32vf103_timer.c ****     case TIMER_CH_0:
 909:../Firmware/GD32VF103_standard_peripheral/Source/gd32vf103_timer.c ****         TIMER_CHCTL0(timer_periph) &= (~(uint32_t)TIMER_CHCTL0_CH0COMSEN);
 910:../Firmware/GD32VF103_standard_peripheral/Source/gd32vf103_timer.c ****         TIMER_CHCTL0(timer_periph) |= (uint32_t)ocshadow;
 911:../Firmware/GD32VF103_standard_peripheral/Source/gd32vf103_timer.c ****         break;
 912:../Firmware/GD32VF103_standard_peripheral/Source/gd32vf103_timer.c ****     /* configure TIMER_CH_1 */
 913:../Firmware/GD32VF103_standard_peripheral/Source/gd32vf103_timer.c ****     case TIMER_CH_1:
 914:../Firmware/GD32VF103_standard_peripheral/Source/gd32vf103_timer.c ****         TIMER_CHCTL0(timer_periph) &= (~(uint32_t)TIMER_CHCTL0_CH1COMSEN);
 1740              		.loc 1 914 9
 1741              		.loc 1 914 36 is_stmt 0
 1742 000c 1C4D     		lw	a5,24(a0)
 1743 000e 7D77     		li	a4,-4096
GAS LISTING /tmp/ccVZQUdL.s 			page 51


 1744 0010 1307F77F 		addi	a4,a4,2047
 1745 0014 F98F     		and	a5,a5,a4
 1746 0016 1CCD     		sw	a5,24(a0)
 915:../Firmware/GD32VF103_standard_peripheral/Source/gd32vf103_timer.c ****         TIMER_CHCTL0(timer_periph) |= (uint32_t)((uint32_t)(ocshadow) << 8U);
 1747              		.loc 1 915 9 is_stmt 1
 1748              		.loc 1 915 36 is_stmt 0
 1749 0018 1C4D     		lw	a5,24(a0)
 1750              		.loc 1 915 39
 1751 001a 2206     		slli	a2,a2,8
 1752              	.LVL90:
 1753              		.loc 1 915 36
 1754 001c 5D8E     		or	a2,a2,a5
 1755 001e 10CD     		sw	a2,24(a0)
 916:../Firmware/GD32VF103_standard_peripheral/Source/gd32vf103_timer.c ****         break;
 1756              		.loc 1 916 9 is_stmt 1
 1757 0020 8280     		ret
 1758              	.LVL91:
 1759              	.L116:
 906:../Firmware/GD32VF103_standard_peripheral/Source/gd32vf103_timer.c ****     /* configure TIMER_CH_0 */
 1760              		.loc 1 906 5 is_stmt 0
 1761 0022 8D47     		li	a5,3
 1762 0024 639DF500 		bne	a1,a5,.L123
 917:../Firmware/GD32VF103_standard_peripheral/Source/gd32vf103_timer.c ****     /* configure TIMER_CH_2 */
 918:../Firmware/GD32VF103_standard_peripheral/Source/gd32vf103_timer.c ****     case TIMER_CH_2:
 919:../Firmware/GD32VF103_standard_peripheral/Source/gd32vf103_timer.c ****         TIMER_CHCTL1(timer_periph) &= (~(uint32_t)TIMER_CHCTL1_CH2COMSEN);
 920:../Firmware/GD32VF103_standard_peripheral/Source/gd32vf103_timer.c ****         TIMER_CHCTL1(timer_periph) |= (uint32_t)ocshadow;
 921:../Firmware/GD32VF103_standard_peripheral/Source/gd32vf103_timer.c ****         break;
 922:../Firmware/GD32VF103_standard_peripheral/Source/gd32vf103_timer.c ****     /* configure TIMER_CH_3 */
 923:../Firmware/GD32VF103_standard_peripheral/Source/gd32vf103_timer.c ****     case TIMER_CH_3:
 924:../Firmware/GD32VF103_standard_peripheral/Source/gd32vf103_timer.c ****         TIMER_CHCTL1(timer_periph) &= (~(uint32_t)TIMER_CHCTL1_CH3COMSEN);
 1763              		.loc 1 924 9 is_stmt 1
 1764              		.loc 1 924 36 is_stmt 0
 1765 0028 5C4D     		lw	a5,28(a0)
 1766 002a 7D77     		li	a4,-4096
 1767 002c 1307F77F 		addi	a4,a4,2047
 1768 0030 F98F     		and	a5,a5,a4
 1769 0032 5CCD     		sw	a5,28(a0)
 925:../Firmware/GD32VF103_standard_peripheral/Source/gd32vf103_timer.c ****         TIMER_CHCTL1(timer_periph) |= (uint32_t)((uint32_t)(ocshadow) << 8U);
 1770              		.loc 1 925 9 is_stmt 1
 1771              		.loc 1 925 36 is_stmt 0
 1772 0034 5C4D     		lw	a5,28(a0)
 1773              		.loc 1 925 39
 1774 0036 2206     		slli	a2,a2,8
 1775              	.LVL92:
 1776              		.loc 1 925 36
 1777 0038 5D8E     		or	a2,a2,a5
 1778 003a 50CD     		sw	a2,28(a0)
 926:../Firmware/GD32VF103_standard_peripheral/Source/gd32vf103_timer.c ****         break;
 1779              		.loc 1 926 9 is_stmt 1
 927:../Firmware/GD32VF103_standard_peripheral/Source/gd32vf103_timer.c ****     default:
 928:../Firmware/GD32VF103_standard_peripheral/Source/gd32vf103_timer.c ****         break;
 929:../Firmware/GD32VF103_standard_peripheral/Source/gd32vf103_timer.c ****     }
 930:../Firmware/GD32VF103_standard_peripheral/Source/gd32vf103_timer.c **** }
 1780              		.loc 1 930 1 is_stmt 0
 1781 003c 8280     		ret
 1782              	.LVL93:
 1783              	.L123:
GAS LISTING /tmp/ccVZQUdL.s 			page 52


 1784 003e 8280     		ret
 1785              	.L122:
 909:../Firmware/GD32VF103_standard_peripheral/Source/gd32vf103_timer.c ****         TIMER_CHCTL0(timer_periph) |= (uint32_t)ocshadow;
 1786              		.loc 1 909 9 is_stmt 1
 909:../Firmware/GD32VF103_standard_peripheral/Source/gd32vf103_timer.c ****         TIMER_CHCTL0(timer_periph) |= (uint32_t)ocshadow;
 1787              		.loc 1 909 36 is_stmt 0
 1788 0040 1C4D     		lw	a5,24(a0)
 1789 0042 DD9B     		andi	a5,a5,-9
 1790 0044 1CCD     		sw	a5,24(a0)
 910:../Firmware/GD32VF103_standard_peripheral/Source/gd32vf103_timer.c ****         break;
 1791              		.loc 1 910 9 is_stmt 1
 910:../Firmware/GD32VF103_standard_peripheral/Source/gd32vf103_timer.c ****         break;
 1792              		.loc 1 910 36 is_stmt 0
 1793 0046 1C4D     		lw	a5,24(a0)
 1794 0048 5D8E     		or	a2,a2,a5
 1795              	.LVL94:
 1796 004a 10CD     		sw	a2,24(a0)
 911:../Firmware/GD32VF103_standard_peripheral/Source/gd32vf103_timer.c ****     /* configure TIMER_CH_1 */
 1797              		.loc 1 911 9 is_stmt 1
 1798 004c 8280     		ret
 1799              	.LVL95:
 1800              	.L115:
 919:../Firmware/GD32VF103_standard_peripheral/Source/gd32vf103_timer.c ****         TIMER_CHCTL1(timer_periph) |= (uint32_t)ocshadow;
 1801              		.loc 1 919 9
 919:../Firmware/GD32VF103_standard_peripheral/Source/gd32vf103_timer.c ****         TIMER_CHCTL1(timer_periph) |= (uint32_t)ocshadow;
 1802              		.loc 1 919 36 is_stmt 0
 1803 004e 5C4D     		lw	a5,28(a0)
 1804 0050 DD9B     		andi	a5,a5,-9
 1805 0052 5CCD     		sw	a5,28(a0)
 920:../Firmware/GD32VF103_standard_peripheral/Source/gd32vf103_timer.c ****         break;
 1806              		.loc 1 920 9 is_stmt 1
 920:../Firmware/GD32VF103_standard_peripheral/Source/gd32vf103_timer.c ****         break;
 1807              		.loc 1 920 36 is_stmt 0
 1808 0054 5C4D     		lw	a5,28(a0)
 1809 0056 5D8E     		or	a2,a2,a5
 1810              	.LVL96:
 1811 0058 50CD     		sw	a2,28(a0)
 921:../Firmware/GD32VF103_standard_peripheral/Source/gd32vf103_timer.c ****     /* configure TIMER_CH_3 */
 1812              		.loc 1 921 9 is_stmt 1
 1813 005a 8280     		ret
 1814              		.cfi_endproc
 1815              	.LFE40:
 1817              		.section	.text.timer_channel_output_fast_config,"ax",@progbits
 1818              		.align	1
 1819              		.globl	timer_channel_output_fast_config
 1821              	timer_channel_output_fast_config:
 1822              	.LFB41:
 931:../Firmware/GD32VF103_standard_peripheral/Source/gd32vf103_timer.c **** 
 932:../Firmware/GD32VF103_standard_peripheral/Source/gd32vf103_timer.c **** /*!
 933:../Firmware/GD32VF103_standard_peripheral/Source/gd32vf103_timer.c ****     \brief      configure TIMER channel output fast function
 934:../Firmware/GD32VF103_standard_peripheral/Source/gd32vf103_timer.c ****     \param[in]  timer_periph: TIMERx(x=0..4)
 935:../Firmware/GD32VF103_standard_peripheral/Source/gd32vf103_timer.c ****     \param[in]  channel:
 936:../Firmware/GD32VF103_standard_peripheral/Source/gd32vf103_timer.c ****                 only one parameter can be selected which is shown as below:
 937:../Firmware/GD32VF103_standard_peripheral/Source/gd32vf103_timer.c ****       \arg        TIMER_CH_0: TIMER channel 0(TIMERx(x=0..4))
 938:../Firmware/GD32VF103_standard_peripheral/Source/gd32vf103_timer.c ****       \arg        TIMER_CH_1: TIMER channel 1(TIMERx(x=0..4))
 939:../Firmware/GD32VF103_standard_peripheral/Source/gd32vf103_timer.c ****       \arg        TIMER_CH_2: TIMER channel 2(TIMERx(x=0..4))
 940:../Firmware/GD32VF103_standard_peripheral/Source/gd32vf103_timer.c ****       \arg        TIMER_CH_3: TIMER channel 3(TIMERx(x=0..4))
GAS LISTING /tmp/ccVZQUdL.s 			page 53


 941:../Firmware/GD32VF103_standard_peripheral/Source/gd32vf103_timer.c ****     \param[in]  ocfast: channel output fast function
 942:../Firmware/GD32VF103_standard_peripheral/Source/gd32vf103_timer.c ****                 only one parameter can be selected which is shown as below:
 943:../Firmware/GD32VF103_standard_peripheral/Source/gd32vf103_timer.c ****       \arg        TIMER_OC_FAST_ENABLE: channel output fast function enable
 944:../Firmware/GD32VF103_standard_peripheral/Source/gd32vf103_timer.c ****       \arg        TIMER_OC_FAST_DISABLE: channel output fast function disable
 945:../Firmware/GD32VF103_standard_peripheral/Source/gd32vf103_timer.c ****     \param[out] none
 946:../Firmware/GD32VF103_standard_peripheral/Source/gd32vf103_timer.c ****     \retval     none
 947:../Firmware/GD32VF103_standard_peripheral/Source/gd32vf103_timer.c **** */
 948:../Firmware/GD32VF103_standard_peripheral/Source/gd32vf103_timer.c **** void timer_channel_output_fast_config(uint32_t timer_periph, uint16_t channel, uint16_t ocfast)
 949:../Firmware/GD32VF103_standard_peripheral/Source/gd32vf103_timer.c **** {
 1823              		.loc 1 949 1
 1824              		.cfi_startproc
 1825              	.LVL97:
 950:../Firmware/GD32VF103_standard_peripheral/Source/gd32vf103_timer.c ****     switch(channel){
 1826              		.loc 1 950 5
 1827 0000 8947     		li	a5,2
 1828 0002 6382F504 		beq	a1,a5,.L125
 1829 0006 63ECB700 		bgtu	a1,a5,.L126
 1830 000a 9DC5     		beq	a1,zero,.L132
 951:../Firmware/GD32VF103_standard_peripheral/Source/gd32vf103_timer.c ****     /* configure TIMER_CH_0 */
 952:../Firmware/GD32VF103_standard_peripheral/Source/gd32vf103_timer.c ****     case TIMER_CH_0:
 953:../Firmware/GD32VF103_standard_peripheral/Source/gd32vf103_timer.c ****         TIMER_CHCTL0(timer_periph) &= (~(uint32_t)TIMER_CHCTL0_CH0COMFEN);
 954:../Firmware/GD32VF103_standard_peripheral/Source/gd32vf103_timer.c ****         TIMER_CHCTL0(timer_periph) |= (uint32_t)ocfast;
 955:../Firmware/GD32VF103_standard_peripheral/Source/gd32vf103_timer.c ****         break;
 956:../Firmware/GD32VF103_standard_peripheral/Source/gd32vf103_timer.c ****     /* configure TIMER_CH_1 */
 957:../Firmware/GD32VF103_standard_peripheral/Source/gd32vf103_timer.c ****     case TIMER_CH_1:
 958:../Firmware/GD32VF103_standard_peripheral/Source/gd32vf103_timer.c ****         TIMER_CHCTL0(timer_periph) &= (~(uint32_t)TIMER_CHCTL0_CH1COMFEN);
 1831              		.loc 1 958 9
 1832              		.loc 1 958 36 is_stmt 0
 1833 000c 1C4D     		lw	a5,24(a0)
 959:../Firmware/GD32VF103_standard_peripheral/Source/gd32vf103_timer.c ****         TIMER_CHCTL0(timer_periph) |= (uint32_t)((uint32_t)ocfast << 8U);
 1834              		.loc 1 959 39
 1835 000e 2206     		slli	a2,a2,8
 1836              	.LVL98:
 958:../Firmware/GD32VF103_standard_peripheral/Source/gd32vf103_timer.c ****         TIMER_CHCTL0(timer_periph) |= (uint32_t)((uint32_t)ocfast << 8U);
 1837              		.loc 1 958 36
 1838 0010 93F7F7BF 		andi	a5,a5,-1025
 1839 0014 1CCD     		sw	a5,24(a0)
 1840              		.loc 1 959 9 is_stmt 1
 1841              		.loc 1 959 36 is_stmt 0
 1842 0016 1C4D     		lw	a5,24(a0)
 1843 0018 5D8E     		or	a2,a2,a5
 1844 001a 10CD     		sw	a2,24(a0)
 960:../Firmware/GD32VF103_standard_peripheral/Source/gd32vf103_timer.c ****         break;
 1845              		.loc 1 960 9 is_stmt 1
 1846 001c 8280     		ret
 1847              	.LVL99:
 1848              	.L126:
 950:../Firmware/GD32VF103_standard_peripheral/Source/gd32vf103_timer.c ****     /* configure TIMER_CH_0 */
 1849              		.loc 1 950 5 is_stmt 0
 1850 001e 8D47     		li	a5,3
 1851 0020 639BF500 		bne	a1,a5,.L133
 961:../Firmware/GD32VF103_standard_peripheral/Source/gd32vf103_timer.c ****     /* configure TIMER_CH_2 */
 962:../Firmware/GD32VF103_standard_peripheral/Source/gd32vf103_timer.c ****     case TIMER_CH_2:
 963:../Firmware/GD32VF103_standard_peripheral/Source/gd32vf103_timer.c ****         TIMER_CHCTL1(timer_periph) &= (~(uint32_t)TIMER_CHCTL1_CH2COMFEN);
 964:../Firmware/GD32VF103_standard_peripheral/Source/gd32vf103_timer.c ****         TIMER_CHCTL1(timer_periph) |= (uint32_t)ocfast;
 965:../Firmware/GD32VF103_standard_peripheral/Source/gd32vf103_timer.c ****         break;
 966:../Firmware/GD32VF103_standard_peripheral/Source/gd32vf103_timer.c ****     /* configure TIMER_CH_3 */
GAS LISTING /tmp/ccVZQUdL.s 			page 54


 967:../Firmware/GD32VF103_standard_peripheral/Source/gd32vf103_timer.c ****     case TIMER_CH_3:
 968:../Firmware/GD32VF103_standard_peripheral/Source/gd32vf103_timer.c ****         TIMER_CHCTL1(timer_periph) &= (~(uint32_t)TIMER_CHCTL1_CH3COMFEN);
 1852              		.loc 1 968 9 is_stmt 1
 1853              		.loc 1 968 36 is_stmt 0
 1854 0024 5C4D     		lw	a5,28(a0)
 969:../Firmware/GD32VF103_standard_peripheral/Source/gd32vf103_timer.c ****         TIMER_CHCTL1(timer_periph) |= (uint32_t)((uint32_t)ocfast << 8U);
 1855              		.loc 1 969 39
 1856 0026 2206     		slli	a2,a2,8
 1857              	.LVL100:
 968:../Firmware/GD32VF103_standard_peripheral/Source/gd32vf103_timer.c ****         TIMER_CHCTL1(timer_periph) |= (uint32_t)((uint32_t)ocfast << 8U);
 1858              		.loc 1 968 36
 1859 0028 93F7F7BF 		andi	a5,a5,-1025
 1860 002c 5CCD     		sw	a5,28(a0)
 1861              		.loc 1 969 9 is_stmt 1
 1862              		.loc 1 969 36 is_stmt 0
 1863 002e 5C4D     		lw	a5,28(a0)
 1864 0030 5D8E     		or	a2,a2,a5
 1865 0032 50CD     		sw	a2,28(a0)
 970:../Firmware/GD32VF103_standard_peripheral/Source/gd32vf103_timer.c ****         break;
 1866              		.loc 1 970 9 is_stmt 1
 971:../Firmware/GD32VF103_standard_peripheral/Source/gd32vf103_timer.c ****     default:
 972:../Firmware/GD32VF103_standard_peripheral/Source/gd32vf103_timer.c ****         break;
 973:../Firmware/GD32VF103_standard_peripheral/Source/gd32vf103_timer.c ****     }
 974:../Firmware/GD32VF103_standard_peripheral/Source/gd32vf103_timer.c **** }
 1867              		.loc 1 974 1 is_stmt 0
 1868 0034 8280     		ret
 1869              	.LVL101:
 1870              	.L133:
 1871 0036 8280     		ret
 1872              	.L132:
 953:../Firmware/GD32VF103_standard_peripheral/Source/gd32vf103_timer.c ****         TIMER_CHCTL0(timer_periph) |= (uint32_t)ocfast;
 1873              		.loc 1 953 9 is_stmt 1
 953:../Firmware/GD32VF103_standard_peripheral/Source/gd32vf103_timer.c ****         TIMER_CHCTL0(timer_periph) |= (uint32_t)ocfast;
 1874              		.loc 1 953 36 is_stmt 0
 1875 0038 1C4D     		lw	a5,24(a0)
 1876 003a ED9B     		andi	a5,a5,-5
 1877 003c 1CCD     		sw	a5,24(a0)
 954:../Firmware/GD32VF103_standard_peripheral/Source/gd32vf103_timer.c ****         break;
 1878              		.loc 1 954 9 is_stmt 1
 954:../Firmware/GD32VF103_standard_peripheral/Source/gd32vf103_timer.c ****         break;
 1879              		.loc 1 954 36 is_stmt 0
 1880 003e 1C4D     		lw	a5,24(a0)
 1881 0040 5D8E     		or	a2,a2,a5
 1882              	.LVL102:
 1883 0042 10CD     		sw	a2,24(a0)
 955:../Firmware/GD32VF103_standard_peripheral/Source/gd32vf103_timer.c ****     /* configure TIMER_CH_1 */
 1884              		.loc 1 955 9 is_stmt 1
 1885 0044 8280     		ret
 1886              	.LVL103:
 1887              	.L125:
 963:../Firmware/GD32VF103_standard_peripheral/Source/gd32vf103_timer.c ****         TIMER_CHCTL1(timer_periph) |= (uint32_t)ocfast;
 1888              		.loc 1 963 9
 963:../Firmware/GD32VF103_standard_peripheral/Source/gd32vf103_timer.c ****         TIMER_CHCTL1(timer_periph) |= (uint32_t)ocfast;
 1889              		.loc 1 963 36 is_stmt 0
 1890 0046 5C4D     		lw	a5,28(a0)
 1891 0048 ED9B     		andi	a5,a5,-5
 1892 004a 5CCD     		sw	a5,28(a0)
GAS LISTING /tmp/ccVZQUdL.s 			page 55


 964:../Firmware/GD32VF103_standard_peripheral/Source/gd32vf103_timer.c ****         break;
 1893              		.loc 1 964 9 is_stmt 1
 964:../Firmware/GD32VF103_standard_peripheral/Source/gd32vf103_timer.c ****         break;
 1894              		.loc 1 964 36 is_stmt 0
 1895 004c 5C4D     		lw	a5,28(a0)
 1896 004e 5D8E     		or	a2,a2,a5
 1897              	.LVL104:
 1898 0050 50CD     		sw	a2,28(a0)
 965:../Firmware/GD32VF103_standard_peripheral/Source/gd32vf103_timer.c ****     /* configure TIMER_CH_3 */
 1899              		.loc 1 965 9 is_stmt 1
 1900 0052 8280     		ret
 1901              		.cfi_endproc
 1902              	.LFE41:
 1904              		.section	.text.timer_channel_output_clear_config,"ax",@progbits
 1905              		.align	1
 1906              		.globl	timer_channel_output_clear_config
 1908              	timer_channel_output_clear_config:
 1909              	.LFB42:
 975:../Firmware/GD32VF103_standard_peripheral/Source/gd32vf103_timer.c **** 
 976:../Firmware/GD32VF103_standard_peripheral/Source/gd32vf103_timer.c **** /*!
 977:../Firmware/GD32VF103_standard_peripheral/Source/gd32vf103_timer.c ****     \brief      configure TIMER channel output clear function
 978:../Firmware/GD32VF103_standard_peripheral/Source/gd32vf103_timer.c ****     \param[in]  timer_periph: TIMERx(x=0..4)
 979:../Firmware/GD32VF103_standard_peripheral/Source/gd32vf103_timer.c ****     \param[in]  channel:
 980:../Firmware/GD32VF103_standard_peripheral/Source/gd32vf103_timer.c ****                 only one parameter can be selected which is shown as below:
 981:../Firmware/GD32VF103_standard_peripheral/Source/gd32vf103_timer.c ****       \arg        TIMER_CH_0: TIMER channel 0(TIMERx(x=0..4))
 982:../Firmware/GD32VF103_standard_peripheral/Source/gd32vf103_timer.c ****       \arg        TIMER_CH_1: TIMER channel 1(TIMERx(x=0..41))
 983:../Firmware/GD32VF103_standard_peripheral/Source/gd32vf103_timer.c ****       \arg        TIMER_CH_2: TIMER channel 2(TIMERx(x=0..4))
 984:../Firmware/GD32VF103_standard_peripheral/Source/gd32vf103_timer.c ****       \arg        TIMER_CH_3: TIMER channel 3(TIMERx(x=0..4))
 985:../Firmware/GD32VF103_standard_peripheral/Source/gd32vf103_timer.c ****     \param[in]  occlear: channel output clear function
 986:../Firmware/GD32VF103_standard_peripheral/Source/gd32vf103_timer.c ****                 only one parameter can be selected which is shown as below:
 987:../Firmware/GD32VF103_standard_peripheral/Source/gd32vf103_timer.c ****       \arg        TIMER_OC_CLEAR_ENABLE: channel output clear function enable
 988:../Firmware/GD32VF103_standard_peripheral/Source/gd32vf103_timer.c ****       \arg        TIMER_OC_CLEAR_DISABLE: channel output clear function disable
 989:../Firmware/GD32VF103_standard_peripheral/Source/gd32vf103_timer.c ****     \param[out] none
 990:../Firmware/GD32VF103_standard_peripheral/Source/gd32vf103_timer.c ****     \retval     none
 991:../Firmware/GD32VF103_standard_peripheral/Source/gd32vf103_timer.c **** */
 992:../Firmware/GD32VF103_standard_peripheral/Source/gd32vf103_timer.c **** void timer_channel_output_clear_config(uint32_t timer_periph, uint16_t channel, uint16_t occlear)
 993:../Firmware/GD32VF103_standard_peripheral/Source/gd32vf103_timer.c **** {
 1910              		.loc 1 993 1
 1911              		.cfi_startproc
 1912              	.LVL105:
 994:../Firmware/GD32VF103_standard_peripheral/Source/gd32vf103_timer.c ****     switch(channel){
 1913              		.loc 1 994 5
 1914 0000 8947     		li	a5,2
 1915 0002 6385F504 		beq	a1,a5,.L135
 1916 0006 63EDB700 		bgtu	a1,a5,.L136
 1917 000a 8DC9     		beq	a1,zero,.L142
 995:../Firmware/GD32VF103_standard_peripheral/Source/gd32vf103_timer.c ****     /* configure TIMER_CH_0 */
 996:../Firmware/GD32VF103_standard_peripheral/Source/gd32vf103_timer.c ****     case TIMER_CH_0:
 997:../Firmware/GD32VF103_standard_peripheral/Source/gd32vf103_timer.c ****         TIMER_CHCTL0(timer_periph) &= (~(uint32_t)TIMER_CHCTL0_CH0COMCEN);
 998:../Firmware/GD32VF103_standard_peripheral/Source/gd32vf103_timer.c ****         TIMER_CHCTL0(timer_periph) |= (uint32_t)occlear;
 999:../Firmware/GD32VF103_standard_peripheral/Source/gd32vf103_timer.c ****         break;
1000:../Firmware/GD32VF103_standard_peripheral/Source/gd32vf103_timer.c ****     /* configure TIMER_CH_1 */
1001:../Firmware/GD32VF103_standard_peripheral/Source/gd32vf103_timer.c ****     case TIMER_CH_1:
1002:../Firmware/GD32VF103_standard_peripheral/Source/gd32vf103_timer.c ****         TIMER_CHCTL0(timer_periph) &= (~(uint32_t)TIMER_CHCTL0_CH1COMCEN);
 1918              		.loc 1 1002 9
 1919              		.loc 1 1002 36 is_stmt 0
 1920 000c 1C4D     		lw	a5,24(a0)
GAS LISTING /tmp/ccVZQUdL.s 			page 56


 1921 000e 6177     		li	a4,-32768
 1922 0010 7D17     		addi	a4,a4,-1
 1923 0012 F98F     		and	a5,a5,a4
 1924 0014 1CCD     		sw	a5,24(a0)
1003:../Firmware/GD32VF103_standard_peripheral/Source/gd32vf103_timer.c ****         TIMER_CHCTL0(timer_periph) |= (uint32_t)((uint32_t)occlear << 8U);
 1925              		.loc 1 1003 9 is_stmt 1
 1926              		.loc 1 1003 36 is_stmt 0
 1927 0016 1C4D     		lw	a5,24(a0)
 1928              		.loc 1 1003 39
 1929 0018 2206     		slli	a2,a2,8
 1930              	.LVL106:
 1931              		.loc 1 1003 36
 1932 001a 5D8E     		or	a2,a2,a5
 1933 001c 10CD     		sw	a2,24(a0)
1004:../Firmware/GD32VF103_standard_peripheral/Source/gd32vf103_timer.c ****         break;
 1934              		.loc 1 1004 9 is_stmt 1
 1935 001e 8280     		ret
 1936              	.LVL107:
 1937              	.L136:
 994:../Firmware/GD32VF103_standard_peripheral/Source/gd32vf103_timer.c ****     /* configure TIMER_CH_0 */
 1938              		.loc 1 994 5 is_stmt 0
 1939 0020 8D47     		li	a5,3
 1940 0022 639CF500 		bne	a1,a5,.L143
1005:../Firmware/GD32VF103_standard_peripheral/Source/gd32vf103_timer.c ****     /* configure TIMER_CH_2 */
1006:../Firmware/GD32VF103_standard_peripheral/Source/gd32vf103_timer.c ****     case TIMER_CH_2:
1007:../Firmware/GD32VF103_standard_peripheral/Source/gd32vf103_timer.c ****         TIMER_CHCTL1(timer_periph) &= (~(uint32_t)TIMER_CHCTL1_CH2COMCEN);
1008:../Firmware/GD32VF103_standard_peripheral/Source/gd32vf103_timer.c ****         TIMER_CHCTL1(timer_periph) |= (uint32_t)occlear;
1009:../Firmware/GD32VF103_standard_peripheral/Source/gd32vf103_timer.c ****         break;
1010:../Firmware/GD32VF103_standard_peripheral/Source/gd32vf103_timer.c ****     /* configure TIMER_CH_3 */
1011:../Firmware/GD32VF103_standard_peripheral/Source/gd32vf103_timer.c ****     case TIMER_CH_3:
1012:../Firmware/GD32VF103_standard_peripheral/Source/gd32vf103_timer.c ****         TIMER_CHCTL1(timer_periph) &= (~(uint32_t)TIMER_CHCTL1_CH3COMCEN);
 1941              		.loc 1 1012 9 is_stmt 1
 1942              		.loc 1 1012 36 is_stmt 0
 1943 0026 5C4D     		lw	a5,28(a0)
 1944 0028 6177     		li	a4,-32768
 1945 002a 7D17     		addi	a4,a4,-1
 1946 002c F98F     		and	a5,a5,a4
 1947 002e 5CCD     		sw	a5,28(a0)
1013:../Firmware/GD32VF103_standard_peripheral/Source/gd32vf103_timer.c ****         TIMER_CHCTL1(timer_periph) |= (uint32_t)((uint32_t)occlear << 8U);
 1948              		.loc 1 1013 9 is_stmt 1
 1949              		.loc 1 1013 36 is_stmt 0
 1950 0030 5C4D     		lw	a5,28(a0)
 1951              		.loc 1 1013 39
 1952 0032 2206     		slli	a2,a2,8
 1953              	.LVL108:
 1954              		.loc 1 1013 36
 1955 0034 5D8E     		or	a2,a2,a5
 1956 0036 50CD     		sw	a2,28(a0)
1014:../Firmware/GD32VF103_standard_peripheral/Source/gd32vf103_timer.c ****         break;
 1957              		.loc 1 1014 9 is_stmt 1
1015:../Firmware/GD32VF103_standard_peripheral/Source/gd32vf103_timer.c ****     default:
1016:../Firmware/GD32VF103_standard_peripheral/Source/gd32vf103_timer.c ****         break;
1017:../Firmware/GD32VF103_standard_peripheral/Source/gd32vf103_timer.c ****     }
1018:../Firmware/GD32VF103_standard_peripheral/Source/gd32vf103_timer.c **** }
 1958              		.loc 1 1018 1 is_stmt 0
 1959 0038 8280     		ret
 1960              	.LVL109:
GAS LISTING /tmp/ccVZQUdL.s 			page 57


 1961              	.L143:
 1962 003a 8280     		ret
 1963              	.L142:
 997:../Firmware/GD32VF103_standard_peripheral/Source/gd32vf103_timer.c ****         TIMER_CHCTL0(timer_periph) |= (uint32_t)occlear;
 1964              		.loc 1 997 9 is_stmt 1
 997:../Firmware/GD32VF103_standard_peripheral/Source/gd32vf103_timer.c ****         TIMER_CHCTL0(timer_periph) |= (uint32_t)occlear;
 1965              		.loc 1 997 36 is_stmt 0
 1966 003c 1C4D     		lw	a5,24(a0)
 1967 003e 93F7F7F7 		andi	a5,a5,-129
 1968 0042 1CCD     		sw	a5,24(a0)
 998:../Firmware/GD32VF103_standard_peripheral/Source/gd32vf103_timer.c ****         break;
 1969              		.loc 1 998 9 is_stmt 1
 998:../Firmware/GD32VF103_standard_peripheral/Source/gd32vf103_timer.c ****         break;
 1970              		.loc 1 998 36 is_stmt 0
 1971 0044 1C4D     		lw	a5,24(a0)
 1972 0046 5D8E     		or	a2,a2,a5
 1973              	.LVL110:
 1974 0048 10CD     		sw	a2,24(a0)
 999:../Firmware/GD32VF103_standard_peripheral/Source/gd32vf103_timer.c ****     /* configure TIMER_CH_1 */
 1975              		.loc 1 999 9 is_stmt 1
 1976 004a 8280     		ret
 1977              	.LVL111:
 1978              	.L135:
1007:../Firmware/GD32VF103_standard_peripheral/Source/gd32vf103_timer.c ****         TIMER_CHCTL1(timer_periph) |= (uint32_t)occlear;
 1979              		.loc 1 1007 9
1007:../Firmware/GD32VF103_standard_peripheral/Source/gd32vf103_timer.c ****         TIMER_CHCTL1(timer_periph) |= (uint32_t)occlear;
 1980              		.loc 1 1007 36 is_stmt 0
 1981 004c 5C4D     		lw	a5,28(a0)
 1982 004e 93F7F7F7 		andi	a5,a5,-129
 1983 0052 5CCD     		sw	a5,28(a0)
1008:../Firmware/GD32VF103_standard_peripheral/Source/gd32vf103_timer.c ****         break;
 1984              		.loc 1 1008 9 is_stmt 1
1008:../Firmware/GD32VF103_standard_peripheral/Source/gd32vf103_timer.c ****         break;
 1985              		.loc 1 1008 36 is_stmt 0
 1986 0054 5C4D     		lw	a5,28(a0)
 1987 0056 5D8E     		or	a2,a2,a5
 1988              	.LVL112:
 1989 0058 50CD     		sw	a2,28(a0)
1009:../Firmware/GD32VF103_standard_peripheral/Source/gd32vf103_timer.c ****     /* configure TIMER_CH_3 */
 1990              		.loc 1 1009 9 is_stmt 1
 1991 005a 8280     		ret
 1992              		.cfi_endproc
 1993              	.LFE42:
 1995              		.section	.text.timer_channel_output_polarity_config,"ax",@progbits
 1996              		.align	1
 1997              		.globl	timer_channel_output_polarity_config
 1999              	timer_channel_output_polarity_config:
 2000              	.LFB43:
1019:../Firmware/GD32VF103_standard_peripheral/Source/gd32vf103_timer.c **** 
1020:../Firmware/GD32VF103_standard_peripheral/Source/gd32vf103_timer.c **** /*!
1021:../Firmware/GD32VF103_standard_peripheral/Source/gd32vf103_timer.c ****     \brief      configure TIMER channel output polarity 
1022:../Firmware/GD32VF103_standard_peripheral/Source/gd32vf103_timer.c ****     \param[in]  timer_periph: TIMERx(x=0..4)
1023:../Firmware/GD32VF103_standard_peripheral/Source/gd32vf103_timer.c ****     \param[in]  channel:
1024:../Firmware/GD32VF103_standard_peripheral/Source/gd32vf103_timer.c ****                 only one parameter can be selected which is shown as below:
1025:../Firmware/GD32VF103_standard_peripheral/Source/gd32vf103_timer.c ****       \arg        TIMER_CH_0: TIMER channel 0(TIMERx(x=0..4))
1026:../Firmware/GD32VF103_standard_peripheral/Source/gd32vf103_timer.c ****       \arg        TIMER_CH_1: TIMER channel 1(TIMERx(x=0..4))
1027:../Firmware/GD32VF103_standard_peripheral/Source/gd32vf103_timer.c ****       \arg        TIMER_CH_2: TIMER channel 2(TIMERx(x=0..4))
GAS LISTING /tmp/ccVZQUdL.s 			page 58


1028:../Firmware/GD32VF103_standard_peripheral/Source/gd32vf103_timer.c ****       \arg        TIMER_CH_3: TIMER channel 3(TIMERx(x=0..4))
1029:../Firmware/GD32VF103_standard_peripheral/Source/gd32vf103_timer.c ****     \param[in]  ocpolarity: channel output polarity
1030:../Firmware/GD32VF103_standard_peripheral/Source/gd32vf103_timer.c ****                 only one parameter can be selected which is shown as below:
1031:../Firmware/GD32VF103_standard_peripheral/Source/gd32vf103_timer.c ****       \arg        TIMER_OC_POLARITY_HIGH: channel output polarity is high
1032:../Firmware/GD32VF103_standard_peripheral/Source/gd32vf103_timer.c ****       \arg        TIMER_OC_POLARITY_LOW: channel output polarity is low
1033:../Firmware/GD32VF103_standard_peripheral/Source/gd32vf103_timer.c ****     \param[out] none
1034:../Firmware/GD32VF103_standard_peripheral/Source/gd32vf103_timer.c ****     \retval     none
1035:../Firmware/GD32VF103_standard_peripheral/Source/gd32vf103_timer.c **** */
1036:../Firmware/GD32VF103_standard_peripheral/Source/gd32vf103_timer.c **** void timer_channel_output_polarity_config(uint32_t timer_periph, uint16_t channel, uint16_t ocpolar
1037:../Firmware/GD32VF103_standard_peripheral/Source/gd32vf103_timer.c **** {
 2001              		.loc 1 1037 1
 2002              		.cfi_startproc
 2003              	.LVL113:
1038:../Firmware/GD32VF103_standard_peripheral/Source/gd32vf103_timer.c ****     switch(channel){
 2004              		.loc 1 1038 5
 2005 0000 8947     		li	a5,2
 2006 0002 6383F504 		beq	a1,a5,.L145
 2007 0006 63ECB700 		bgtu	a1,a5,.L146
 2008 000a 85C9     		beq	a1,zero,.L152
1039:../Firmware/GD32VF103_standard_peripheral/Source/gd32vf103_timer.c ****     /* configure TIMER_CH_0 */
1040:../Firmware/GD32VF103_standard_peripheral/Source/gd32vf103_timer.c ****     case TIMER_CH_0:
1041:../Firmware/GD32VF103_standard_peripheral/Source/gd32vf103_timer.c ****         TIMER_CHCTL2(timer_periph) &= (~(uint32_t)TIMER_CHCTL2_CH0P);
1042:../Firmware/GD32VF103_standard_peripheral/Source/gd32vf103_timer.c ****         TIMER_CHCTL2(timer_periph) |= (uint32_t)ocpolarity;
1043:../Firmware/GD32VF103_standard_peripheral/Source/gd32vf103_timer.c ****         break;
1044:../Firmware/GD32VF103_standard_peripheral/Source/gd32vf103_timer.c ****     /* configure TIMER_CH_1 */
1045:../Firmware/GD32VF103_standard_peripheral/Source/gd32vf103_timer.c ****     case TIMER_CH_1:
1046:../Firmware/GD32VF103_standard_peripheral/Source/gd32vf103_timer.c ****         TIMER_CHCTL2(timer_periph) &= (~(uint32_t)TIMER_CHCTL2_CH1P);
 2009              		.loc 1 1046 9
 2010              		.loc 1 1046 36 is_stmt 0
 2011 000c 1C51     		lw	a5,32(a0)
1047:../Firmware/GD32VF103_standard_peripheral/Source/gd32vf103_timer.c ****         TIMER_CHCTL2(timer_periph) |= (uint32_t)((uint32_t)ocpolarity << 4U);
 2012              		.loc 1 1047 39
 2013 000e 1206     		slli	a2,a2,4
 2014              	.LVL114:
1046:../Firmware/GD32VF103_standard_peripheral/Source/gd32vf103_timer.c ****         TIMER_CHCTL2(timer_periph) |= (uint32_t)((uint32_t)ocpolarity << 4U);
 2015              		.loc 1 1046 36
 2016 0010 93F7F7FD 		andi	a5,a5,-33
 2017 0014 1CD1     		sw	a5,32(a0)
 2018              		.loc 1 1047 9 is_stmt 1
 2019              		.loc 1 1047 36 is_stmt 0
 2020 0016 1C51     		lw	a5,32(a0)
 2021 0018 5D8E     		or	a2,a2,a5
 2022 001a 10D1     		sw	a2,32(a0)
1048:../Firmware/GD32VF103_standard_peripheral/Source/gd32vf103_timer.c ****         break;
 2023              		.loc 1 1048 9 is_stmt 1
 2024 001c 8280     		ret
 2025              	.LVL115:
 2026              	.L146:
1038:../Firmware/GD32VF103_standard_peripheral/Source/gd32vf103_timer.c ****     /* configure TIMER_CH_0 */
 2027              		.loc 1 1038 5 is_stmt 0
 2028 001e 8D47     		li	a5,3
 2029 0020 639CF500 		bne	a1,a5,.L153
1049:../Firmware/GD32VF103_standard_peripheral/Source/gd32vf103_timer.c ****     /* configure TIMER_CH_2 */
1050:../Firmware/GD32VF103_standard_peripheral/Source/gd32vf103_timer.c ****     case TIMER_CH_2:
1051:../Firmware/GD32VF103_standard_peripheral/Source/gd32vf103_timer.c ****         TIMER_CHCTL2(timer_periph) &= (~(uint32_t)TIMER_CHCTL2_CH2P);
1052:../Firmware/GD32VF103_standard_peripheral/Source/gd32vf103_timer.c ****         TIMER_CHCTL2(timer_periph) |= (uint32_t)((uint32_t)ocpolarity << 8U);
1053:../Firmware/GD32VF103_standard_peripheral/Source/gd32vf103_timer.c ****         break;
GAS LISTING /tmp/ccVZQUdL.s 			page 59


1054:../Firmware/GD32VF103_standard_peripheral/Source/gd32vf103_timer.c ****     /* configure TIMER_CH_3 */
1055:../Firmware/GD32VF103_standard_peripheral/Source/gd32vf103_timer.c ****     case TIMER_CH_3:
1056:../Firmware/GD32VF103_standard_peripheral/Source/gd32vf103_timer.c ****         TIMER_CHCTL2(timer_periph) &= (~(uint32_t)TIMER_CHCTL2_CH3P);
 2030              		.loc 1 1056 9 is_stmt 1
 2031              		.loc 1 1056 36 is_stmt 0
 2032 0024 1C51     		lw	a5,32(a0)
 2033 0026 7977     		li	a4,-8192
 2034 0028 7D17     		addi	a4,a4,-1
 2035 002a F98F     		and	a5,a5,a4
 2036 002c 1CD1     		sw	a5,32(a0)
1057:../Firmware/GD32VF103_standard_peripheral/Source/gd32vf103_timer.c ****         TIMER_CHCTL2(timer_periph) |= (uint32_t)((uint32_t)ocpolarity << 12U);
 2037              		.loc 1 1057 9 is_stmt 1
 2038              		.loc 1 1057 36 is_stmt 0
 2039 002e 1C51     		lw	a5,32(a0)
 2040              		.loc 1 1057 39
 2041 0030 3206     		slli	a2,a2,12
 2042              	.LVL116:
 2043              		.loc 1 1057 36
 2044 0032 5D8E     		or	a2,a2,a5
 2045 0034 10D1     		sw	a2,32(a0)
1058:../Firmware/GD32VF103_standard_peripheral/Source/gd32vf103_timer.c ****         break;
 2046              		.loc 1 1058 9 is_stmt 1
1059:../Firmware/GD32VF103_standard_peripheral/Source/gd32vf103_timer.c ****     default:
1060:../Firmware/GD32VF103_standard_peripheral/Source/gd32vf103_timer.c ****         break;
1061:../Firmware/GD32VF103_standard_peripheral/Source/gd32vf103_timer.c ****     }
1062:../Firmware/GD32VF103_standard_peripheral/Source/gd32vf103_timer.c **** }
 2047              		.loc 1 1062 1 is_stmt 0
 2048 0036 8280     		ret
 2049              	.LVL117:
 2050              	.L153:
 2051 0038 8280     		ret
 2052              	.L152:
1041:../Firmware/GD32VF103_standard_peripheral/Source/gd32vf103_timer.c ****         TIMER_CHCTL2(timer_periph) |= (uint32_t)ocpolarity;
 2053              		.loc 1 1041 9 is_stmt 1
1041:../Firmware/GD32VF103_standard_peripheral/Source/gd32vf103_timer.c ****         TIMER_CHCTL2(timer_periph) |= (uint32_t)ocpolarity;
 2054              		.loc 1 1041 36 is_stmt 0
 2055 003a 1C51     		lw	a5,32(a0)
 2056 003c F59B     		andi	a5,a5,-3
 2057 003e 1CD1     		sw	a5,32(a0)
1042:../Firmware/GD32VF103_standard_peripheral/Source/gd32vf103_timer.c ****         break;
 2058              		.loc 1 1042 9 is_stmt 1
1042:../Firmware/GD32VF103_standard_peripheral/Source/gd32vf103_timer.c ****         break;
 2059              		.loc 1 1042 36 is_stmt 0
 2060 0040 1C51     		lw	a5,32(a0)
 2061 0042 5D8E     		or	a2,a2,a5
 2062              	.LVL118:
 2063 0044 10D1     		sw	a2,32(a0)
1043:../Firmware/GD32VF103_standard_peripheral/Source/gd32vf103_timer.c ****     /* configure TIMER_CH_1 */
 2064              		.loc 1 1043 9 is_stmt 1
 2065 0046 8280     		ret
 2066              	.LVL119:
 2067              	.L145:
1051:../Firmware/GD32VF103_standard_peripheral/Source/gd32vf103_timer.c ****         TIMER_CHCTL2(timer_periph) |= (uint32_t)((uint32_t)ocpolarity << 8U);
 2068              		.loc 1 1051 9
1051:../Firmware/GD32VF103_standard_peripheral/Source/gd32vf103_timer.c ****         TIMER_CHCTL2(timer_periph) |= (uint32_t)((uint32_t)ocpolarity << 8U);
 2069              		.loc 1 1051 36 is_stmt 0
 2070 0048 1C51     		lw	a5,32(a0)
GAS LISTING /tmp/ccVZQUdL.s 			page 60


1052:../Firmware/GD32VF103_standard_peripheral/Source/gd32vf103_timer.c ****         break;
 2071              		.loc 1 1052 39
 2072 004a 2206     		slli	a2,a2,8
 2073              	.LVL120:
1051:../Firmware/GD32VF103_standard_peripheral/Source/gd32vf103_timer.c ****         TIMER_CHCTL2(timer_periph) |= (uint32_t)((uint32_t)ocpolarity << 8U);
 2074              		.loc 1 1051 36
 2075 004c 93F7F7DF 		andi	a5,a5,-513
 2076 0050 1CD1     		sw	a5,32(a0)
1052:../Firmware/GD32VF103_standard_peripheral/Source/gd32vf103_timer.c ****         break;
 2077              		.loc 1 1052 9 is_stmt 1
1052:../Firmware/GD32VF103_standard_peripheral/Source/gd32vf103_timer.c ****         break;
 2078              		.loc 1 1052 36 is_stmt 0
 2079 0052 1C51     		lw	a5,32(a0)
 2080 0054 5D8E     		or	a2,a2,a5
 2081 0056 10D1     		sw	a2,32(a0)
1053:../Firmware/GD32VF103_standard_peripheral/Source/gd32vf103_timer.c ****     /* configure TIMER_CH_3 */
 2082              		.loc 1 1053 9 is_stmt 1
 2083 0058 8280     		ret
 2084              		.cfi_endproc
 2085              	.LFE43:
 2087              		.section	.text.timer_channel_complementary_output_polarity_config,"ax",@progbits
 2088              		.align	1
 2089              		.globl	timer_channel_complementary_output_polarity_config
 2091              	timer_channel_complementary_output_polarity_config:
 2092              	.LFB44:
1063:../Firmware/GD32VF103_standard_peripheral/Source/gd32vf103_timer.c **** 
1064:../Firmware/GD32VF103_standard_peripheral/Source/gd32vf103_timer.c **** /*!
1065:../Firmware/GD32VF103_standard_peripheral/Source/gd32vf103_timer.c ****     \brief      configure TIMER channel complementary output polarity 
1066:../Firmware/GD32VF103_standard_peripheral/Source/gd32vf103_timer.c ****     \param[in]  timer_periph: TIMERx(x=0)
1067:../Firmware/GD32VF103_standard_peripheral/Source/gd32vf103_timer.c ****     \param[in]  channel:
1068:../Firmware/GD32VF103_standard_peripheral/Source/gd32vf103_timer.c ****                 only one parameter can be selected which is shown as below:
1069:../Firmware/GD32VF103_standard_peripheral/Source/gd32vf103_timer.c ****       \arg        TIMER_CH_0: TIMER channel 0(TIMERx(x=0))
1070:../Firmware/GD32VF103_standard_peripheral/Source/gd32vf103_timer.c ****       \arg        TIMER_CH_1: TIMER channel 1(TIMERx(x=0))
1071:../Firmware/GD32VF103_standard_peripheral/Source/gd32vf103_timer.c ****       \arg        TIMER_CH_2: TIMER channel 2(TIMERx(x=0))
1072:../Firmware/GD32VF103_standard_peripheral/Source/gd32vf103_timer.c ****     \param[in]  ocnpolarity: channel complementary output polarity
1073:../Firmware/GD32VF103_standard_peripheral/Source/gd32vf103_timer.c ****                 only one parameter can be selected which is shown as below:
1074:../Firmware/GD32VF103_standard_peripheral/Source/gd32vf103_timer.c ****       \arg        TIMER_OCN_POLARITY_HIGH: channel complementary output polarity is high
1075:../Firmware/GD32VF103_standard_peripheral/Source/gd32vf103_timer.c ****       \arg        TIMER_OCN_POLARITY_LOW: channel complementary output polarity is low
1076:../Firmware/GD32VF103_standard_peripheral/Source/gd32vf103_timer.c ****     \param[out] none
1077:../Firmware/GD32VF103_standard_peripheral/Source/gd32vf103_timer.c ****     \retval     none
1078:../Firmware/GD32VF103_standard_peripheral/Source/gd32vf103_timer.c **** */
1079:../Firmware/GD32VF103_standard_peripheral/Source/gd32vf103_timer.c **** void timer_channel_complementary_output_polarity_config(uint32_t timer_periph, uint16_t channel, ui
1080:../Firmware/GD32VF103_standard_peripheral/Source/gd32vf103_timer.c **** {
 2093              		.loc 1 1080 1
 2094              		.cfi_startproc
 2095              	.LVL121:
1081:../Firmware/GD32VF103_standard_peripheral/Source/gd32vf103_timer.c ****     switch(channel){
 2096              		.loc 1 1081 5
 2097 0000 8547     		li	a5,1
 2098 0002 6389F502 		beq	a1,a5,.L155
 2099 0006 8947     		li	a5,2
 2100 0008 638BF500 		beq	a1,a5,.L156
 2101 000c 91C1     		beq	a1,zero,.L158
1082:../Firmware/GD32VF103_standard_peripheral/Source/gd32vf103_timer.c ****     /* configure TIMER_CH_0 */
1083:../Firmware/GD32VF103_standard_peripheral/Source/gd32vf103_timer.c ****     case TIMER_CH_0:
1084:../Firmware/GD32VF103_standard_peripheral/Source/gd32vf103_timer.c ****         TIMER_CHCTL2(timer_periph) &= (~(uint32_t)TIMER_CHCTL2_CH0NP);
1085:../Firmware/GD32VF103_standard_peripheral/Source/gd32vf103_timer.c ****         TIMER_CHCTL2(timer_periph) |= (uint32_t)ocnpolarity;
GAS LISTING /tmp/ccVZQUdL.s 			page 61


1086:../Firmware/GD32VF103_standard_peripheral/Source/gd32vf103_timer.c ****         break;
1087:../Firmware/GD32VF103_standard_peripheral/Source/gd32vf103_timer.c ****     /* configure TIMER_CH_1 */
1088:../Firmware/GD32VF103_standard_peripheral/Source/gd32vf103_timer.c ****     case TIMER_CH_1:
1089:../Firmware/GD32VF103_standard_peripheral/Source/gd32vf103_timer.c ****         TIMER_CHCTL2(timer_periph) &= (~(uint32_t)TIMER_CHCTL2_CH1NP);
1090:../Firmware/GD32VF103_standard_peripheral/Source/gd32vf103_timer.c ****         TIMER_CHCTL2(timer_periph) |= (uint32_t)((uint32_t)ocnpolarity << 4U);
1091:../Firmware/GD32VF103_standard_peripheral/Source/gd32vf103_timer.c ****         break;
1092:../Firmware/GD32VF103_standard_peripheral/Source/gd32vf103_timer.c ****     /* configure TIMER_CH_2 */
1093:../Firmware/GD32VF103_standard_peripheral/Source/gd32vf103_timer.c ****     case TIMER_CH_2:
1094:../Firmware/GD32VF103_standard_peripheral/Source/gd32vf103_timer.c ****         TIMER_CHCTL2(timer_periph) &= (~(uint32_t)TIMER_CHCTL2_CH2NP);
1095:../Firmware/GD32VF103_standard_peripheral/Source/gd32vf103_timer.c ****         TIMER_CHCTL2(timer_periph) |= (uint32_t)((uint32_t)ocnpolarity << 8U);
1096:../Firmware/GD32VF103_standard_peripheral/Source/gd32vf103_timer.c ****         break;
1097:../Firmware/GD32VF103_standard_peripheral/Source/gd32vf103_timer.c ****     default:
1098:../Firmware/GD32VF103_standard_peripheral/Source/gd32vf103_timer.c ****         break;
1099:../Firmware/GD32VF103_standard_peripheral/Source/gd32vf103_timer.c ****     }
1100:../Firmware/GD32VF103_standard_peripheral/Source/gd32vf103_timer.c **** }
 2102              		.loc 1 1100 1 is_stmt 0
 2103 000e 8280     		ret
 2104              	.L158:
1084:../Firmware/GD32VF103_standard_peripheral/Source/gd32vf103_timer.c ****         TIMER_CHCTL2(timer_periph) |= (uint32_t)ocnpolarity;
 2105              		.loc 1 1084 9 is_stmt 1
1084:../Firmware/GD32VF103_standard_peripheral/Source/gd32vf103_timer.c ****         TIMER_CHCTL2(timer_periph) |= (uint32_t)ocnpolarity;
 2106              		.loc 1 1084 36 is_stmt 0
 2107 0010 1C51     		lw	a5,32(a0)
 2108 0012 DD9B     		andi	a5,a5,-9
 2109 0014 1CD1     		sw	a5,32(a0)
1085:../Firmware/GD32VF103_standard_peripheral/Source/gd32vf103_timer.c ****         break;
 2110              		.loc 1 1085 9 is_stmt 1
1085:../Firmware/GD32VF103_standard_peripheral/Source/gd32vf103_timer.c ****         break;
 2111              		.loc 1 1085 36 is_stmt 0
 2112 0016 1C51     		lw	a5,32(a0)
 2113 0018 5D8E     		or	a2,a2,a5
 2114              	.LVL122:
 2115 001a 10D1     		sw	a2,32(a0)
1086:../Firmware/GD32VF103_standard_peripheral/Source/gd32vf103_timer.c ****     /* configure TIMER_CH_1 */
 2116              		.loc 1 1086 9 is_stmt 1
 2117 001c 8280     		ret
 2118              	.LVL123:
 2119              	.L156:
1094:../Firmware/GD32VF103_standard_peripheral/Source/gd32vf103_timer.c ****         TIMER_CHCTL2(timer_periph) |= (uint32_t)((uint32_t)ocnpolarity << 8U);
 2120              		.loc 1 1094 9
1094:../Firmware/GD32VF103_standard_peripheral/Source/gd32vf103_timer.c ****         TIMER_CHCTL2(timer_periph) |= (uint32_t)((uint32_t)ocnpolarity << 8U);
 2121              		.loc 1 1094 36 is_stmt 0
 2122 001e 1C51     		lw	a5,32(a0)
 2123 0020 7D77     		li	a4,-4096
 2124 0022 1307F77F 		addi	a4,a4,2047
 2125 0026 F98F     		and	a5,a5,a4
 2126 0028 1CD1     		sw	a5,32(a0)
1095:../Firmware/GD32VF103_standard_peripheral/Source/gd32vf103_timer.c ****         break;
 2127              		.loc 1 1095 9 is_stmt 1
1095:../Firmware/GD32VF103_standard_peripheral/Source/gd32vf103_timer.c ****         break;
 2128              		.loc 1 1095 36 is_stmt 0
 2129 002a 1C51     		lw	a5,32(a0)
1095:../Firmware/GD32VF103_standard_peripheral/Source/gd32vf103_timer.c ****         break;
 2130              		.loc 1 1095 39
 2131 002c 2206     		slli	a2,a2,8
 2132              	.LVL124:
1095:../Firmware/GD32VF103_standard_peripheral/Source/gd32vf103_timer.c ****         break;
GAS LISTING /tmp/ccVZQUdL.s 			page 62


 2133              		.loc 1 1095 36
 2134 002e 5D8E     		or	a2,a2,a5
 2135 0030 10D1     		sw	a2,32(a0)
1096:../Firmware/GD32VF103_standard_peripheral/Source/gd32vf103_timer.c ****     default:
 2136              		.loc 1 1096 9 is_stmt 1
 2137              		.loc 1 1100 1 is_stmt 0
 2138 0032 8280     		ret
 2139              	.LVL125:
 2140              	.L155:
1089:../Firmware/GD32VF103_standard_peripheral/Source/gd32vf103_timer.c ****         TIMER_CHCTL2(timer_periph) |= (uint32_t)((uint32_t)ocnpolarity << 4U);
 2141              		.loc 1 1089 9 is_stmt 1
1089:../Firmware/GD32VF103_standard_peripheral/Source/gd32vf103_timer.c ****         TIMER_CHCTL2(timer_periph) |= (uint32_t)((uint32_t)ocnpolarity << 4U);
 2142              		.loc 1 1089 36 is_stmt 0
 2143 0034 1C51     		lw	a5,32(a0)
1090:../Firmware/GD32VF103_standard_peripheral/Source/gd32vf103_timer.c ****         break;
 2144              		.loc 1 1090 39
 2145 0036 1206     		slli	a2,a2,4
 2146              	.LVL126:
1089:../Firmware/GD32VF103_standard_peripheral/Source/gd32vf103_timer.c ****         TIMER_CHCTL2(timer_periph) |= (uint32_t)((uint32_t)ocnpolarity << 4U);
 2147              		.loc 1 1089 36
 2148 0038 93F7F7F7 		andi	a5,a5,-129
 2149 003c 1CD1     		sw	a5,32(a0)
1090:../Firmware/GD32VF103_standard_peripheral/Source/gd32vf103_timer.c ****         break;
 2150              		.loc 1 1090 9 is_stmt 1
1090:../Firmware/GD32VF103_standard_peripheral/Source/gd32vf103_timer.c ****         break;
 2151              		.loc 1 1090 36 is_stmt 0
 2152 003e 1C51     		lw	a5,32(a0)
 2153 0040 5D8E     		or	a2,a2,a5
 2154 0042 10D1     		sw	a2,32(a0)
1091:../Firmware/GD32VF103_standard_peripheral/Source/gd32vf103_timer.c ****     /* configure TIMER_CH_2 */
 2155              		.loc 1 1091 9 is_stmt 1
 2156 0044 8280     		ret
 2157              		.cfi_endproc
 2158              	.LFE44:
 2160              		.section	.text.timer_channel_output_state_config,"ax",@progbits
 2161              		.align	1
 2162              		.globl	timer_channel_output_state_config
 2164              	timer_channel_output_state_config:
 2165              	.LFB45:
1101:../Firmware/GD32VF103_standard_peripheral/Source/gd32vf103_timer.c **** 
1102:../Firmware/GD32VF103_standard_peripheral/Source/gd32vf103_timer.c **** /*!
1103:../Firmware/GD32VF103_standard_peripheral/Source/gd32vf103_timer.c ****     \brief      configure TIMER channel enable state
1104:../Firmware/GD32VF103_standard_peripheral/Source/gd32vf103_timer.c ****     \param[in]  timer_periph: TIMERx(x=0..4)
1105:../Firmware/GD32VF103_standard_peripheral/Source/gd32vf103_timer.c ****     \param[in]  channel:
1106:../Firmware/GD32VF103_standard_peripheral/Source/gd32vf103_timer.c ****                 only one parameter can be selected which is shown as below:
1107:../Firmware/GD32VF103_standard_peripheral/Source/gd32vf103_timer.c ****       \arg        TIMER_CH_0: TIMER channel 0(TIMERx(x=0..4))
1108:../Firmware/GD32VF103_standard_peripheral/Source/gd32vf103_timer.c ****       \arg        TIMER_CH_1: TIMER channel 1(TIMERx(x=0..4))
1109:../Firmware/GD32VF103_standard_peripheral/Source/gd32vf103_timer.c ****       \arg        TIMER_CH_2: TIMER channel 2(TIMERx(x=0..4))
1110:../Firmware/GD32VF103_standard_peripheral/Source/gd32vf103_timer.c ****       \arg        TIMER_CH_3: TIMER channel 3(TIMERx(x=0..4))
1111:../Firmware/GD32VF103_standard_peripheral/Source/gd32vf103_timer.c ****     \param[in]  state: TIMER channel enable state
1112:../Firmware/GD32VF103_standard_peripheral/Source/gd32vf103_timer.c ****                 only one parameter can be selected which is shown as below:
1113:../Firmware/GD32VF103_standard_peripheral/Source/gd32vf103_timer.c ****       \arg        TIMER_CCX_ENABLE: channel enable 
1114:../Firmware/GD32VF103_standard_peripheral/Source/gd32vf103_timer.c ****       \arg        TIMER_CCX_DISABLE: channel disable 
1115:../Firmware/GD32VF103_standard_peripheral/Source/gd32vf103_timer.c ****     \param[out] none
1116:../Firmware/GD32VF103_standard_peripheral/Source/gd32vf103_timer.c ****     \retval     none
1117:../Firmware/GD32VF103_standard_peripheral/Source/gd32vf103_timer.c **** */
1118:../Firmware/GD32VF103_standard_peripheral/Source/gd32vf103_timer.c **** void timer_channel_output_state_config(uint32_t timer_periph, uint16_t channel, uint32_t state)
GAS LISTING /tmp/ccVZQUdL.s 			page 63


1119:../Firmware/GD32VF103_standard_peripheral/Source/gd32vf103_timer.c **** {
 2166              		.loc 1 1119 1
 2167              		.cfi_startproc
 2168              	.LVL127:
1120:../Firmware/GD32VF103_standard_peripheral/Source/gd32vf103_timer.c ****     switch(channel){
 2169              		.loc 1 1120 5
 2170 0000 8947     		li	a5,2
 2171 0002 6382F504 		beq	a1,a5,.L160
 2172 0006 63EBB700 		bgtu	a1,a5,.L161
 2173 000a 9DC5     		beq	a1,zero,.L167
1121:../Firmware/GD32VF103_standard_peripheral/Source/gd32vf103_timer.c ****     /* configure TIMER_CH_0 */
1122:../Firmware/GD32VF103_standard_peripheral/Source/gd32vf103_timer.c ****     case TIMER_CH_0:
1123:../Firmware/GD32VF103_standard_peripheral/Source/gd32vf103_timer.c ****         TIMER_CHCTL2(timer_periph) &= (~(uint32_t)TIMER_CHCTL2_CH0EN);
1124:../Firmware/GD32VF103_standard_peripheral/Source/gd32vf103_timer.c ****         TIMER_CHCTL2(timer_periph) |= (uint32_t)state;
1125:../Firmware/GD32VF103_standard_peripheral/Source/gd32vf103_timer.c ****         break;
1126:../Firmware/GD32VF103_standard_peripheral/Source/gd32vf103_timer.c ****     /* configure TIMER_CH_1 */
1127:../Firmware/GD32VF103_standard_peripheral/Source/gd32vf103_timer.c ****     case TIMER_CH_1:
1128:../Firmware/GD32VF103_standard_peripheral/Source/gd32vf103_timer.c ****         TIMER_CHCTL2(timer_periph) &= (~(uint32_t)TIMER_CHCTL2_CH1EN);
 2174              		.loc 1 1128 9
 2175              		.loc 1 1128 36 is_stmt 0
 2176 000c 1C51     		lw	a5,32(a0)
1129:../Firmware/GD32VF103_standard_peripheral/Source/gd32vf103_timer.c ****         TIMER_CHCTL2(timer_periph) |= (uint32_t)((uint32_t)state << 4U);
 2177              		.loc 1 1129 39
 2178 000e 1206     		slli	a2,a2,4
 2179              	.LVL128:
1128:../Firmware/GD32VF103_standard_peripheral/Source/gd32vf103_timer.c ****         TIMER_CHCTL2(timer_periph) |= (uint32_t)((uint32_t)state << 4U);
 2180              		.loc 1 1128 36
 2181 0010 BD9B     		andi	a5,a5,-17
 2182 0012 1CD1     		sw	a5,32(a0)
 2183              		.loc 1 1129 9 is_stmt 1
 2184              		.loc 1 1129 36 is_stmt 0
 2185 0014 1C51     		lw	a5,32(a0)
 2186 0016 5D8E     		or	a2,a2,a5
 2187 0018 10D1     		sw	a2,32(a0)
1130:../Firmware/GD32VF103_standard_peripheral/Source/gd32vf103_timer.c ****         break;
 2188              		.loc 1 1130 9 is_stmt 1
 2189 001a 8280     		ret
 2190              	.LVL129:
 2191              	.L161:
1120:../Firmware/GD32VF103_standard_peripheral/Source/gd32vf103_timer.c ****     /* configure TIMER_CH_0 */
 2192              		.loc 1 1120 5 is_stmt 0
 2193 001c 8D47     		li	a5,3
 2194 001e 639CF500 		bne	a1,a5,.L168
1131:../Firmware/GD32VF103_standard_peripheral/Source/gd32vf103_timer.c ****     /* configure TIMER_CH_2 */
1132:../Firmware/GD32VF103_standard_peripheral/Source/gd32vf103_timer.c ****     case TIMER_CH_2:
1133:../Firmware/GD32VF103_standard_peripheral/Source/gd32vf103_timer.c ****         TIMER_CHCTL2(timer_periph) &= (~(uint32_t)TIMER_CHCTL2_CH2EN);
1134:../Firmware/GD32VF103_standard_peripheral/Source/gd32vf103_timer.c ****         TIMER_CHCTL2(timer_periph) |= (uint32_t)((uint32_t)state << 8U);
1135:../Firmware/GD32VF103_standard_peripheral/Source/gd32vf103_timer.c ****         break;
1136:../Firmware/GD32VF103_standard_peripheral/Source/gd32vf103_timer.c ****     /* configure TIMER_CH_3 */
1137:../Firmware/GD32VF103_standard_peripheral/Source/gd32vf103_timer.c ****     case TIMER_CH_3:
1138:../Firmware/GD32VF103_standard_peripheral/Source/gd32vf103_timer.c ****         TIMER_CHCTL2(timer_periph) &= (~(uint32_t)TIMER_CHCTL2_CH3EN);
