GAS LISTING /tmp/cc0dKmfh.s 			page 1


   1              		.file	"gd32vf103_i2c.c"
   2              		.option nopic
   3              		.attribute arch, "rv32i2p0_m2p0_a2p0_c2p0"
   4              		.attribute unaligned_access, 0
   5              		.attribute stack_align, 16
   6              		.text
   7              	.Ltext0:
   8              		.cfi_sections	.debug_frame
   9              		.section	.text.i2c_deinit,"ax",@progbits
  10              		.align	1
  11              		.globl	i2c_deinit
  13              	i2c_deinit:
  14              	.LFB2:
  15              		.file 1 "../Firmware/GD32VF103_standard_peripheral/Source/gd32vf103_i2c.c"
   1:../Firmware/GD32VF103_standard_peripheral/Source/gd32vf103_i2c.c **** /*!
   2:../Firmware/GD32VF103_standard_peripheral/Source/gd32vf103_i2c.c ****     \file  gd32vf103_i2c.c
   3:../Firmware/GD32VF103_standard_peripheral/Source/gd32vf103_i2c.c ****     \brief I2C driver
   4:../Firmware/GD32VF103_standard_peripheral/Source/gd32vf103_i2c.c **** 
   5:../Firmware/GD32VF103_standard_peripheral/Source/gd32vf103_i2c.c ****     \version 2019-6-5, V1.0.0, firmware for GD32VF103
   6:../Firmware/GD32VF103_standard_peripheral/Source/gd32vf103_i2c.c **** */
   7:../Firmware/GD32VF103_standard_peripheral/Source/gd32vf103_i2c.c **** 
   8:../Firmware/GD32VF103_standard_peripheral/Source/gd32vf103_i2c.c **** /*
   9:../Firmware/GD32VF103_standard_peripheral/Source/gd32vf103_i2c.c ****     Copyright (c) 2019, GigaDevice Semiconductor Inc.
  10:../Firmware/GD32VF103_standard_peripheral/Source/gd32vf103_i2c.c **** 
  11:../Firmware/GD32VF103_standard_peripheral/Source/gd32vf103_i2c.c ****     Redistribution and use in source and binary forms, with or without modification, 
  12:../Firmware/GD32VF103_standard_peripheral/Source/gd32vf103_i2c.c **** are permitted provided that the following conditions are met:
  13:../Firmware/GD32VF103_standard_peripheral/Source/gd32vf103_i2c.c **** 
  14:../Firmware/GD32VF103_standard_peripheral/Source/gd32vf103_i2c.c ****     1. Redistributions of source code must retain the above copyright notice, this 
  15:../Firmware/GD32VF103_standard_peripheral/Source/gd32vf103_i2c.c ****        list of conditions and the following disclaimer.
  16:../Firmware/GD32VF103_standard_peripheral/Source/gd32vf103_i2c.c ****     2. Redistributions in binary form must reproduce the above copyright notice, 
  17:../Firmware/GD32VF103_standard_peripheral/Source/gd32vf103_i2c.c ****        this list of conditions and the following disclaimer in the documentation 
  18:../Firmware/GD32VF103_standard_peripheral/Source/gd32vf103_i2c.c ****        and/or other materials provided with the distribution.
  19:../Firmware/GD32VF103_standard_peripheral/Source/gd32vf103_i2c.c ****     3. Neither the name of the copyright holder nor the names of its contributors 
  20:../Firmware/GD32VF103_standard_peripheral/Source/gd32vf103_i2c.c ****        may be used to endorse or promote products derived from this software without 
  21:../Firmware/GD32VF103_standard_peripheral/Source/gd32vf103_i2c.c ****        specific prior written permission.
  22:../Firmware/GD32VF103_standard_peripheral/Source/gd32vf103_i2c.c **** 
  23:../Firmware/GD32VF103_standard_peripheral/Source/gd32vf103_i2c.c ****     THIS SOFTWARE IS PROVIDED BY THE COPYRIGHT HOLDERS AND CONTRIBUTORS "AS IS" 
  24:../Firmware/GD32VF103_standard_peripheral/Source/gd32vf103_i2c.c **** AND ANY EXPRESS OR IMPLIED WARRANTIES, INCLUDING, BUT NOT LIMITED TO, THE IMPLIED 
  25:../Firmware/GD32VF103_standard_peripheral/Source/gd32vf103_i2c.c **** WARRANTIES OF MERCHANTABILITY AND FITNESS FOR A PARTICULAR PURPOSE ARE DISCLAIMED. 
  26:../Firmware/GD32VF103_standard_peripheral/Source/gd32vf103_i2c.c **** IN NO EVENT SHALL THE COPYRIGHT HOLDER OR CONTRIBUTORS BE LIABLE FOR ANY DIRECT, 
  27:../Firmware/GD32VF103_standard_peripheral/Source/gd32vf103_i2c.c **** INDIRECT, INCIDENTAL, SPECIAL, EXEMPLARY, OR CONSEQUENTIAL DAMAGES (INCLUDING, BUT 
  28:../Firmware/GD32VF103_standard_peripheral/Source/gd32vf103_i2c.c **** NOT LIMITED TO, PROCUREMENT OF SUBSTITUTE GOODS OR SERVICES; LOSS OF USE, DATA, OR 
  29:../Firmware/GD32VF103_standard_peripheral/Source/gd32vf103_i2c.c **** PROFITS; OR BUSINESS INTERRUPTION) HOWEVER CAUSED AND ON ANY THEORY OF LIABILITY, 
  30:../Firmware/GD32VF103_standard_peripheral/Source/gd32vf103_i2c.c **** WHETHER IN CONTRACT, STRICT LIABILITY, OR TORT (INCLUDING NEGLIGENCE OR OTHERWISE) 
  31:../Firmware/GD32VF103_standard_peripheral/Source/gd32vf103_i2c.c **** ARISING IN ANY WAY OUT OF THE USE OF THIS SOFTWARE, EVEN IF ADVISED OF THE POSSIBILITY 
  32:../Firmware/GD32VF103_standard_peripheral/Source/gd32vf103_i2c.c **** OF SUCH DAMAGE.
  33:../Firmware/GD32VF103_standard_peripheral/Source/gd32vf103_i2c.c **** */
  34:../Firmware/GD32VF103_standard_peripheral/Source/gd32vf103_i2c.c **** 
  35:../Firmware/GD32VF103_standard_peripheral/Source/gd32vf103_i2c.c **** #include "gd32vf103_i2c.h"
  36:../Firmware/GD32VF103_standard_peripheral/Source/gd32vf103_i2c.c **** 
  37:../Firmware/GD32VF103_standard_peripheral/Source/gd32vf103_i2c.c **** /* I2C register bit mask */
  38:../Firmware/GD32VF103_standard_peripheral/Source/gd32vf103_i2c.c **** #define I2CCLK_MAX                    ((uint32_t)0x00000048U)             /*!< i2cclk maximum value
  39:../Firmware/GD32VF103_standard_peripheral/Source/gd32vf103_i2c.c **** #define I2CCLK_MIN                    ((uint32_t)0x00000002U)             /*!< i2cclk minimum value
  40:../Firmware/GD32VF103_standard_peripheral/Source/gd32vf103_i2c.c **** #define I2C_FLAG_MASK                 ((uint32_t)0x0000FFFFU)             /*!< i2c flag mask */
  41:../Firmware/GD32VF103_standard_peripheral/Source/gd32vf103_i2c.c **** #define I2C_ADDRESS_MASK              ((uint32_t)0x000003FFU)             /*!< i2c address mask */
  42:../Firmware/GD32VF103_standard_peripheral/Source/gd32vf103_i2c.c **** #define I2C_ADDRESS2_MASK             ((uint32_t)0x000000FEU)             /*!< the second i2c addre
  43:../Firmware/GD32VF103_standard_peripheral/Source/gd32vf103_i2c.c **** 
GAS LISTING /tmp/cc0dKmfh.s 			page 2


  44:../Firmware/GD32VF103_standard_peripheral/Source/gd32vf103_i2c.c **** /* I2C register bit offset */
  45:../Firmware/GD32VF103_standard_peripheral/Source/gd32vf103_i2c.c **** #define STAT1_PECV_OFFSET             ((uint32_t)8U)     /* bit offset of PECV in I2C_STAT1 */
  46:../Firmware/GD32VF103_standard_peripheral/Source/gd32vf103_i2c.c **** 
  47:../Firmware/GD32VF103_standard_peripheral/Source/gd32vf103_i2c.c **** /*!
  48:../Firmware/GD32VF103_standard_peripheral/Source/gd32vf103_i2c.c ****     \brief      reset I2C
  49:../Firmware/GD32VF103_standard_peripheral/Source/gd32vf103_i2c.c ****     \param[in]  i2c_periph: I2Cx(x=0,1)
  50:../Firmware/GD32VF103_standard_peripheral/Source/gd32vf103_i2c.c ****     \param[out] none
  51:../Firmware/GD32VF103_standard_peripheral/Source/gd32vf103_i2c.c ****     \retval     none
  52:../Firmware/GD32VF103_standard_peripheral/Source/gd32vf103_i2c.c ****  */
  53:../Firmware/GD32VF103_standard_peripheral/Source/gd32vf103_i2c.c **** void i2c_deinit(uint32_t i2c_periph) 
  54:../Firmware/GD32VF103_standard_peripheral/Source/gd32vf103_i2c.c **** {
  16              		.loc 1 54 1
  17              		.cfi_startproc
  18              	.LVL0:
  55:../Firmware/GD32VF103_standard_peripheral/Source/gd32vf103_i2c.c ****     switch (i2c_periph) {
  19              		.loc 1 55 5
  54:../Firmware/GD32VF103_standard_peripheral/Source/gd32vf103_i2c.c ****     switch (i2c_periph) {
  20              		.loc 1 54 1 is_stmt 0
  21 0000 4111     		addi	sp,sp,-16
  22              	.LCFI0:
  23              		.cfi_def_cfa_offset 16
  24              		.loc 1 55 5
  25 0002 B7570040 		li	a5,1073762304
  54:../Firmware/GD32VF103_standard_peripheral/Source/gd32vf103_i2c.c ****     switch (i2c_periph) {
  26              		.loc 1 54 1
  27 0006 06C6     		sw	ra,12(sp)
  28              		.cfi_offset 1, -4
  29              		.loc 1 55 5
  30 0008 93870740 		addi	a5,a5,1024
  31 000c 630BF500 		beq	a0,a5,.L2
  32 0010 B7670040 		li	a5,1073766400
  33 0014 93870780 		addi	a5,a5,-2048
  34 0018 6303F502 		beq	a0,a5,.L3
  56:../Firmware/GD32VF103_standard_peripheral/Source/gd32vf103_i2c.c ****     case I2C0:
  57:../Firmware/GD32VF103_standard_peripheral/Source/gd32vf103_i2c.c ****         /* reset I2C0 */
  58:../Firmware/GD32VF103_standard_peripheral/Source/gd32vf103_i2c.c ****         rcu_periph_reset_enable(RCU_I2C0RST);
  59:../Firmware/GD32VF103_standard_peripheral/Source/gd32vf103_i2c.c ****         rcu_periph_reset_disable(RCU_I2C0RST);
  60:../Firmware/GD32VF103_standard_peripheral/Source/gd32vf103_i2c.c ****         break;
  61:../Firmware/GD32VF103_standard_peripheral/Source/gd32vf103_i2c.c ****     case I2C1:
  62:../Firmware/GD32VF103_standard_peripheral/Source/gd32vf103_i2c.c ****         /* reset I2C1 */
  63:../Firmware/GD32VF103_standard_peripheral/Source/gd32vf103_i2c.c ****         rcu_periph_reset_enable(RCU_I2C1RST);
  64:../Firmware/GD32VF103_standard_peripheral/Source/gd32vf103_i2c.c ****         rcu_periph_reset_disable(RCU_I2C1RST);
  65:../Firmware/GD32VF103_standard_peripheral/Source/gd32vf103_i2c.c ****         break;
  66:../Firmware/GD32VF103_standard_peripheral/Source/gd32vf103_i2c.c ****     default:
  67:../Firmware/GD32VF103_standard_peripheral/Source/gd32vf103_i2c.c ****         break;
  68:../Firmware/GD32VF103_standard_peripheral/Source/gd32vf103_i2c.c ****     }
  69:../Firmware/GD32VF103_standard_peripheral/Source/gd32vf103_i2c.c **** }
  35              		.loc 1 69 1
  36 001c B240     		lw	ra,12(sp)
  37              		.cfi_remember_state
  38              		.cfi_restore 1
  39 001e 4101     		addi	sp,sp,16
  40              	.LCFI1:
  41              		.cfi_def_cfa_offset 0
  42 0020 8280     		jr	ra
  43              	.L2:
  44              	.LCFI2:
GAS LISTING /tmp/cc0dKmfh.s 			page 3


  45              		.cfi_restore_state
  58:../Firmware/GD32VF103_standard_peripheral/Source/gd32vf103_i2c.c ****         rcu_periph_reset_disable(RCU_I2C0RST);
  46              		.loc 1 58 9 is_stmt 1
  47 0022 13055041 		li	a0,1045
  48              	.LVL1:
  49 0026 97000000 		call	rcu_periph_reset_enable
  49      E7800000 
  50              	.LVL2:
  59:../Firmware/GD32VF103_standard_peripheral/Source/gd32vf103_i2c.c ****         break;
  51              		.loc 1 59 9
  52              		.loc 1 69 1 is_stmt 0
  53 002e B240     		lw	ra,12(sp)
  54              		.cfi_remember_state
  55              		.cfi_restore 1
  59:../Firmware/GD32VF103_standard_peripheral/Source/gd32vf103_i2c.c ****         break;
  56              		.loc 1 59 9
  57 0030 13055041 		li	a0,1045
  58              		.loc 1 69 1
  59 0034 4101     		addi	sp,sp,16
  60              	.LCFI3:
  61              		.cfi_def_cfa_offset 0
  59:../Firmware/GD32VF103_standard_peripheral/Source/gd32vf103_i2c.c ****         break;
  62              		.loc 1 59 9
  63 0036 17030000 		tail	rcu_periph_reset_disable
  63      67000300 
  64              	.LVL3:
  65              	.L3:
  66              	.LCFI4:
  67              		.cfi_restore_state
  63:../Firmware/GD32VF103_standard_peripheral/Source/gd32vf103_i2c.c ****         rcu_periph_reset_disable(RCU_I2C1RST);
  68              		.loc 1 63 9 is_stmt 1
  69 003e 13056041 		li	a0,1046
  70              	.LVL4:
  71 0042 97000000 		call	rcu_periph_reset_enable
  71      E7800000 
  72              	.LVL5:
  64:../Firmware/GD32VF103_standard_peripheral/Source/gd32vf103_i2c.c ****         break;
  73              		.loc 1 64 9
  74              		.loc 1 69 1 is_stmt 0
  75 004a B240     		lw	ra,12(sp)
  76              		.cfi_restore 1
  64:../Firmware/GD32VF103_standard_peripheral/Source/gd32vf103_i2c.c ****         break;
  77              		.loc 1 64 9
  78 004c 13056041 		li	a0,1046
  79              		.loc 1 69 1
  80 0050 4101     		addi	sp,sp,16
  81              	.LCFI5:
  82              		.cfi_def_cfa_offset 0
  64:../Firmware/GD32VF103_standard_peripheral/Source/gd32vf103_i2c.c ****         break;
  83              		.loc 1 64 9
  84 0052 17030000 		tail	rcu_periph_reset_disable
  84      67000300 
  85              	.LVL6:
  86              		.cfi_endproc
  87              	.LFE2:
  89              		.section	.text.i2c_clock_config,"ax",@progbits
  90              		.align	1
GAS LISTING /tmp/cc0dKmfh.s 			page 4


  91              		.globl	i2c_clock_config
  93              	i2c_clock_config:
  94              	.LFB3:
  70:../Firmware/GD32VF103_standard_peripheral/Source/gd32vf103_i2c.c **** 
  71:../Firmware/GD32VF103_standard_peripheral/Source/gd32vf103_i2c.c **** /*!
  72:../Firmware/GD32VF103_standard_peripheral/Source/gd32vf103_i2c.c ****     \brief      configure I2C clock
  73:../Firmware/GD32VF103_standard_peripheral/Source/gd32vf103_i2c.c ****     \param[in]  i2c_periph: I2Cx(x=0,1)
  74:../Firmware/GD32VF103_standard_peripheral/Source/gd32vf103_i2c.c ****     \param[in]  clkspeed: I2C clock speed, supports standard mode (up to 100 kHz), fast mode (up to
  75:../Firmware/GD32VF103_standard_peripheral/Source/gd32vf103_i2c.c ****     \param[in]  dutycyc: duty cycle in fast mode
  76:../Firmware/GD32VF103_standard_peripheral/Source/gd32vf103_i2c.c ****                 only one parameter can be selected which is shown as below:
  77:../Firmware/GD32VF103_standard_peripheral/Source/gd32vf103_i2c.c ****     \arg        I2C_DTCY_2: T_low/T_high=2 
  78:../Firmware/GD32VF103_standard_peripheral/Source/gd32vf103_i2c.c ****     \arg        I2C_DTCY_16_9: T_low/T_high=16/9
  79:../Firmware/GD32VF103_standard_peripheral/Source/gd32vf103_i2c.c ****     \param[out] none
  80:../Firmware/GD32VF103_standard_peripheral/Source/gd32vf103_i2c.c ****     \retval     none
  81:../Firmware/GD32VF103_standard_peripheral/Source/gd32vf103_i2c.c ****  */
  82:../Firmware/GD32VF103_standard_peripheral/Source/gd32vf103_i2c.c **** void i2c_clock_config(uint32_t i2c_periph, uint32_t clkspeed, uint32_t dutycyc) 
  83:../Firmware/GD32VF103_standard_peripheral/Source/gd32vf103_i2c.c **** {
  95              		.loc 1 83 1 is_stmt 1
  96              		.cfi_startproc
  97              	.LVL7:
  84:../Firmware/GD32VF103_standard_peripheral/Source/gd32vf103_i2c.c ****     uint32_t pclk1, clkc, freq, risetime;
  98              		.loc 1 84 5
  85:../Firmware/GD32VF103_standard_peripheral/Source/gd32vf103_i2c.c ****     uint32_t temp;
  99              		.loc 1 85 5
  86:../Firmware/GD32VF103_standard_peripheral/Source/gd32vf103_i2c.c **** 
  87:../Firmware/GD32VF103_standard_peripheral/Source/gd32vf103_i2c.c ****     pclk1 = rcu_clock_freq_get(CK_APB1);
 100              		.loc 1 87 5
  83:../Firmware/GD32VF103_standard_peripheral/Source/gd32vf103_i2c.c ****     uint32_t pclk1, clkc, freq, risetime;
 101              		.loc 1 83 1 is_stmt 0
 102 0000 4111     		addi	sp,sp,-16
 103              	.LCFI6:
 104              		.cfi_def_cfa_offset 16
 105 0002 26C2     		sw	s1,4(sp)
 106              		.cfi_offset 9, -12
 107 0004 AA84     		mv	s1,a0
 108              		.loc 1 87 13
 109 0006 0945     		li	a0,2
 110              	.LVL8:
  83:../Firmware/GD32VF103_standard_peripheral/Source/gd32vf103_i2c.c ****     uint32_t pclk1, clkc, freq, risetime;
 111              		.loc 1 83 1
 112 0008 22C4     		sw	s0,8(sp)
 113 000a 4AC0     		sw	s2,0(sp)
 114 000c 06C6     		sw	ra,12(sp)
 115              		.cfi_offset 8, -8
 116              		.cfi_offset 18, -16
 117              		.cfi_offset 1, -4
  83:../Firmware/GD32VF103_standard_peripheral/Source/gd32vf103_i2c.c ****     uint32_t pclk1, clkc, freq, risetime;
 118              		.loc 1 83 1
 119 000e 2E84     		mv	s0,a1
 120 0010 3289     		mv	s2,a2
 121              		.loc 1 87 13
 122 0012 97000000 		call	rcu_clock_freq_get
 122      E7800000 
 123              	.LVL9:
  88:../Firmware/GD32VF103_standard_peripheral/Source/gd32vf103_i2c.c ****     /* I2C peripheral clock frequency */
  89:../Firmware/GD32VF103_standard_peripheral/Source/gd32vf103_i2c.c ****     freq = (uint32_t) (pclk1 / 1000000U);
 124              		.loc 1 89 5 is_stmt 1
GAS LISTING /tmp/cc0dKmfh.s 			page 5


 125              		.loc 1 89 10 is_stmt 0
 126 001a B7470F00 		li	a5,999424
  90:../Firmware/GD32VF103_standard_peripheral/Source/gd32vf103_i2c.c ****     if (freq >= I2CCLK_MAX) {
 127              		.loc 1 90 8
 128 001e 37A74A04 		li	a4,71999488
  89:../Firmware/GD32VF103_standard_peripheral/Source/gd32vf103_i2c.c ****     if (freq >= I2CCLK_MAX) {
 129              		.loc 1 89 10
 130 0022 93870724 		addi	a5,a5,576
 131              		.loc 1 90 8
 132 0026 1307F71F 		addi	a4,a4,511
  89:../Firmware/GD32VF103_standard_peripheral/Source/gd32vf103_i2c.c ****     if (freq >= I2CCLK_MAX) {
 133              		.loc 1 89 10
 134 002a B357F502 		divu	a5,a0,a5
 135              	.LVL10:
 136              		.loc 1 90 5 is_stmt 1
  91:../Firmware/GD32VF103_standard_peripheral/Source/gd32vf103_i2c.c ****         freq = I2CCLK_MAX;
 137              		.loc 1 91 14 is_stmt 0
 138 002e 93068004 		li	a3,72
  90:../Firmware/GD32VF103_standard_peripheral/Source/gd32vf103_i2c.c ****     if (freq >= I2CCLK_MAX) {
 139              		.loc 1 90 8
 140 0032 6363A700 		bgtu	a0,a4,.L9
 141 0036 BE86     		mv	a3,a5
 142              	.L9:
 143              	.LVL11:
  92:../Firmware/GD32VF103_standard_peripheral/Source/gd32vf103_i2c.c ****     }
  93:../Firmware/GD32VF103_standard_peripheral/Source/gd32vf103_i2c.c ****     temp = I2C_CTL1(i2c_periph);
 144              		.loc 1 93 5 is_stmt 1
 145              		.loc 1 93 10 is_stmt 0
 146 0038 D840     		lw	a4,4(s1)
 147              	.LVL12:
  94:../Firmware/GD32VF103_standard_peripheral/Source/gd32vf103_i2c.c ****     temp &= ~I2C_CTL1_I2CCLK;
 148              		.loc 1 94 5 is_stmt 1
  95:../Firmware/GD32VF103_standard_peripheral/Source/gd32vf103_i2c.c ****     temp |= freq;
  96:../Firmware/GD32VF103_standard_peripheral/Source/gd32vf103_i2c.c **** 
  97:../Firmware/GD32VF103_standard_peripheral/Source/gd32vf103_i2c.c ****     I2C_CTL1(i2c_periph) = temp;
  98:../Firmware/GD32VF103_standard_peripheral/Source/gd32vf103_i2c.c **** 
  99:../Firmware/GD32VF103_standard_peripheral/Source/gd32vf103_i2c.c ****     if (100000U >= clkspeed) {
 149              		.loc 1 99 8 is_stmt 0
 150 003a 6166     		li	a2,98304
 151 003c 1306066A 		addi	a2,a2,1696
  94:../Firmware/GD32VF103_standard_peripheral/Source/gd32vf103_i2c.c ****     temp &= ~I2C_CTL1_I2CCLK;
 152              		.loc 1 94 10
 153 0040 137707FC 		andi	a4,a4,-64
 154              	.LVL13:
  95:../Firmware/GD32VF103_standard_peripheral/Source/gd32vf103_i2c.c ****     temp |= freq;
 155              		.loc 1 95 5 is_stmt 1
  95:../Firmware/GD32VF103_standard_peripheral/Source/gd32vf103_i2c.c ****     temp |= freq;
 156              		.loc 1 95 10 is_stmt 0
 157 0044 558F     		or	a4,a3,a4
 158              	.LVL14:
  97:../Firmware/GD32VF103_standard_peripheral/Source/gd32vf103_i2c.c **** 
 159              		.loc 1 97 5 is_stmt 1
  97:../Firmware/GD32VF103_standard_peripheral/Source/gd32vf103_i2c.c **** 
 160              		.loc 1 97 26 is_stmt 0
 161 0046 D8C0     		sw	a4,4(s1)
 162              		.loc 1 99 5 is_stmt 1
 163              		.loc 1 99 8 is_stmt 0
GAS LISTING /tmp/cc0dKmfh.s 			page 6


 164 0048 636C8602 		bgtu	s0,a2,.L10
 100:../Firmware/GD32VF103_standard_peripheral/Source/gd32vf103_i2c.c ****         /* the maximum SCL rise time is 1000ns in standard mode */
 101:../Firmware/GD32VF103_standard_peripheral/Source/gd32vf103_i2c.c ****         risetime = (uint32_t) ((pclk1 / 1000000U) + 1U);
 165              		.loc 1 101 9 is_stmt 1
 166              		.loc 1 101 18 is_stmt 0
 167 004c 8507     		addi	a5,a5,1
 168              	.LVL15:
 102:../Firmware/GD32VF103_standard_peripheral/Source/gd32vf103_i2c.c ****         if (risetime >= I2CCLK_MAX) {
 169              		.loc 1 102 9 is_stmt 1
 170              		.loc 1 102 12 is_stmt 0
 171 004e 13077004 		li	a4,71
 172              	.LVL16:
 173 0052 6376F708 		bleu	a5,a4,.L11
 103:../Firmware/GD32VF103_standard_peripheral/Source/gd32vf103_i2c.c ****             I2C_RT(i2c_periph) = I2CCLK_MAX;
 174              		.loc 1 103 13 is_stmt 1
 175              		.loc 1 103 32 is_stmt 0
 176 0056 93078004 		li	a5,72
 177              	.LVL17:
 178 005a 9CD0     		sw	a5,32(s1)
 179              	.LVL18:
 180              	.L12:
 104:../Firmware/GD32VF103_standard_peripheral/Source/gd32vf103_i2c.c ****         } else if (risetime <= I2CCLK_MIN) {
 105:../Firmware/GD32VF103_standard_peripheral/Source/gd32vf103_i2c.c ****             I2C_RT(i2c_periph) = I2CCLK_MIN;
 106:../Firmware/GD32VF103_standard_peripheral/Source/gd32vf103_i2c.c ****         } else {
 107:../Firmware/GD32VF103_standard_peripheral/Source/gd32vf103_i2c.c ****             I2C_RT(i2c_periph) = risetime;
 108:../Firmware/GD32VF103_standard_peripheral/Source/gd32vf103_i2c.c ****         }
 109:../Firmware/GD32VF103_standard_peripheral/Source/gd32vf103_i2c.c ****         clkc = (uint32_t) (pclk1 / (clkspeed * 2U));
 181              		.loc 1 109 9 is_stmt 1
 182              		.loc 1 109 46 is_stmt 0
 183 005c 0604     		slli	s0,s0,1
 184              	.LVL19:
 110:../Firmware/GD32VF103_standard_peripheral/Source/gd32vf103_i2c.c ****         if (clkc < 0x04U) {
 185              		.loc 1 110 9 is_stmt 1
 111:../Firmware/GD32VF103_standard_peripheral/Source/gd32vf103_i2c.c ****             /* the CLKC in standard mode minmum value is 4 */
 112:../Firmware/GD32VF103_standard_peripheral/Source/gd32vf103_i2c.c ****             clkc = 0x04U;
 113:../Firmware/GD32VF103_standard_peripheral/Source/gd32vf103_i2c.c ****         }
 114:../Firmware/GD32VF103_standard_peripheral/Source/gd32vf103_i2c.c ****         I2C_CKCFG(i2c_periph) |= (I2C_CKCFG_CLKC & clkc);
 186              		.loc 1 114 9
 187              		.loc 1 114 50 is_stmt 0
 188 005e 9147     		li	a5,4
 189 0060 33548502 		divu	s0,a0,s0
 190              	.LVL20:
 191              		.loc 1 114 31
 192 0064 C84C     		lw	a0,28(s1)
 193              	.LVL21:
 194              		.loc 1 114 50
 195 0066 6373F400 		bgeu	s0,a5,.L14
 196 006a 1144     		li	s0,4
 197              	.LVL22:
 198              	.L14:
 199 006c 5204     		slli	s0,s0,20
 200 006e 5180     		srli	s0,s0,20
 201              		.loc 1 114 31
 202 0070 498C     		or	s0,s0,a0
 203 0072 C0CC     		sw	s0,28(s1)
 204              	.L8:
 115:../Firmware/GD32VF103_standard_peripheral/Source/gd32vf103_i2c.c **** 
GAS LISTING /tmp/cc0dKmfh.s 			page 7


 116:../Firmware/GD32VF103_standard_peripheral/Source/gd32vf103_i2c.c ****     } else if (400000U >= clkspeed) {
 117:../Firmware/GD32VF103_standard_peripheral/Source/gd32vf103_i2c.c ****         /* the maximum SCL rise time is 300ns in fast mode */
 118:../Firmware/GD32VF103_standard_peripheral/Source/gd32vf103_i2c.c ****         I2C_RT(i2c_periph) = (uint32_t) (((freq * (uint32_t) 300U)
 119:../Firmware/GD32VF103_standard_peripheral/Source/gd32vf103_i2c.c ****                 / (uint32_t) 1000U) + (uint32_t) 1U);
 120:../Firmware/GD32VF103_standard_peripheral/Source/gd32vf103_i2c.c ****         if (I2C_DTCY_2 == dutycyc) {
 121:../Firmware/GD32VF103_standard_peripheral/Source/gd32vf103_i2c.c ****             /* I2C duty cycle is 2 */
 122:../Firmware/GD32VF103_standard_peripheral/Source/gd32vf103_i2c.c ****             clkc = (uint32_t) (pclk1 / (clkspeed * 3U));
 123:../Firmware/GD32VF103_standard_peripheral/Source/gd32vf103_i2c.c ****             I2C_CKCFG(i2c_periph) &= ~I2C_CKCFG_DTCY;
 124:../Firmware/GD32VF103_standard_peripheral/Source/gd32vf103_i2c.c ****         } else {
 125:../Firmware/GD32VF103_standard_peripheral/Source/gd32vf103_i2c.c ****             /* I2C duty cycle is 16/9 */
 126:../Firmware/GD32VF103_standard_peripheral/Source/gd32vf103_i2c.c ****             clkc = (uint32_t) (pclk1 / (clkspeed * 25U));
 127:../Firmware/GD32VF103_standard_peripheral/Source/gd32vf103_i2c.c ****             I2C_CKCFG(i2c_periph) |= I2C_CKCFG_DTCY;
 128:../Firmware/GD32VF103_standard_peripheral/Source/gd32vf103_i2c.c ****         }
 129:../Firmware/GD32VF103_standard_peripheral/Source/gd32vf103_i2c.c ****         if (0U == (clkc & I2C_CKCFG_CLKC)) {
 130:../Firmware/GD32VF103_standard_peripheral/Source/gd32vf103_i2c.c ****             /* the CLKC in fast mode minmum value is 1 */
 131:../Firmware/GD32VF103_standard_peripheral/Source/gd32vf103_i2c.c ****             clkc |= 0x0001U;
 132:../Firmware/GD32VF103_standard_peripheral/Source/gd32vf103_i2c.c ****         }
 133:../Firmware/GD32VF103_standard_peripheral/Source/gd32vf103_i2c.c ****         I2C_CKCFG(i2c_periph) |= I2C_CKCFG_FAST;
 134:../Firmware/GD32VF103_standard_peripheral/Source/gd32vf103_i2c.c ****         I2C_CKCFG(i2c_periph) |= clkc;
 135:../Firmware/GD32VF103_standard_peripheral/Source/gd32vf103_i2c.c ****     } else {
 136:../Firmware/GD32VF103_standard_peripheral/Source/gd32vf103_i2c.c ****     }
 137:../Firmware/GD32VF103_standard_peripheral/Source/gd32vf103_i2c.c **** }
 205              		.loc 1 137 1
 206 0074 B240     		lw	ra,12(sp)
 207              		.cfi_remember_state
 208              		.cfi_restore 1
 209 0076 2244     		lw	s0,8(sp)
 210              		.cfi_restore 8
 211 0078 9244     		lw	s1,4(sp)
 212              		.cfi_restore 9
 213              	.LVL23:
 214 007a 0249     		lw	s2,0(sp)
 215              		.cfi_restore 18
 216              	.LVL24:
 217 007c 4101     		addi	sp,sp,16
 218              	.LCFI7:
 219              		.cfi_def_cfa_offset 0
 220 007e 8280     		jr	ra
 221              	.LVL25:
 222              	.L10:
 223              	.LCFI8:
 224              		.cfi_restore_state
 116:../Firmware/GD32VF103_standard_peripheral/Source/gd32vf103_i2c.c ****         /* the maximum SCL rise time is 300ns in fast mode */
 225              		.loc 1 116 12 is_stmt 1
 116:../Firmware/GD32VF103_standard_peripheral/Source/gd32vf103_i2c.c ****         /* the maximum SCL rise time is 300ns in fast mode */
 226              		.loc 1 116 15 is_stmt 0
 227 0080 B7270600 		li	a5,401408
 228 0084 938707A8 		addi	a5,a5,-1408
 229 0088 E3E687FE 		bgtu	s0,a5,.L8
 118:../Firmware/GD32VF103_standard_peripheral/Source/gd32vf103_i2c.c ****                 / (uint32_t) 1000U) + (uint32_t) 1U);
 230              		.loc 1 118 9 is_stmt 1
 118:../Firmware/GD32VF103_standard_peripheral/Source/gd32vf103_i2c.c ****                 / (uint32_t) 1000U) + (uint32_t) 1U);
 231              		.loc 1 118 49 is_stmt 0
 232 008c 9307C012 		li	a5,300
 233 0090 B386F602 		mul	a3,a3,a5
 234              	.LVL26:
 119:../Firmware/GD32VF103_standard_peripheral/Source/gd32vf103_i2c.c ****         if (I2C_DTCY_2 == dutycyc) {
GAS LISTING /tmp/cc0dKmfh.s 			page 8


 235              		.loc 1 119 17
 236 0094 9307803E 		li	a5,1000
 122:../Firmware/GD32VF103_standard_peripheral/Source/gd32vf103_i2c.c ****             I2C_CKCFG(i2c_periph) &= ~I2C_CKCFG_DTCY;
 237              		.loc 1 122 50
 238 0098 93151400 		slli	a1,s0,1
 119:../Firmware/GD32VF103_standard_peripheral/Source/gd32vf103_i2c.c ****         if (I2C_DTCY_2 == dutycyc) {
 239              		.loc 1 119 17
 240 009c B3D6F602 		divu	a3,a3,a5
 118:../Firmware/GD32VF103_standard_peripheral/Source/gd32vf103_i2c.c ****                 / (uint32_t) 1000U) + (uint32_t) 1U);
 241              		.loc 1 118 30
 242 00a0 8506     		addi	a3,a3,1
 118:../Firmware/GD32VF103_standard_peripheral/Source/gd32vf103_i2c.c ****                 / (uint32_t) 1000U) + (uint32_t) 1U);
 243              		.loc 1 118 28
 244 00a2 94D0     		sw	a3,32(s1)
 120:../Firmware/GD32VF103_standard_peripheral/Source/gd32vf103_i2c.c ****             /* I2C duty cycle is 2 */
 245              		.loc 1 120 9 is_stmt 1
 120:../Firmware/GD32VF103_standard_peripheral/Source/gd32vf103_i2c.c ****             /* I2C duty cycle is 2 */
 246              		.loc 1 120 12 is_stmt 0
 247 00a4 63140904 		bne	s2,zero,.L16
 122:../Firmware/GD32VF103_standard_peripheral/Source/gd32vf103_i2c.c ****             I2C_CKCFG(i2c_periph) &= ~I2C_CKCFG_DTCY;
 248              		.loc 1 122 13 is_stmt 1
 122:../Firmware/GD32VF103_standard_peripheral/Source/gd32vf103_i2c.c ****             I2C_CKCFG(i2c_periph) &= ~I2C_CKCFG_DTCY;
 249              		.loc 1 122 50 is_stmt 0
 250 00a8 2E94     		add	s0,a1,s0
 251              	.LVL27:
 122:../Firmware/GD32VF103_standard_peripheral/Source/gd32vf103_i2c.c ****             I2C_CKCFG(i2c_periph) &= ~I2C_CKCFG_DTCY;
 252              		.loc 1 122 18
 253 00aa 33558502 		divu	a0,a0,s0
 254              	.LVL28:
 123:../Firmware/GD32VF103_standard_peripheral/Source/gd32vf103_i2c.c ****         } else {
 255              		.loc 1 123 13 is_stmt 1
 123:../Firmware/GD32VF103_standard_peripheral/Source/gd32vf103_i2c.c ****         } else {
 256              		.loc 1 123 35 is_stmt 0
 257 00ae DC4C     		lw	a5,28(s1)
 258 00b0 7177     		li	a4,-16384
 259              	.LVL29:
 260 00b2 7D17     		addi	a4,a4,-1
 261 00b4 F98F     		and	a5,a5,a4
 262 00b6 DCCC     		sw	a5,28(s1)
 129:../Firmware/GD32VF103_standard_peripheral/Source/gd32vf103_i2c.c ****             /* the CLKC in fast mode minmum value is 1 */
 263              		.loc 1 129 25
 264 00b8 93174501 		slli	a5,a0,20
 265 00bc D183     		srli	a5,a5,20
 266              	.L17:
 129:../Firmware/GD32VF103_standard_peripheral/Source/gd32vf103_i2c.c ****             /* the CLKC in fast mode minmum value is 1 */
 267              		.loc 1 129 9 is_stmt 1
 129:../Firmware/GD32VF103_standard_peripheral/Source/gd32vf103_i2c.c ****             /* the CLKC in fast mode minmum value is 1 */
 268              		.loc 1 129 12 is_stmt 0
 269 00be 99E3     		bne	a5,zero,.L18
 131:../Firmware/GD32VF103_standard_peripheral/Source/gd32vf103_i2c.c ****         }
 270              		.loc 1 131 13 is_stmt 1
 131:../Firmware/GD32VF103_standard_peripheral/Source/gd32vf103_i2c.c ****         }
 271              		.loc 1 131 18 is_stmt 0
 272 00c0 13651500 		ori	a0,a0,1
 273              	.LVL30:
 274              	.L18:
 133:../Firmware/GD32VF103_standard_peripheral/Source/gd32vf103_i2c.c ****         I2C_CKCFG(i2c_periph) |= clkc;
GAS LISTING /tmp/cc0dKmfh.s 			page 9


 275              		.loc 1 133 9 is_stmt 1
 133:../Firmware/GD32VF103_standard_peripheral/Source/gd32vf103_i2c.c ****         I2C_CKCFG(i2c_periph) |= clkc;
 276              		.loc 1 133 31 is_stmt 0
 277 00c4 DC4C     		lw	a5,28(s1)
 278 00c6 2167     		li	a4,32768
 279              		.loc 1 137 1
 280 00c8 B240     		lw	ra,12(sp)
 281              		.cfi_remember_state
 282              		.cfi_restore 1
 133:../Firmware/GD32VF103_standard_peripheral/Source/gd32vf103_i2c.c ****         I2C_CKCFG(i2c_periph) |= clkc;
 283              		.loc 1 133 31
 284 00ca D98F     		or	a5,a5,a4
 285 00cc DCCC     		sw	a5,28(s1)
 134:../Firmware/GD32VF103_standard_peripheral/Source/gd32vf103_i2c.c ****     } else {
 286              		.loc 1 134 9 is_stmt 1
 134:../Firmware/GD32VF103_standard_peripheral/Source/gd32vf103_i2c.c ****     } else {
 287              		.loc 1 134 31 is_stmt 0
 288 00ce C04C     		lw	s0,28(s1)
 289              		.loc 1 137 1
 290 00d0 0249     		lw	s2,0(sp)
 291              		.cfi_restore 18
 292              	.LVL31:
 134:../Firmware/GD32VF103_standard_peripheral/Source/gd32vf103_i2c.c ****     } else {
 293              		.loc 1 134 31
 294 00d2 418D     		or	a0,s0,a0
 295              	.LVL32:
 296              		.loc 1 137 1
 297 00d4 2244     		lw	s0,8(sp)
 298              		.cfi_restore 8
 134:../Firmware/GD32VF103_standard_peripheral/Source/gd32vf103_i2c.c ****     } else {
 299              		.loc 1 134 31
 300 00d6 C8CC     		sw	a0,28(s1)
 136:../Firmware/GD32VF103_standard_peripheral/Source/gd32vf103_i2c.c **** }
 301              		.loc 1 136 5 is_stmt 1
 302              		.loc 1 137 1 is_stmt 0
 303 00d8 9244     		lw	s1,4(sp)
 304              		.cfi_restore 9
 305              	.LVL33:
 306 00da 4101     		addi	sp,sp,16
 307              	.LCFI9:
 308              		.cfi_def_cfa_offset 0
 309 00dc 8280     		jr	ra
 310              	.LVL34:
 311              	.L11:
 312              	.LCFI10:
 313              		.cfi_restore_state
 104:../Firmware/GD32VF103_standard_peripheral/Source/gd32vf103_i2c.c ****             I2C_RT(i2c_periph) = I2CCLK_MIN;
 314              		.loc 1 104 16 is_stmt 1
 104:../Firmware/GD32VF103_standard_peripheral/Source/gd32vf103_i2c.c ****             I2C_RT(i2c_periph) = I2CCLK_MIN;
 315              		.loc 1 104 19 is_stmt 0
 316 00de 0947     		li	a4,2
 317 00e0 6364F700 		bgtu	a5,a4,.L13
 105:../Firmware/GD32VF103_standard_peripheral/Source/gd32vf103_i2c.c ****         } else {
 318              		.loc 1 105 13 is_stmt 1
 105:../Firmware/GD32VF103_standard_peripheral/Source/gd32vf103_i2c.c ****         } else {
 319              		.loc 1 105 32 is_stmt 0
 320 00e4 98D0     		sw	a4,32(s1)
GAS LISTING /tmp/cc0dKmfh.s 			page 10


 321              	.LVL35:
 322 00e6 9DBF     		j	.L12
 323              	.LVL36:
 324              	.L13:
 107:../Firmware/GD32VF103_standard_peripheral/Source/gd32vf103_i2c.c ****         }
 325              		.loc 1 107 13 is_stmt 1
 107:../Firmware/GD32VF103_standard_peripheral/Source/gd32vf103_i2c.c ****         }
 326              		.loc 1 107 32 is_stmt 0
 327 00e8 9CD0     		sw	a5,32(s1)
 328              	.LVL37:
 329 00ea 8DBF     		j	.L12
 330              	.LVL38:
 331              	.L16:
 126:../Firmware/GD32VF103_standard_peripheral/Source/gd32vf103_i2c.c ****             I2C_CKCFG(i2c_periph) |= I2C_CKCFG_DTCY;
 332              		.loc 1 126 13 is_stmt 1
 126:../Firmware/GD32VF103_standard_peripheral/Source/gd32vf103_i2c.c ****             I2C_CKCFG(i2c_periph) |= I2C_CKCFG_DTCY;
 333              		.loc 1 126 50 is_stmt 0
 334 00ec A295     		add	a1,a1,s0
 335 00ee 8E05     		slli	a1,a1,3
 336 00f0 2E94     		add	s0,a1,s0
 337              	.LVL39:
 126:../Firmware/GD32VF103_standard_peripheral/Source/gd32vf103_i2c.c ****             I2C_CKCFG(i2c_periph) |= I2C_CKCFG_DTCY;
 338              		.loc 1 126 18
 339 00f2 33558502 		divu	a0,a0,s0
 340              	.LVL40:
 127:../Firmware/GD32VF103_standard_peripheral/Source/gd32vf103_i2c.c ****         }
 341              		.loc 1 127 13 is_stmt 1
 127:../Firmware/GD32VF103_standard_peripheral/Source/gd32vf103_i2c.c ****         }
 342              		.loc 1 127 35 is_stmt 0
 343 00f6 DC4C     		lw	a5,28(s1)
 344 00f8 1167     		li	a4,16384
 345              	.LVL41:
 346 00fa D98F     		or	a5,a5,a4
 347 00fc DCCC     		sw	a5,28(s1)
 348 00fe AA87     		mv	a5,a0
 349 0100 7DBF     		j	.L17
 350              		.cfi_endproc
 351              	.LFE3:
 353              		.section	.text.i2c_mode_addr_config,"ax",@progbits
 354              		.align	1
 355              		.globl	i2c_mode_addr_config
 357              	i2c_mode_addr_config:
 358              	.LFB4:
 138:../Firmware/GD32VF103_standard_peripheral/Source/gd32vf103_i2c.c **** 
 139:../Firmware/GD32VF103_standard_peripheral/Source/gd32vf103_i2c.c **** /*!
 140:../Firmware/GD32VF103_standard_peripheral/Source/gd32vf103_i2c.c ****     \brief      configure I2C address 
 141:../Firmware/GD32VF103_standard_peripheral/Source/gd32vf103_i2c.c ****     \param[in]  i2c_periph: I2Cx(x=0,1)
 142:../Firmware/GD32VF103_standard_peripheral/Source/gd32vf103_i2c.c ****     \param[in]  mode:
 143:../Firmware/GD32VF103_standard_peripheral/Source/gd32vf103_i2c.c ****                 only one parameter can be selected which is shown as below:
 144:../Firmware/GD32VF103_standard_peripheral/Source/gd32vf103_i2c.c ****     \arg        I2C_I2CMODE_ENABLE: I2C mode
 145:../Firmware/GD32VF103_standard_peripheral/Source/gd32vf103_i2c.c ****     \arg        I2C_SMBUSMODE_ENABLE: SMBus mode
 146:../Firmware/GD32VF103_standard_peripheral/Source/gd32vf103_i2c.c ****     \param[in]  addformat: 7bits or 10bits
 147:../Firmware/GD32VF103_standard_peripheral/Source/gd32vf103_i2c.c ****                 only one parameter can be selected which is shown as below:
 148:../Firmware/GD32VF103_standard_peripheral/Source/gd32vf103_i2c.c ****     \arg        I2C_ADDFORMAT_7BITS: 7bits
 149:../Firmware/GD32VF103_standard_peripheral/Source/gd32vf103_i2c.c ****     \arg        I2C_ADDFORMAT_10BITS: 10bits
 150:../Firmware/GD32VF103_standard_peripheral/Source/gd32vf103_i2c.c ****     \param[in]  addr: I2C address
 151:../Firmware/GD32VF103_standard_peripheral/Source/gd32vf103_i2c.c ****     \param[out] none
GAS LISTING /tmp/cc0dKmfh.s 			page 11


 152:../Firmware/GD32VF103_standard_peripheral/Source/gd32vf103_i2c.c ****     \retval     none
 153:../Firmware/GD32VF103_standard_peripheral/Source/gd32vf103_i2c.c ****  */
 154:../Firmware/GD32VF103_standard_peripheral/Source/gd32vf103_i2c.c **** void i2c_mode_addr_config(uint32_t i2c_periph, uint32_t mode,uint32_t addformat, uint32_t addr) 
 155:../Firmware/GD32VF103_standard_peripheral/Source/gd32vf103_i2c.c **** {
 359              		.loc 1 155 1 is_stmt 1
 360              		.cfi_startproc
 361              	.LVL42:
 156:../Firmware/GD32VF103_standard_peripheral/Source/gd32vf103_i2c.c ****     /* SMBus/I2C mode selected */
 157:../Firmware/GD32VF103_standard_peripheral/Source/gd32vf103_i2c.c ****     uint32_t ctl = 0U;
 362              		.loc 1 157 5
 158:../Firmware/GD32VF103_standard_peripheral/Source/gd32vf103_i2c.c **** 
 159:../Firmware/GD32VF103_standard_peripheral/Source/gd32vf103_i2c.c ****     ctl = I2C_CTL0(i2c_periph);
 363              		.loc 1 159 5
 364              		.loc 1 159 9 is_stmt 0
 365 0000 1C41     		lw	a5,0(a0)
 366              	.LVL43:
 160:../Firmware/GD32VF103_standard_peripheral/Source/gd32vf103_i2c.c ****     ctl &= ~(I2C_CTL0_SMBEN);
 367              		.loc 1 160 5 is_stmt 1
 161:../Firmware/GD32VF103_standard_peripheral/Source/gd32vf103_i2c.c ****     ctl |= mode;
 162:../Firmware/GD32VF103_standard_peripheral/Source/gd32vf103_i2c.c ****     I2C_CTL0(i2c_periph) = ctl;
 163:../Firmware/GD32VF103_standard_peripheral/Source/gd32vf103_i2c.c ****     /* configure address */
 164:../Firmware/GD32VF103_standard_peripheral/Source/gd32vf103_i2c.c ****     addr = addr & I2C_ADDRESS_MASK;
 368              		.loc 1 164 10 is_stmt 0
 369 0002 93F6F63F 		andi	a3,a3,1023
 370              	.LVL44:
 165:../Firmware/GD32VF103_standard_peripheral/Source/gd32vf103_i2c.c ****     I2C_SADDR0(i2c_periph) = (addformat | addr);
 371              		.loc 1 165 41
 372 0006 D18E     		or	a3,a3,a2
 160:../Firmware/GD32VF103_standard_peripheral/Source/gd32vf103_i2c.c ****     ctl &= ~(I2C_CTL0_SMBEN);
 373              		.loc 1 160 9
 374 0008 F59B     		andi	a5,a5,-3
 375              	.LVL45:
 161:../Firmware/GD32VF103_standard_peripheral/Source/gd32vf103_i2c.c ****     ctl |= mode;
 376              		.loc 1 161 5 is_stmt 1
 161:../Firmware/GD32VF103_standard_peripheral/Source/gd32vf103_i2c.c ****     ctl |= mode;
 377              		.loc 1 161 9 is_stmt 0
 378 000a CD8F     		or	a5,a5,a1
 379              	.LVL46:
 162:../Firmware/GD32VF103_standard_peripheral/Source/gd32vf103_i2c.c ****     /* configure address */
 380              		.loc 1 162 5 is_stmt 1
 162:../Firmware/GD32VF103_standard_peripheral/Source/gd32vf103_i2c.c ****     /* configure address */
 381              		.loc 1 162 26 is_stmt 0
 382 000c 1CC1     		sw	a5,0(a0)
 164:../Firmware/GD32VF103_standard_peripheral/Source/gd32vf103_i2c.c ****     I2C_SADDR0(i2c_periph) = (addformat | addr);
 383              		.loc 1 164 5 is_stmt 1
 384              	.LVL47:
 385              		.loc 1 165 5
 386              		.loc 1 165 28 is_stmt 0
 387 000e 14C5     		sw	a3,8(a0)
 166:../Firmware/GD32VF103_standard_peripheral/Source/gd32vf103_i2c.c **** }
 388              		.loc 1 166 1
 389 0010 8280     		ret
 390              		.cfi_endproc
 391              	.LFE4:
 393              		.section	.text.i2c_smbus_type_config,"ax",@progbits
 394              		.align	1
 395              		.globl	i2c_smbus_type_config
GAS LISTING /tmp/cc0dKmfh.s 			page 12


 397              	i2c_smbus_type_config:
 398              	.LFB5:
 167:../Firmware/GD32VF103_standard_peripheral/Source/gd32vf103_i2c.c **** 
 168:../Firmware/GD32VF103_standard_peripheral/Source/gd32vf103_i2c.c **** /*!
 169:../Firmware/GD32VF103_standard_peripheral/Source/gd32vf103_i2c.c ****     \brief      SMBus type selection
 170:../Firmware/GD32VF103_standard_peripheral/Source/gd32vf103_i2c.c ****     \param[in]  i2c_periph: I2Cx(x=0,1)
 171:../Firmware/GD32VF103_standard_peripheral/Source/gd32vf103_i2c.c ****     \param[in]  type:
 172:../Firmware/GD32VF103_standard_peripheral/Source/gd32vf103_i2c.c ****                 only one parameter can be selected which is shown as below:
 173:../Firmware/GD32VF103_standard_peripheral/Source/gd32vf103_i2c.c ****     \arg        I2C_SMBUS_DEVICE: device
 174:../Firmware/GD32VF103_standard_peripheral/Source/gd32vf103_i2c.c ****     \arg        I2C_SMBUS_HOST: host
 175:../Firmware/GD32VF103_standard_peripheral/Source/gd32vf103_i2c.c ****     \param[out] none
 176:../Firmware/GD32VF103_standard_peripheral/Source/gd32vf103_i2c.c ****     \retval     none
 177:../Firmware/GD32VF103_standard_peripheral/Source/gd32vf103_i2c.c ****  */
 178:../Firmware/GD32VF103_standard_peripheral/Source/gd32vf103_i2c.c **** void i2c_smbus_type_config(uint32_t i2c_periph, uint32_t type)
 179:../Firmware/GD32VF103_standard_peripheral/Source/gd32vf103_i2c.c **** {
 399              		.loc 1 179 1 is_stmt 1
 400              		.cfi_startproc
 401              	.LVL48:
 180:../Firmware/GD32VF103_standard_peripheral/Source/gd32vf103_i2c.c ****     if (I2C_SMBUS_HOST == type) {
 402              		.loc 1 180 5
 403              		.loc 1 180 8 is_stmt 0
 404 0000 A147     		li	a5,8
 405 0002 6386F500 		beq	a1,a5,.L26
 181:../Firmware/GD32VF103_standard_peripheral/Source/gd32vf103_i2c.c ****         I2C_CTL0(i2c_periph) |= I2C_CTL0_SMBSEL;
 182:../Firmware/GD32VF103_standard_peripheral/Source/gd32vf103_i2c.c ****     } else {
 183:../Firmware/GD32VF103_standard_peripheral/Source/gd32vf103_i2c.c ****         I2C_CTL0(i2c_periph) &= ~(I2C_CTL0_SMBSEL);
 406              		.loc 1 183 9 is_stmt 1
 407              		.loc 1 183 30 is_stmt 0
 408 0006 1C41     		lw	a5,0(a0)
 409 0008 DD9B     		andi	a5,a5,-9
 410 000a 1CC1     		sw	a5,0(a0)
 184:../Firmware/GD32VF103_standard_peripheral/Source/gd32vf103_i2c.c ****     }
 185:../Firmware/GD32VF103_standard_peripheral/Source/gd32vf103_i2c.c **** }
 411              		.loc 1 185 1
 412 000c 8280     		ret
 413              	.L26:
 181:../Firmware/GD32VF103_standard_peripheral/Source/gd32vf103_i2c.c ****         I2C_CTL0(i2c_periph) |= I2C_CTL0_SMBSEL;
 414              		.loc 1 181 9 is_stmt 1
 181:../Firmware/GD32VF103_standard_peripheral/Source/gd32vf103_i2c.c ****         I2C_CTL0(i2c_periph) |= I2C_CTL0_SMBSEL;
 415              		.loc 1 181 30 is_stmt 0
 416 000e 1C41     		lw	a5,0(a0)
 417 0010 93E78700 		ori	a5,a5,8
 418 0014 1CC1     		sw	a5,0(a0)
 419 0016 8280     		ret
 420              		.cfi_endproc
 421              	.LFE5:
 423              		.section	.text.i2c_ack_config,"ax",@progbits
 424              		.align	1
 425              		.globl	i2c_ack_config
 427              	i2c_ack_config:
 428              	.LFB6:
 186:../Firmware/GD32VF103_standard_peripheral/Source/gd32vf103_i2c.c **** 
 187:../Firmware/GD32VF103_standard_peripheral/Source/gd32vf103_i2c.c **** /*!
 188:../Firmware/GD32VF103_standard_peripheral/Source/gd32vf103_i2c.c ****     \brief      whether or not to send an ACK
 189:../Firmware/GD32VF103_standard_peripheral/Source/gd32vf103_i2c.c ****     \param[in]  i2c_periph: I2Cx(x=0,1)
 190:../Firmware/GD32VF103_standard_peripheral/Source/gd32vf103_i2c.c ****     \param[in]  ack:
 191:../Firmware/GD32VF103_standard_peripheral/Source/gd32vf103_i2c.c ****                 only one parameter can be selected which is shown as below:
GAS LISTING /tmp/cc0dKmfh.s 			page 13


 192:../Firmware/GD32VF103_standard_peripheral/Source/gd32vf103_i2c.c ****     \arg        I2C_ACK_ENABLE: ACK will be sent
 193:../Firmware/GD32VF103_standard_peripheral/Source/gd32vf103_i2c.c ****     \arg        I2C_ACK_DISABLE: ACK will not be sent
 194:../Firmware/GD32VF103_standard_peripheral/Source/gd32vf103_i2c.c ****     \param[out] none
 195:../Firmware/GD32VF103_standard_peripheral/Source/gd32vf103_i2c.c ****     \retval     none
 196:../Firmware/GD32VF103_standard_peripheral/Source/gd32vf103_i2c.c ****  */
 197:../Firmware/GD32VF103_standard_peripheral/Source/gd32vf103_i2c.c **** void i2c_ack_config(uint32_t i2c_periph, uint32_t ack) 
 198:../Firmware/GD32VF103_standard_peripheral/Source/gd32vf103_i2c.c **** {
 429              		.loc 1 198 1 is_stmt 1
 430              		.cfi_startproc
 431              	.LVL49:
 199:../Firmware/GD32VF103_standard_peripheral/Source/gd32vf103_i2c.c ****     if (I2C_ACK_ENABLE == ack) {
 432              		.loc 1 199 5
 433              		.loc 1 199 8 is_stmt 0
 434 0000 8547     		li	a5,1
 435 0002 6387F500 		beq	a1,a5,.L30
 200:../Firmware/GD32VF103_standard_peripheral/Source/gd32vf103_i2c.c ****         I2C_CTL0(i2c_periph) |= I2C_CTL0_ACKEN;
 201:../Firmware/GD32VF103_standard_peripheral/Source/gd32vf103_i2c.c ****     } else {
 202:../Firmware/GD32VF103_standard_peripheral/Source/gd32vf103_i2c.c ****         I2C_CTL0(i2c_periph) &= ~(I2C_CTL0_ACKEN);
 436              		.loc 1 202 9 is_stmt 1
 437              		.loc 1 202 30 is_stmt 0
 438 0006 1C41     		lw	a5,0(a0)
 439 0008 93F7F7BF 		andi	a5,a5,-1025
 440 000c 1CC1     		sw	a5,0(a0)
 203:../Firmware/GD32VF103_standard_peripheral/Source/gd32vf103_i2c.c ****     }
 204:../Firmware/GD32VF103_standard_peripheral/Source/gd32vf103_i2c.c **** }
 441              		.loc 1 204 1
 442 000e 8280     		ret
 443              	.L30:
 200:../Firmware/GD32VF103_standard_peripheral/Source/gd32vf103_i2c.c ****         I2C_CTL0(i2c_periph) |= I2C_CTL0_ACKEN;
 444              		.loc 1 200 9 is_stmt 1
 200:../Firmware/GD32VF103_standard_peripheral/Source/gd32vf103_i2c.c ****         I2C_CTL0(i2c_periph) |= I2C_CTL0_ACKEN;
 445              		.loc 1 200 30 is_stmt 0
 446 0010 1C41     		lw	a5,0(a0)
 447 0012 93E70740 		ori	a5,a5,1024
 448 0016 1CC1     		sw	a5,0(a0)
 449 0018 8280     		ret
 450              		.cfi_endproc
 451              	.LFE6:
 453              		.section	.text.i2c_ackpos_config,"ax",@progbits
 454              		.align	1
 455              		.globl	i2c_ackpos_config
 457              	i2c_ackpos_config:
 458              	.LFB7:
 205:../Firmware/GD32VF103_standard_peripheral/Source/gd32vf103_i2c.c **** 
 206:../Firmware/GD32VF103_standard_peripheral/Source/gd32vf103_i2c.c **** /*!
 207:../Firmware/GD32VF103_standard_peripheral/Source/gd32vf103_i2c.c ****     \brief      configure I2C POAP position
 208:../Firmware/GD32VF103_standard_peripheral/Source/gd32vf103_i2c.c ****     \param[in]  i2c_periph: I2Cx(x=0,1)
 209:../Firmware/GD32VF103_standard_peripheral/Source/gd32vf103_i2c.c ****     \param[in]  pos:
 210:../Firmware/GD32VF103_standard_peripheral/Source/gd32vf103_i2c.c ****                 only one parameter can be selected which is shown as below:
 211:../Firmware/GD32VF103_standard_peripheral/Source/gd32vf103_i2c.c ****     \arg        I2C_ACKPOS_CURRENT: whether to send ACK or not for the current
 212:../Firmware/GD32VF103_standard_peripheral/Source/gd32vf103_i2c.c ****     \arg        I2C_ACKPOS_NEXT: whether to send ACK or not for the next byte
 213:../Firmware/GD32VF103_standard_peripheral/Source/gd32vf103_i2c.c ****     \param[out] none
 214:../Firmware/GD32VF103_standard_peripheral/Source/gd32vf103_i2c.c ****     \retval     none
 215:../Firmware/GD32VF103_standard_peripheral/Source/gd32vf103_i2c.c ****  */
 216:../Firmware/GD32VF103_standard_peripheral/Source/gd32vf103_i2c.c **** void i2c_ackpos_config(uint32_t i2c_periph, uint32_t pos) 
 217:../Firmware/GD32VF103_standard_peripheral/Source/gd32vf103_i2c.c **** {
 459              		.loc 1 217 1 is_stmt 1
GAS LISTING /tmp/cc0dKmfh.s 			page 14


 460              		.cfi_startproc
 461              	.LVL50:
 218:../Firmware/GD32VF103_standard_peripheral/Source/gd32vf103_i2c.c ****     /* configure I2C POAP position */
 219:../Firmware/GD32VF103_standard_peripheral/Source/gd32vf103_i2c.c ****     if (I2C_ACKPOS_NEXT == pos) {
 462              		.loc 1 219 5
 220:../Firmware/GD32VF103_standard_peripheral/Source/gd32vf103_i2c.c ****         I2C_CTL0(i2c_periph) |= I2C_CTL0_POAP;
 463              		.loc 1 220 30 is_stmt 0
 464 0000 1C41     		lw	a5,0(a0)
 219:../Firmware/GD32VF103_standard_peripheral/Source/gd32vf103_i2c.c ****         I2C_CTL0(i2c_periph) |= I2C_CTL0_POAP;
 465              		.loc 1 219 8
 466 0002 99E5     		bne	a1,zero,.L32
 467              		.loc 1 220 9 is_stmt 1
 468              		.loc 1 220 30 is_stmt 0
 469 0004 0567     		li	a4,4096
 470 0006 13070780 		addi	a4,a4,-2048
 471 000a D98F     		or	a5,a5,a4
 472 000c 1CC1     		sw	a5,0(a0)
 473 000e 8280     		ret
 474              	.L32:
 221:../Firmware/GD32VF103_standard_peripheral/Source/gd32vf103_i2c.c ****     } else {
 222:../Firmware/GD32VF103_standard_peripheral/Source/gd32vf103_i2c.c ****         I2C_CTL0(i2c_periph) &= ~(I2C_CTL0_POAP);
 475              		.loc 1 222 9 is_stmt 1
 476              		.loc 1 222 30 is_stmt 0
 477 0010 7D77     		li	a4,-4096
 478 0012 1307F77F 		addi	a4,a4,2047
 479 0016 F98F     		and	a5,a5,a4
 480 0018 1CC1     		sw	a5,0(a0)
 223:../Firmware/GD32VF103_standard_peripheral/Source/gd32vf103_i2c.c ****     }
 224:../Firmware/GD32VF103_standard_peripheral/Source/gd32vf103_i2c.c **** }
 481              		.loc 1 224 1
 482 001a 8280     		ret
 483              		.cfi_endproc
 484              	.LFE7:
 486              		.section	.text.i2c_master_addressing,"ax",@progbits
 487              		.align	1
 488              		.globl	i2c_master_addressing
 490              	i2c_master_addressing:
 491              	.LFB8:
 225:../Firmware/GD32VF103_standard_peripheral/Source/gd32vf103_i2c.c **** 
 226:../Firmware/GD32VF103_standard_peripheral/Source/gd32vf103_i2c.c **** /*!
 227:../Firmware/GD32VF103_standard_peripheral/Source/gd32vf103_i2c.c ****     \brief      master sends slave address
 228:../Firmware/GD32VF103_standard_peripheral/Source/gd32vf103_i2c.c ****     \param[in]  i2c_periph: I2Cx(x=0,1)
 229:../Firmware/GD32VF103_standard_peripheral/Source/gd32vf103_i2c.c ****     \param[in]  addr: slave address  
 230:../Firmware/GD32VF103_standard_peripheral/Source/gd32vf103_i2c.c ****     \param[in]  trandirection: transmitter or receiver
 231:../Firmware/GD32VF103_standard_peripheral/Source/gd32vf103_i2c.c ****                 only one parameter can be selected which is shown as below:
 232:../Firmware/GD32VF103_standard_peripheral/Source/gd32vf103_i2c.c ****     \arg        I2C_TRANSMITTER: transmitter  
 233:../Firmware/GD32VF103_standard_peripheral/Source/gd32vf103_i2c.c ****     \arg        I2C_RECEIVER:    receiver  
 234:../Firmware/GD32VF103_standard_peripheral/Source/gd32vf103_i2c.c ****     \param[out] none
 235:../Firmware/GD32VF103_standard_peripheral/Source/gd32vf103_i2c.c ****     \retval     none
 236:../Firmware/GD32VF103_standard_peripheral/Source/gd32vf103_i2c.c ****  */
 237:../Firmware/GD32VF103_standard_peripheral/Source/gd32vf103_i2c.c **** void i2c_master_addressing(uint32_t i2c_periph, uint32_t addr,uint32_t trandirection) 
 238:../Firmware/GD32VF103_standard_peripheral/Source/gd32vf103_i2c.c **** {
 492              		.loc 1 238 1 is_stmt 1
 493              		.cfi_startproc
 494              	.LVL51:
 239:../Firmware/GD32VF103_standard_peripheral/Source/gd32vf103_i2c.c ****     /* master is a transmitter or a receiver */
 240:../Firmware/GD32VF103_standard_peripheral/Source/gd32vf103_i2c.c ****     if (I2C_TRANSMITTER == trandirection) {
GAS LISTING /tmp/cc0dKmfh.s 			page 15


 495              		.loc 1 240 5
 496              		.loc 1 240 8 is_stmt 0
 497 0000 7957     		li	a4,-2
 241:../Firmware/GD32VF103_standard_peripheral/Source/gd32vf103_i2c.c ****         addr = addr & I2C_TRANSMITTER;
 242:../Firmware/GD32VF103_standard_peripheral/Source/gd32vf103_i2c.c ****     } else {
 243:../Firmware/GD32VF103_standard_peripheral/Source/gd32vf103_i2c.c ****         addr = addr | I2C_RECEIVER;
 498              		.loc 1 243 14
 499 0002 93E71500 		ori	a5,a1,1
 240:../Firmware/GD32VF103_standard_peripheral/Source/gd32vf103_i2c.c ****         addr = addr & I2C_TRANSMITTER;
 500              		.loc 1 240 8
 501 0006 6314E600 		bne	a2,a4,.L36
 241:../Firmware/GD32VF103_standard_peripheral/Source/gd32vf103_i2c.c ****         addr = addr & I2C_TRANSMITTER;
 502              		.loc 1 241 9 is_stmt 1
 241:../Firmware/GD32VF103_standard_peripheral/Source/gd32vf103_i2c.c ****         addr = addr & I2C_TRANSMITTER;
 503              		.loc 1 241 14 is_stmt 0
 504 000a 93F7E5FF 		andi	a5,a1,-2
 505              	.LVL52:
 506              	.L36:
 244:../Firmware/GD32VF103_standard_peripheral/Source/gd32vf103_i2c.c ****     }
 245:../Firmware/GD32VF103_standard_peripheral/Source/gd32vf103_i2c.c ****     /* send slave address */
 246:../Firmware/GD32VF103_standard_peripheral/Source/gd32vf103_i2c.c ****     I2C_DATA(i2c_periph) = addr;
 507              		.loc 1 246 5 is_stmt 1
 508              		.loc 1 246 26 is_stmt 0
 509 000e 1CC9     		sw	a5,16(a0)
 247:../Firmware/GD32VF103_standard_peripheral/Source/gd32vf103_i2c.c **** }
 510              		.loc 1 247 1
 511 0010 8280     		ret
 512              		.cfi_endproc
 513              	.LFE8:
 515              		.section	.text.i2c_saddr1_config,"ax",@progbits
 516              		.align	1
 517              		.globl	i2c_saddr1_config
 519              	i2c_saddr1_config:
 520              	.LFB9:
 248:../Firmware/GD32VF103_standard_peripheral/Source/gd32vf103_i2c.c **** 
 249:../Firmware/GD32VF103_standard_peripheral/Source/gd32vf103_i2c.c **** /*!
 250:../Firmware/GD32VF103_standard_peripheral/Source/gd32vf103_i2c.c ****     \brief      configure I2C saddress1
 251:../Firmware/GD32VF103_standard_peripheral/Source/gd32vf103_i2c.c ****     \param[in]  i2c_periph: I2Cx(x=0,1)
 252:../Firmware/GD32VF103_standard_peripheral/Source/gd32vf103_i2c.c ****     \param[in]  addr: I2C address
 253:../Firmware/GD32VF103_standard_peripheral/Source/gd32vf103_i2c.c ****     \param[out] none
 254:../Firmware/GD32VF103_standard_peripheral/Source/gd32vf103_i2c.c ****     \retval     none
 255:../Firmware/GD32VF103_standard_peripheral/Source/gd32vf103_i2c.c **** */
 256:../Firmware/GD32VF103_standard_peripheral/Source/gd32vf103_i2c.c **** void i2c_saddr1_config(uint32_t i2c_periph,uint32_t addr) 
 257:../Firmware/GD32VF103_standard_peripheral/Source/gd32vf103_i2c.c **** {
 521              		.loc 1 257 1 is_stmt 1
 522              		.cfi_startproc
 523              	.LVL53:
 258:../Firmware/GD32VF103_standard_peripheral/Source/gd32vf103_i2c.c ****     /* configure saddress1 */
 259:../Firmware/GD32VF103_standard_peripheral/Source/gd32vf103_i2c.c ****     I2C_SADDR1(i2c_periph) = (0xFE & addr);
 524              		.loc 1 259 5
 525              		.loc 1 259 36 is_stmt 0
 526 0000 93F5E50F 		andi	a1,a1,254
 527              	.LVL54:
 528              		.loc 1 259 28
 529 0004 4CC5     		sw	a1,12(a0)
 260:../Firmware/GD32VF103_standard_peripheral/Source/gd32vf103_i2c.c **** }
 530              		.loc 1 260 1
GAS LISTING /tmp/cc0dKmfh.s 			page 16


 531 0006 8280     		ret
 532              		.cfi_endproc
 533              	.LFE9:
 535              		.section	.text.i2c_dualaddr_enable,"ax",@progbits
 536              		.align	1
 537              		.globl	i2c_dualaddr_enable
 539              	i2c_dualaddr_enable:
 540              	.LFB10:
 261:../Firmware/GD32VF103_standard_peripheral/Source/gd32vf103_i2c.c **** 
 262:../Firmware/GD32VF103_standard_peripheral/Source/gd32vf103_i2c.c **** /*!
 263:../Firmware/GD32VF103_standard_peripheral/Source/gd32vf103_i2c.c ****     \brief      enable dual-address mode
 264:../Firmware/GD32VF103_standard_peripheral/Source/gd32vf103_i2c.c ****     \param[in]  i2c_periph: I2Cx(x=0,1)
 265:../Firmware/GD32VF103_standard_peripheral/Source/gd32vf103_i2c.c ****     \param[in]  addr: the second address in dual-address mode
 266:../Firmware/GD32VF103_standard_peripheral/Source/gd32vf103_i2c.c ****     \param[out] none
 267:../Firmware/GD32VF103_standard_peripheral/Source/gd32vf103_i2c.c ****     \retval     none
 268:../Firmware/GD32VF103_standard_peripheral/Source/gd32vf103_i2c.c **** */
 269:../Firmware/GD32VF103_standard_peripheral/Source/gd32vf103_i2c.c **** void i2c_dualaddr_enable(uint32_t i2c_periph, uint32_t addr) 
 270:../Firmware/GD32VF103_standard_peripheral/Source/gd32vf103_i2c.c **** {
 541              		.loc 1 270 1 is_stmt 1
 542              		.cfi_startproc
 543              	.LVL55:
 271:../Firmware/GD32VF103_standard_peripheral/Source/gd32vf103_i2c.c ****     /* configure address */
 272:../Firmware/GD32VF103_standard_peripheral/Source/gd32vf103_i2c.c ****     addr = addr & I2C_ADDRESS2_MASK;
 544              		.loc 1 272 5
 273:../Firmware/GD32VF103_standard_peripheral/Source/gd32vf103_i2c.c ****     I2C_SADDR1(i2c_periph) = (I2C_SADDR1_DUADEN | addr);
 545              		.loc 1 273 5
 272:../Firmware/GD32VF103_standard_peripheral/Source/gd32vf103_i2c.c ****     I2C_SADDR1(i2c_periph) = (I2C_SADDR1_DUADEN | addr);
 546              		.loc 1 272 10 is_stmt 0
 547 0000 93F5E50F 		andi	a1,a1,254
 548              	.LVL56:
 549              		.loc 1 273 49
 550 0004 93E51500 		ori	a1,a1,1
 551              	.LVL57:
 552              		.loc 1 273 28
 553 0008 4CC5     		sw	a1,12(a0)
 274:../Firmware/GD32VF103_standard_peripheral/Source/gd32vf103_i2c.c **** }
 554              		.loc 1 274 1
 555 000a 8280     		ret
 556              		.cfi_endproc
 557              	.LFE10:
 559              		.section	.text.i2c_dualaddr_disable,"ax",@progbits
 560              		.align	1
 561              		.globl	i2c_dualaddr_disable
 563              	i2c_dualaddr_disable:
 564              	.LFB11:
 275:../Firmware/GD32VF103_standard_peripheral/Source/gd32vf103_i2c.c **** 
 276:../Firmware/GD32VF103_standard_peripheral/Source/gd32vf103_i2c.c **** /*!
 277:../Firmware/GD32VF103_standard_peripheral/Source/gd32vf103_i2c.c ****     \brief      disable dual-address mode
 278:../Firmware/GD32VF103_standard_peripheral/Source/gd32vf103_i2c.c ****     \param[in]  i2c_periph: I2Cx(x=0,1) 
 279:../Firmware/GD32VF103_standard_peripheral/Source/gd32vf103_i2c.c ****     \param[out] none
 280:../Firmware/GD32VF103_standard_peripheral/Source/gd32vf103_i2c.c ****     \retval     none
 281:../Firmware/GD32VF103_standard_peripheral/Source/gd32vf103_i2c.c **** */
 282:../Firmware/GD32VF103_standard_peripheral/Source/gd32vf103_i2c.c **** void i2c_dualaddr_disable(uint32_t i2c_periph)
 283:../Firmware/GD32VF103_standard_peripheral/Source/gd32vf103_i2c.c **** {
 565              		.loc 1 283 1 is_stmt 1
 566              		.cfi_startproc
 567              	.LVL58:
GAS LISTING /tmp/cc0dKmfh.s 			page 17


 284:../Firmware/GD32VF103_standard_peripheral/Source/gd32vf103_i2c.c ****     I2C_SADDR1(i2c_periph) &= ~(I2C_SADDR1_DUADEN);
 568              		.loc 1 284 5
 569              		.loc 1 284 28 is_stmt 0
 570 0000 5C45     		lw	a5,12(a0)
 571 0002 F99B     		andi	a5,a5,-2
 572 0004 5CC5     		sw	a5,12(a0)
 285:../Firmware/GD32VF103_standard_peripheral/Source/gd32vf103_i2c.c **** }
 573              		.loc 1 285 1
 574 0006 8280     		ret
 575              		.cfi_endproc
 576              	.LFE11:
 578              		.section	.text.i2c_enable,"ax",@progbits
 579              		.align	1
 580              		.globl	i2c_enable
 582              	i2c_enable:
 583              	.LFB12:
 286:../Firmware/GD32VF103_standard_peripheral/Source/gd32vf103_i2c.c **** 
 287:../Firmware/GD32VF103_standard_peripheral/Source/gd32vf103_i2c.c **** /*!
 288:../Firmware/GD32VF103_standard_peripheral/Source/gd32vf103_i2c.c ****     \brief      enable I2C
 289:../Firmware/GD32VF103_standard_peripheral/Source/gd32vf103_i2c.c ****     \param[in]  i2c_periph: I2Cx(x=0,1) 
 290:../Firmware/GD32VF103_standard_peripheral/Source/gd32vf103_i2c.c ****     \param[out] none
 291:../Firmware/GD32VF103_standard_peripheral/Source/gd32vf103_i2c.c ****     \retval     none
 292:../Firmware/GD32VF103_standard_peripheral/Source/gd32vf103_i2c.c ****  */
 293:../Firmware/GD32VF103_standard_peripheral/Source/gd32vf103_i2c.c **** void i2c_enable(uint32_t i2c_periph) 
 294:../Firmware/GD32VF103_standard_peripheral/Source/gd32vf103_i2c.c **** {
 584              		.loc 1 294 1 is_stmt 1
 585              		.cfi_startproc
 586              	.LVL59:
 295:../Firmware/GD32VF103_standard_peripheral/Source/gd32vf103_i2c.c ****     I2C_CTL0(i2c_periph) |= I2C_CTL0_I2CEN;
 587              		.loc 1 295 5
 588              		.loc 1 295 26 is_stmt 0
 589 0000 1C41     		lw	a5,0(a0)
 590 0002 93E71700 		ori	a5,a5,1
 591 0006 1CC1     		sw	a5,0(a0)
 296:../Firmware/GD32VF103_standard_peripheral/Source/gd32vf103_i2c.c **** }
 592              		.loc 1 296 1
 593 0008 8280     		ret
 594              		.cfi_endproc
 595              	.LFE12:
 597              		.section	.text.i2c_disable,"ax",@progbits
 598              		.align	1
 599              		.globl	i2c_disable
 601              	i2c_disable:
 602              	.LFB13:
 297:../Firmware/GD32VF103_standard_peripheral/Source/gd32vf103_i2c.c **** 
 298:../Firmware/GD32VF103_standard_peripheral/Source/gd32vf103_i2c.c **** /*!
 299:../Firmware/GD32VF103_standard_peripheral/Source/gd32vf103_i2c.c ****     \brief      disable I2C
 300:../Firmware/GD32VF103_standard_peripheral/Source/gd32vf103_i2c.c ****     \param[in]  i2c_periph: I2Cx(x=0,1) 
 301:../Firmware/GD32VF103_standard_peripheral/Source/gd32vf103_i2c.c ****     \param[out] none
 302:../Firmware/GD32VF103_standard_peripheral/Source/gd32vf103_i2c.c ****     \retval     none
 303:../Firmware/GD32VF103_standard_peripheral/Source/gd32vf103_i2c.c ****  */
 304:../Firmware/GD32VF103_standard_peripheral/Source/gd32vf103_i2c.c **** void i2c_disable(uint32_t i2c_periph) 
 305:../Firmware/GD32VF103_standard_peripheral/Source/gd32vf103_i2c.c **** {
 603              		.loc 1 305 1 is_stmt 1
 604              		.cfi_startproc
 605              	.LVL60:
 306:../Firmware/GD32VF103_standard_peripheral/Source/gd32vf103_i2c.c ****     I2C_CTL0(i2c_periph) &= ~(I2C_CTL0_I2CEN);
GAS LISTING /tmp/cc0dKmfh.s 			page 18


 606              		.loc 1 306 5
 607              		.loc 1 306 26 is_stmt 0
 608 0000 1C41     		lw	a5,0(a0)
 609 0002 F99B     		andi	a5,a5,-2
 610 0004 1CC1     		sw	a5,0(a0)
 307:../Firmware/GD32VF103_standard_peripheral/Source/gd32vf103_i2c.c **** }
 611              		.loc 1 307 1
 612 0006 8280     		ret
 613              		.cfi_endproc
 614              	.LFE13:
 616              		.section	.text.i2c_start_on_bus,"ax",@progbits
 617              		.align	1
 618              		.globl	i2c_start_on_bus
 620              	i2c_start_on_bus:
 621              	.LFB14:
 308:../Firmware/GD32VF103_standard_peripheral/Source/gd32vf103_i2c.c **** 
 309:../Firmware/GD32VF103_standard_peripheral/Source/gd32vf103_i2c.c **** /*!
 310:../Firmware/GD32VF103_standard_peripheral/Source/gd32vf103_i2c.c ****     \brief      generate a START condition on I2C bus
 311:../Firmware/GD32VF103_standard_peripheral/Source/gd32vf103_i2c.c ****     \param[in]  i2c_periph: I2Cx(x=0,1)
 312:../Firmware/GD32VF103_standard_peripheral/Source/gd32vf103_i2c.c ****     \param[out] none
 313:../Firmware/GD32VF103_standard_peripheral/Source/gd32vf103_i2c.c ****     \retval     none
 314:../Firmware/GD32VF103_standard_peripheral/Source/gd32vf103_i2c.c ****  */
 315:../Firmware/GD32VF103_standard_peripheral/Source/gd32vf103_i2c.c **** void i2c_start_on_bus(uint32_t i2c_periph) 
 316:../Firmware/GD32VF103_standard_peripheral/Source/gd32vf103_i2c.c **** {
 622              		.loc 1 316 1 is_stmt 1
 623              		.cfi_startproc
 624              	.LVL61:
 317:../Firmware/GD32VF103_standard_peripheral/Source/gd32vf103_i2c.c ****     I2C_CTL0(i2c_periph) |= I2C_CTL0_START;
 625              		.loc 1 317 5
 626              		.loc 1 317 26 is_stmt 0
 627 0000 1C41     		lw	a5,0(a0)
 628 0002 93E70710 		ori	a5,a5,256
 629 0006 1CC1     		sw	a5,0(a0)
 318:../Firmware/GD32VF103_standard_peripheral/Source/gd32vf103_i2c.c **** }
 630              		.loc 1 318 1
 631 0008 8280     		ret
 632              		.cfi_endproc
 633              	.LFE14:
 635              		.section	.text.i2c_stop_on_bus,"ax",@progbits
 636              		.align	1
 637              		.globl	i2c_stop_on_bus
 639              	i2c_stop_on_bus:
 640              	.LFB15:
 319:../Firmware/GD32VF103_standard_peripheral/Source/gd32vf103_i2c.c **** 
 320:../Firmware/GD32VF103_standard_peripheral/Source/gd32vf103_i2c.c **** /*!
 321:../Firmware/GD32VF103_standard_peripheral/Source/gd32vf103_i2c.c ****     \brief      generate a STOP condition on I2C bus
 322:../Firmware/GD32VF103_standard_peripheral/Source/gd32vf103_i2c.c ****     \param[in]  i2c_periph: I2Cx(x=0,1)
 323:../Firmware/GD32VF103_standard_peripheral/Source/gd32vf103_i2c.c ****     \param[out] none
 324:../Firmware/GD32VF103_standard_peripheral/Source/gd32vf103_i2c.c ****     \retval     none
 325:../Firmware/GD32VF103_standard_peripheral/Source/gd32vf103_i2c.c ****  */
 326:../Firmware/GD32VF103_standard_peripheral/Source/gd32vf103_i2c.c **** void i2c_stop_on_bus(uint32_t i2c_periph)
 327:../Firmware/GD32VF103_standard_peripheral/Source/gd32vf103_i2c.c **** {
 641              		.loc 1 327 1 is_stmt 1
 642              		.cfi_startproc
 643              	.LVL62:
 328:../Firmware/GD32VF103_standard_peripheral/Source/gd32vf103_i2c.c ****     I2C_CTL0(i2c_periph) |= I2C_CTL0_STOP;
 644              		.loc 1 328 5
GAS LISTING /tmp/cc0dKmfh.s 			page 19


 645              		.loc 1 328 26 is_stmt 0
 646 0000 1C41     		lw	a5,0(a0)
 647 0002 93E70720 		ori	a5,a5,512
 648 0006 1CC1     		sw	a5,0(a0)
 329:../Firmware/GD32VF103_standard_peripheral/Source/gd32vf103_i2c.c **** }
 649              		.loc 1 329 1
 650 0008 8280     		ret
 651              		.cfi_endproc
 652              	.LFE15:
 654              		.section	.text.i2c_data_transmit,"ax",@progbits
 655              		.align	1
 656              		.globl	i2c_data_transmit
 658              	i2c_data_transmit:
 659              	.LFB16:
 330:../Firmware/GD32VF103_standard_peripheral/Source/gd32vf103_i2c.c **** 
 331:../Firmware/GD32VF103_standard_peripheral/Source/gd32vf103_i2c.c **** /*!
 332:../Firmware/GD32VF103_standard_peripheral/Source/gd32vf103_i2c.c ****     \brief      I2C transmit data function
 333:../Firmware/GD32VF103_standard_peripheral/Source/gd32vf103_i2c.c ****     \param[in]  i2c_periph: I2Cx(x=0,1)
 334:../Firmware/GD32VF103_standard_peripheral/Source/gd32vf103_i2c.c ****     \param[in]  data: data of transmission 
 335:../Firmware/GD32VF103_standard_peripheral/Source/gd32vf103_i2c.c ****     \param[out] none
 336:../Firmware/GD32VF103_standard_peripheral/Source/gd32vf103_i2c.c ****     \retval     none
 337:../Firmware/GD32VF103_standard_peripheral/Source/gd32vf103_i2c.c ****  */
 338:../Firmware/GD32VF103_standard_peripheral/Source/gd32vf103_i2c.c **** void i2c_data_transmit(uint32_t i2c_periph, uint8_t data) 
 339:../Firmware/GD32VF103_standard_peripheral/Source/gd32vf103_i2c.c **** {
 660              		.loc 1 339 1 is_stmt 1
 661              		.cfi_startproc
 662              	.LVL63:
 340:../Firmware/GD32VF103_standard_peripheral/Source/gd32vf103_i2c.c ****     I2C_DATA(i2c_periph) = DATA_TRANS(data);
 663              		.loc 1 340 5
 664              		.loc 1 340 26 is_stmt 0
 665 0000 0CC9     		sw	a1,16(a0)
 341:../Firmware/GD32VF103_standard_peripheral/Source/gd32vf103_i2c.c **** }
 666              		.loc 1 341 1
 667 0002 8280     		ret
 668              		.cfi_endproc
 669              	.LFE16:
 671              		.section	.text.i2c_data_receive,"ax",@progbits
 672              		.align	1
 673              		.globl	i2c_data_receive
 675              	i2c_data_receive:
 676              	.LFB17:
 342:../Firmware/GD32VF103_standard_peripheral/Source/gd32vf103_i2c.c **** 
 343:../Firmware/GD32VF103_standard_peripheral/Source/gd32vf103_i2c.c **** /*!
 344:../Firmware/GD32VF103_standard_peripheral/Source/gd32vf103_i2c.c ****     \brief      I2C receive data function
 345:../Firmware/GD32VF103_standard_peripheral/Source/gd32vf103_i2c.c ****     \param[in]  i2c_periph: I2Cx(x=0,1)
 346:../Firmware/GD32VF103_standard_peripheral/Source/gd32vf103_i2c.c ****     \param[out] none
 347:../Firmware/GD32VF103_standard_peripheral/Source/gd32vf103_i2c.c ****     \retval     data of received
 348:../Firmware/GD32VF103_standard_peripheral/Source/gd32vf103_i2c.c ****  */
 349:../Firmware/GD32VF103_standard_peripheral/Source/gd32vf103_i2c.c **** uint8_t i2c_data_receive(uint32_t i2c_periph) 
 350:../Firmware/GD32VF103_standard_peripheral/Source/gd32vf103_i2c.c **** {
 677              		.loc 1 350 1 is_stmt 1
 678              		.cfi_startproc
 679              	.LVL64:
 351:../Firmware/GD32VF103_standard_peripheral/Source/gd32vf103_i2c.c ****     return (uint8_t) DATA_RECV(I2C_DATA(i2c_periph));
 680              		.loc 1 351 5
 681              		.loc 1 351 22 is_stmt 0
 682 0000 0849     		lw	a0,16(a0)
GAS LISTING /tmp/cc0dKmfh.s 			page 20


 683              	.LVL65:
 352:../Firmware/GD32VF103_standard_peripheral/Source/gd32vf103_i2c.c **** }
 684              		.loc 1 352 1
 685 0002 1375F50F 		andi	a0,a0,0xff
 686 0006 8280     		ret
 687              		.cfi_endproc
 688              	.LFE17:
 690              		.section	.text.i2c_dma_enable,"ax",@progbits
 691              		.align	1
 692              		.globl	i2c_dma_enable
 694              	i2c_dma_enable:
 695              	.LFB18:
 353:../Firmware/GD32VF103_standard_peripheral/Source/gd32vf103_i2c.c **** 
 354:../Firmware/GD32VF103_standard_peripheral/Source/gd32vf103_i2c.c **** /*!
 355:../Firmware/GD32VF103_standard_peripheral/Source/gd32vf103_i2c.c ****     \brief      enable I2C DMA mode 
 356:../Firmware/GD32VF103_standard_peripheral/Source/gd32vf103_i2c.c ****     \param[in]  i2c_periph: I2Cx(x=0,1)
 357:../Firmware/GD32VF103_standard_peripheral/Source/gd32vf103_i2c.c ****     \param[in]  dmastate:
 358:../Firmware/GD32VF103_standard_peripheral/Source/gd32vf103_i2c.c ****                 only one parameter can be selected which is shown as below:
 359:../Firmware/GD32VF103_standard_peripheral/Source/gd32vf103_i2c.c ****     \arg        I2C_DMA_ON: DMA mode enable
 360:../Firmware/GD32VF103_standard_peripheral/Source/gd32vf103_i2c.c ****     \arg        I2C_DMA_OFF: DMA mode disable
 361:../Firmware/GD32VF103_standard_peripheral/Source/gd32vf103_i2c.c ****     \param[out] none
 362:../Firmware/GD32VF103_standard_peripheral/Source/gd32vf103_i2c.c ****     \retval     none
 363:../Firmware/GD32VF103_standard_peripheral/Source/gd32vf103_i2c.c ****  */
 364:../Firmware/GD32VF103_standard_peripheral/Source/gd32vf103_i2c.c **** void i2c_dma_enable(uint32_t i2c_periph, uint32_t dmastate) 
 365:../Firmware/GD32VF103_standard_peripheral/Source/gd32vf103_i2c.c **** {
 696              		.loc 1 365 1 is_stmt 1
 697              		.cfi_startproc
 698              	.LVL66:
 366:../Firmware/GD32VF103_standard_peripheral/Source/gd32vf103_i2c.c ****     /* configure I2C DMA function */
 367:../Firmware/GD32VF103_standard_peripheral/Source/gd32vf103_i2c.c ****     uint32_t ctl = 0U;
 699              		.loc 1 367 5
 368:../Firmware/GD32VF103_standard_peripheral/Source/gd32vf103_i2c.c **** 
 369:../Firmware/GD32VF103_standard_peripheral/Source/gd32vf103_i2c.c ****     ctl = I2C_CTL1(i2c_periph);
 700              		.loc 1 369 5
 701              		.loc 1 369 9 is_stmt 0
 702 0000 5C41     		lw	a5,4(a0)
 703              	.LVL67:
 370:../Firmware/GD32VF103_standard_peripheral/Source/gd32vf103_i2c.c ****     ctl &= ~(I2C_CTL1_DMAON);
 704              		.loc 1 370 5 is_stmt 1
 705              		.loc 1 370 9 is_stmt 0
 706 0002 7D77     		li	a4,-4096
 707 0004 1307F77F 		addi	a4,a4,2047
 708 0008 F98F     		and	a5,a5,a4
 709              	.LVL68:
 371:../Firmware/GD32VF103_standard_peripheral/Source/gd32vf103_i2c.c ****     ctl |= dmastate;
 710              		.loc 1 371 5 is_stmt 1
 711              		.loc 1 371 9 is_stmt 0
 712 000a CD8F     		or	a5,a5,a1
 713              	.LVL69:
 372:../Firmware/GD32VF103_standard_peripheral/Source/gd32vf103_i2c.c ****     I2C_CTL1(i2c_periph) = ctl;
 714              		.loc 1 372 5 is_stmt 1
 715              		.loc 1 372 26 is_stmt 0
 716 000c 5CC1     		sw	a5,4(a0)
 373:../Firmware/GD32VF103_standard_peripheral/Source/gd32vf103_i2c.c **** }
 717              		.loc 1 373 1
 718 000e 8280     		ret
 719              		.cfi_endproc
GAS LISTING /tmp/cc0dKmfh.s 			page 21


 720              	.LFE18:
 722              		.section	.text.i2c_dma_last_transfer_config,"ax",@progbits
 723              		.align	1
 724              		.globl	i2c_dma_last_transfer_config
 726              	i2c_dma_last_transfer_config:
 727              	.LFB19:
 374:../Firmware/GD32VF103_standard_peripheral/Source/gd32vf103_i2c.c **** 
 375:../Firmware/GD32VF103_standard_peripheral/Source/gd32vf103_i2c.c **** /*!
 376:../Firmware/GD32VF103_standard_peripheral/Source/gd32vf103_i2c.c ****     \brief      configure whether next DMA EOT is DMA last transfer or not
 377:../Firmware/GD32VF103_standard_peripheral/Source/gd32vf103_i2c.c ****     \param[in]  i2c_periph: I2Cx(x=0,1)
 378:../Firmware/GD32VF103_standard_peripheral/Source/gd32vf103_i2c.c ****     \param[in]  dmalast:
 379:../Firmware/GD32VF103_standard_peripheral/Source/gd32vf103_i2c.c ****                 only one parameter can be selected which is shown as below:
 380:../Firmware/GD32VF103_standard_peripheral/Source/gd32vf103_i2c.c ****     \arg        I2C_DMALST_ON: next DMA EOT is the last transfer
 381:../Firmware/GD32VF103_standard_peripheral/Source/gd32vf103_i2c.c ****     \arg        I2C_DMALST_OFF: next DMA EOT is not the last transfer
 382:../Firmware/GD32VF103_standard_peripheral/Source/gd32vf103_i2c.c ****     \param[out] none
 383:../Firmware/GD32VF103_standard_peripheral/Source/gd32vf103_i2c.c ****     \retval     none
 384:../Firmware/GD32VF103_standard_peripheral/Source/gd32vf103_i2c.c ****  */
 385:../Firmware/GD32VF103_standard_peripheral/Source/gd32vf103_i2c.c **** void i2c_dma_last_transfer_config(uint32_t i2c_periph, uint32_t dmalast) 
 386:../Firmware/GD32VF103_standard_peripheral/Source/gd32vf103_i2c.c **** {
 728              		.loc 1 386 1 is_stmt 1
 729              		.cfi_startproc
 730              	.LVL70:
 387:../Firmware/GD32VF103_standard_peripheral/Source/gd32vf103_i2c.c ****     /* configure DMA last transfer */
 388:../Firmware/GD32VF103_standard_peripheral/Source/gd32vf103_i2c.c ****     uint32_t ctl = 0U;
 731              		.loc 1 388 5
 389:../Firmware/GD32VF103_standard_peripheral/Source/gd32vf103_i2c.c **** 
 390:../Firmware/GD32VF103_standard_peripheral/Source/gd32vf103_i2c.c ****     ctl = I2C_CTL1(i2c_periph);
 732              		.loc 1 390 5
 733              		.loc 1 390 9 is_stmt 0
 734 0000 5C41     		lw	a5,4(a0)
 735              	.LVL71:
 391:../Firmware/GD32VF103_standard_peripheral/Source/gd32vf103_i2c.c ****     ctl &= ~(I2C_CTL1_DMALST);
 736              		.loc 1 391 5 is_stmt 1
 737              		.loc 1 391 9 is_stmt 0
 738 0002 7D77     		li	a4,-4096
 739 0004 7D17     		addi	a4,a4,-1
 740 0006 F98F     		and	a5,a5,a4
 741              	.LVL72:
 392:../Firmware/GD32VF103_standard_peripheral/Source/gd32vf103_i2c.c ****     ctl |= dmalast;
 742              		.loc 1 392 5 is_stmt 1
 743              		.loc 1 392 9 is_stmt 0
 744 0008 CD8F     		or	a5,a5,a1
 745              	.LVL73:
 393:../Firmware/GD32VF103_standard_peripheral/Source/gd32vf103_i2c.c ****     I2C_CTL1(i2c_periph) = ctl;
 746              		.loc 1 393 5 is_stmt 1
 747              		.loc 1 393 26 is_stmt 0
 748 000a 5CC1     		sw	a5,4(a0)
 394:../Firmware/GD32VF103_standard_peripheral/Source/gd32vf103_i2c.c **** }
 749              		.loc 1 394 1
 750 000c 8280     		ret
 751              		.cfi_endproc
 752              	.LFE19:
 754              		.section	.text.i2c_stretch_scl_low_config,"ax",@progbits
 755              		.align	1
 756              		.globl	i2c_stretch_scl_low_config
 758              	i2c_stretch_scl_low_config:
 759              	.LFB20:
GAS LISTING /tmp/cc0dKmfh.s 			page 22


 395:../Firmware/GD32VF103_standard_peripheral/Source/gd32vf103_i2c.c **** 
 396:../Firmware/GD32VF103_standard_peripheral/Source/gd32vf103_i2c.c **** /*!
 397:../Firmware/GD32VF103_standard_peripheral/Source/gd32vf103_i2c.c ****     \brief      whether to stretch SCL low when data is not ready in slave mode 
 398:../Firmware/GD32VF103_standard_peripheral/Source/gd32vf103_i2c.c ****     \param[in]  i2c_periph: I2Cx(x=0,1)
 399:../Firmware/GD32VF103_standard_peripheral/Source/gd32vf103_i2c.c ****     \param[in]  stretchpara:
 400:../Firmware/GD32VF103_standard_peripheral/Source/gd32vf103_i2c.c ****                 only one parameter can be selected which is shown as below:
 401:../Firmware/GD32VF103_standard_peripheral/Source/gd32vf103_i2c.c ****     \arg        I2C_SCLSTRETCH_ENABLE: SCL stretching is enabled
 402:../Firmware/GD32VF103_standard_peripheral/Source/gd32vf103_i2c.c ****     \arg        I2C_SCLSTRETCH_DISABLE: SCL stretching is disabled
 403:../Firmware/GD32VF103_standard_peripheral/Source/gd32vf103_i2c.c ****     \param[out] none
 404:../Firmware/GD32VF103_standard_peripheral/Source/gd32vf103_i2c.c ****     \retval     none
 405:../Firmware/GD32VF103_standard_peripheral/Source/gd32vf103_i2c.c ****  */
 406:../Firmware/GD32VF103_standard_peripheral/Source/gd32vf103_i2c.c **** void i2c_stretch_scl_low_config(uint32_t i2c_periph, uint32_t stretchpara) 
 407:../Firmware/GD32VF103_standard_peripheral/Source/gd32vf103_i2c.c **** {
 760              		.loc 1 407 1 is_stmt 1
 761              		.cfi_startproc
 762              	.LVL74:
 408:../Firmware/GD32VF103_standard_peripheral/Source/gd32vf103_i2c.c ****     /* configure I2C SCL strerching enable or disable */
 409:../Firmware/GD32VF103_standard_peripheral/Source/gd32vf103_i2c.c ****     uint32_t ctl = 0U;
 763              		.loc 1 409 5
 410:../Firmware/GD32VF103_standard_peripheral/Source/gd32vf103_i2c.c **** 
 411:../Firmware/GD32VF103_standard_peripheral/Source/gd32vf103_i2c.c ****     ctl = I2C_CTL0(i2c_periph);
 764              		.loc 1 411 5
 765              		.loc 1 411 9 is_stmt 0
 766 0000 1C41     		lw	a5,0(a0)
 767              	.LVL75:
 412:../Firmware/GD32VF103_standard_peripheral/Source/gd32vf103_i2c.c ****     ctl &= ~(I2C_CTL0_SS);
 768              		.loc 1 412 5 is_stmt 1
 769              		.loc 1 412 9 is_stmt 0
 770 0002 93F7F7F7 		andi	a5,a5,-129
 771              	.LVL76:
 413:../Firmware/GD32VF103_standard_peripheral/Source/gd32vf103_i2c.c ****     ctl |= stretchpara;
 772              		.loc 1 413 5 is_stmt 1
 773              		.loc 1 413 9 is_stmt 0
 774 0006 CD8F     		or	a5,a5,a1
 775              	.LVL77:
 414:../Firmware/GD32VF103_standard_peripheral/Source/gd32vf103_i2c.c ****     I2C_CTL0(i2c_periph) = ctl;
 776              		.loc 1 414 5 is_stmt 1
 777              		.loc 1 414 26 is_stmt 0
 778 0008 1CC1     		sw	a5,0(a0)
 415:../Firmware/GD32VF103_standard_peripheral/Source/gd32vf103_i2c.c **** }
 779              		.loc 1 415 1
 780 000a 8280     		ret
 781              		.cfi_endproc
 782              	.LFE20:
 784              		.section	.text.i2c_slave_response_to_gcall_config,"ax",@progbits
 785              		.align	1
 786              		.globl	i2c_slave_response_to_gcall_config
 788              	i2c_slave_response_to_gcall_config:
 789              	.LFB21:
 416:../Firmware/GD32VF103_standard_peripheral/Source/gd32vf103_i2c.c **** 
 417:../Firmware/GD32VF103_standard_peripheral/Source/gd32vf103_i2c.c **** /*!
 418:../Firmware/GD32VF103_standard_peripheral/Source/gd32vf103_i2c.c ****     \brief      whether or not to response to a general call 
 419:../Firmware/GD32VF103_standard_peripheral/Source/gd32vf103_i2c.c ****     \param[in]  i2c_periph: I2Cx(x=0,1)
 420:../Firmware/GD32VF103_standard_peripheral/Source/gd32vf103_i2c.c ****     \param[in]  gcallpara:
 421:../Firmware/GD32VF103_standard_peripheral/Source/gd32vf103_i2c.c ****                 only one parameter can be selected which is shown as below:
 422:../Firmware/GD32VF103_standard_peripheral/Source/gd32vf103_i2c.c ****     \arg        I2C_GCEN_ENABLE: slave will response to a general call
 423:../Firmware/GD32VF103_standard_peripheral/Source/gd32vf103_i2c.c ****     \arg        I2C_GCEN_DISABLE: slave will not response to a general call
GAS LISTING /tmp/cc0dKmfh.s 			page 23


 424:../Firmware/GD32VF103_standard_peripheral/Source/gd32vf103_i2c.c ****     \param[out] none
 425:../Firmware/GD32VF103_standard_peripheral/Source/gd32vf103_i2c.c ****     \retval     none
 426:../Firmware/GD32VF103_standard_peripheral/Source/gd32vf103_i2c.c ****  */
 427:../Firmware/GD32VF103_standard_peripheral/Source/gd32vf103_i2c.c **** void i2c_slave_response_to_gcall_config(uint32_t i2c_periph, uint32_t gcallpara)
 428:../Firmware/GD32VF103_standard_peripheral/Source/gd32vf103_i2c.c **** {
 790              		.loc 1 428 1 is_stmt 1
 791              		.cfi_startproc
 792              	.LVL78:
 429:../Firmware/GD32VF103_standard_peripheral/Source/gd32vf103_i2c.c ****     /* configure slave response to a general call enable or disable */
 430:../Firmware/GD32VF103_standard_peripheral/Source/gd32vf103_i2c.c ****     uint32_t ctl = 0U;
 793              		.loc 1 430 5
 431:../Firmware/GD32VF103_standard_peripheral/Source/gd32vf103_i2c.c **** 
 432:../Firmware/GD32VF103_standard_peripheral/Source/gd32vf103_i2c.c ****     ctl = I2C_CTL0(i2c_periph);
 794              		.loc 1 432 5
 795              		.loc 1 432 9 is_stmt 0
 796 0000 1C41     		lw	a5,0(a0)
 797              	.LVL79:
 433:../Firmware/GD32VF103_standard_peripheral/Source/gd32vf103_i2c.c ****     ctl &= ~(I2C_CTL0_GCEN);
 798              		.loc 1 433 5 is_stmt 1
 799              		.loc 1 433 9 is_stmt 0
 800 0002 93F7F7FB 		andi	a5,a5,-65
 801              	.LVL80:
 434:../Firmware/GD32VF103_standard_peripheral/Source/gd32vf103_i2c.c ****     ctl |= gcallpara;
 802              		.loc 1 434 5 is_stmt 1
 803              		.loc 1 434 9 is_stmt 0
 804 0006 CD8F     		or	a5,a5,a1
 805              	.LVL81:
 435:../Firmware/GD32VF103_standard_peripheral/Source/gd32vf103_i2c.c ****     I2C_CTL0(i2c_periph) = ctl;
 806              		.loc 1 435 5 is_stmt 1
 807              		.loc 1 435 26 is_stmt 0
 808 0008 1CC1     		sw	a5,0(a0)
 436:../Firmware/GD32VF103_standard_peripheral/Source/gd32vf103_i2c.c **** }
 809              		.loc 1 436 1
 810 000a 8280     		ret
 811              		.cfi_endproc
 812              	.LFE21:
 814              		.section	.text.i2c_software_reset_config,"ax",@progbits
 815              		.align	1
 816              		.globl	i2c_software_reset_config
 818              	i2c_software_reset_config:
 819              	.LFB22:
 437:../Firmware/GD32VF103_standard_peripheral/Source/gd32vf103_i2c.c **** 
 438:../Firmware/GD32VF103_standard_peripheral/Source/gd32vf103_i2c.c **** /*!
 439:../Firmware/GD32VF103_standard_peripheral/Source/gd32vf103_i2c.c ****     \brief      software reset I2C 
 440:../Firmware/GD32VF103_standard_peripheral/Source/gd32vf103_i2c.c ****     \param[in]  i2c_periph: I2Cx(x=0,1)
 441:../Firmware/GD32VF103_standard_peripheral/Source/gd32vf103_i2c.c ****     \param[in]  sreset:
 442:../Firmware/GD32VF103_standard_peripheral/Source/gd32vf103_i2c.c ****                 only one parameter can be selected which is shown as below:
 443:../Firmware/GD32VF103_standard_peripheral/Source/gd32vf103_i2c.c ****     \arg        I2C_SRESET_SET: I2C is under reset
 444:../Firmware/GD32VF103_standard_peripheral/Source/gd32vf103_i2c.c ****     \arg        I2C_SRESET_RESET: I2C is not under reset
 445:../Firmware/GD32VF103_standard_peripheral/Source/gd32vf103_i2c.c ****     \param[out] none
 446:../Firmware/GD32VF103_standard_peripheral/Source/gd32vf103_i2c.c ****     \retval     none
 447:../Firmware/GD32VF103_standard_peripheral/Source/gd32vf103_i2c.c ****  */
 448:../Firmware/GD32VF103_standard_peripheral/Source/gd32vf103_i2c.c **** void i2c_software_reset_config(uint32_t i2c_periph, uint32_t sreset)
 449:../Firmware/GD32VF103_standard_peripheral/Source/gd32vf103_i2c.c **** {
 820              		.loc 1 449 1 is_stmt 1
 821              		.cfi_startproc
 822              	.LVL82:
GAS LISTING /tmp/cc0dKmfh.s 			page 24


 450:../Firmware/GD32VF103_standard_peripheral/Source/gd32vf103_i2c.c ****     /* modify CTL0 and configure software reset I2C state */
 451:../Firmware/GD32VF103_standard_peripheral/Source/gd32vf103_i2c.c ****     uint32_t ctl = 0U;
 823              		.loc 1 451 5
 452:../Firmware/GD32VF103_standard_peripheral/Source/gd32vf103_i2c.c **** 
 453:../Firmware/GD32VF103_standard_peripheral/Source/gd32vf103_i2c.c ****     ctl = I2C_CTL0(i2c_periph);
 824              		.loc 1 453 5
 825              		.loc 1 453 9 is_stmt 0
 826 0000 1C41     		lw	a5,0(a0)
 827              	.LVL83:
 454:../Firmware/GD32VF103_standard_peripheral/Source/gd32vf103_i2c.c ****     ctl &= ~(I2C_CTL0_SRESET);
 828              		.loc 1 454 5 is_stmt 1
 829              		.loc 1 454 9 is_stmt 0
 830 0002 6177     		li	a4,-32768
 831 0004 7D17     		addi	a4,a4,-1
 832 0006 F98F     		and	a5,a5,a4
 833              	.LVL84:
 455:../Firmware/GD32VF103_standard_peripheral/Source/gd32vf103_i2c.c ****     ctl |= sreset;
 834              		.loc 1 455 5 is_stmt 1
 835              		.loc 1 455 9 is_stmt 0
 836 0008 CD8F     		or	a5,a5,a1
 837              	.LVL85:
 456:../Firmware/GD32VF103_standard_peripheral/Source/gd32vf103_i2c.c ****     I2C_CTL0(i2c_periph) = ctl;
 838              		.loc 1 456 5 is_stmt 1
 839              		.loc 1 456 26 is_stmt 0
 840 000a 1CC1     		sw	a5,0(a0)
 457:../Firmware/GD32VF103_standard_peripheral/Source/gd32vf103_i2c.c **** }
 841              		.loc 1 457 1
 842 000c 8280     		ret
 843              		.cfi_endproc
 844              	.LFE22:
 846              		.section	.text.i2c_pec_enable,"ax",@progbits
 847              		.align	1
 848              		.globl	i2c_pec_enable
 850              	i2c_pec_enable:
 851              	.LFB23:
 458:../Firmware/GD32VF103_standard_peripheral/Source/gd32vf103_i2c.c **** 
 459:../Firmware/GD32VF103_standard_peripheral/Source/gd32vf103_i2c.c **** /*!
 460:../Firmware/GD32VF103_standard_peripheral/Source/gd32vf103_i2c.c ****     \brief      I2C PEC calculation on or off
 461:../Firmware/GD32VF103_standard_peripheral/Source/gd32vf103_i2c.c ****     \param[in]  i2c_periph: I2Cx(x=0,1)
 462:../Firmware/GD32VF103_standard_peripheral/Source/gd32vf103_i2c.c ****     \param[in]  pecpara:
 463:../Firmware/GD32VF103_standard_peripheral/Source/gd32vf103_i2c.c ****                 only one parameter can be selected which is shown as below:
 464:../Firmware/GD32VF103_standard_peripheral/Source/gd32vf103_i2c.c ****     \arg        I2C_PEC_ENABLE: PEC calculation on 
 465:../Firmware/GD32VF103_standard_peripheral/Source/gd32vf103_i2c.c ****     \arg        I2C_PEC_DISABLE: PEC calculation off 
 466:../Firmware/GD32VF103_standard_peripheral/Source/gd32vf103_i2c.c ****     \param[out] none
 467:../Firmware/GD32VF103_standard_peripheral/Source/gd32vf103_i2c.c ****     \retval     none
 468:../Firmware/GD32VF103_standard_peripheral/Source/gd32vf103_i2c.c ****  */
 469:../Firmware/GD32VF103_standard_peripheral/Source/gd32vf103_i2c.c **** void i2c_pec_enable(uint32_t i2c_periph, uint32_t pecstate) 
 470:../Firmware/GD32VF103_standard_peripheral/Source/gd32vf103_i2c.c **** {
 852              		.loc 1 470 1 is_stmt 1
 853              		.cfi_startproc
 854              	.LVL86:
 471:../Firmware/GD32VF103_standard_peripheral/Source/gd32vf103_i2c.c ****     /* on/off PEC calculation */
 472:../Firmware/GD32VF103_standard_peripheral/Source/gd32vf103_i2c.c ****     uint32_t ctl = 0U;
 855              		.loc 1 472 5
 473:../Firmware/GD32VF103_standard_peripheral/Source/gd32vf103_i2c.c **** 
 474:../Firmware/GD32VF103_standard_peripheral/Source/gd32vf103_i2c.c ****     ctl = I2C_CTL0(i2c_periph);
 856              		.loc 1 474 5
GAS LISTING /tmp/cc0dKmfh.s 			page 25


 857              		.loc 1 474 9 is_stmt 0
 858 0000 1C41     		lw	a5,0(a0)
 859              	.LVL87:
 475:../Firmware/GD32VF103_standard_peripheral/Source/gd32vf103_i2c.c ****     ctl &= ~(I2C_CTL0_PECEN);
 860              		.loc 1 475 5 is_stmt 1
 861              		.loc 1 475 9 is_stmt 0
 862 0002 93F7F7FD 		andi	a5,a5,-33
 863              	.LVL88:
 476:../Firmware/GD32VF103_standard_peripheral/Source/gd32vf103_i2c.c ****     ctl |= pecstate;
 864              		.loc 1 476 5 is_stmt 1
 865              		.loc 1 476 9 is_stmt 0
 866 0006 CD8F     		or	a5,a5,a1
 867              	.LVL89:
 477:../Firmware/GD32VF103_standard_peripheral/Source/gd32vf103_i2c.c ****     I2C_CTL0(i2c_periph) = ctl;
 868              		.loc 1 477 5 is_stmt 1
 869              		.loc 1 477 26 is_stmt 0
 870 0008 1CC1     		sw	a5,0(a0)
 478:../Firmware/GD32VF103_standard_peripheral/Source/gd32vf103_i2c.c **** }
 871              		.loc 1 478 1
 872 000a 8280     		ret
 873              		.cfi_endproc
 874              	.LFE23:
 876              		.section	.text.i2c_pec_transfer_enable,"ax",@progbits
 877              		.align	1
 878              		.globl	i2c_pec_transfer_enable
 880              	i2c_pec_transfer_enable:
 881              	.LFB24:
 479:../Firmware/GD32VF103_standard_peripheral/Source/gd32vf103_i2c.c **** 
 480:../Firmware/GD32VF103_standard_peripheral/Source/gd32vf103_i2c.c **** /*!
 481:../Firmware/GD32VF103_standard_peripheral/Source/gd32vf103_i2c.c ****     \brief      I2C whether to transfer PEC value
 482:../Firmware/GD32VF103_standard_peripheral/Source/gd32vf103_i2c.c ****     \param[in]  i2c_periph: I2Cx(x=0,1)
 483:../Firmware/GD32VF103_standard_peripheral/Source/gd32vf103_i2c.c ****     \param[in]  pecpara:
 484:../Firmware/GD32VF103_standard_peripheral/Source/gd32vf103_i2c.c ****                 only one parameter can be selected which is shown as below:
 485:../Firmware/GD32VF103_standard_peripheral/Source/gd32vf103_i2c.c ****     \arg        I2C_PECTRANS_ENABLE: transfer PEC 
 486:../Firmware/GD32VF103_standard_peripheral/Source/gd32vf103_i2c.c ****     \arg        I2C_PECTRANS_DISABLE: not transfer PEC 
 487:../Firmware/GD32VF103_standard_peripheral/Source/gd32vf103_i2c.c ****     \param[out] none
 488:../Firmware/GD32VF103_standard_peripheral/Source/gd32vf103_i2c.c ****     \retval     none
 489:../Firmware/GD32VF103_standard_peripheral/Source/gd32vf103_i2c.c ****  */
 490:../Firmware/GD32VF103_standard_peripheral/Source/gd32vf103_i2c.c **** void i2c_pec_transfer_enable(uint32_t i2c_periph, uint32_t pecpara) 
 491:../Firmware/GD32VF103_standard_peripheral/Source/gd32vf103_i2c.c **** {
 882              		.loc 1 491 1 is_stmt 1
 883              		.cfi_startproc
 884              	.LVL90:
 492:../Firmware/GD32VF103_standard_peripheral/Source/gd32vf103_i2c.c ****     /* whether to transfer PEC */
 493:../Firmware/GD32VF103_standard_peripheral/Source/gd32vf103_i2c.c ****     uint32_t ctl = 0U;
 885              		.loc 1 493 5
 494:../Firmware/GD32VF103_standard_peripheral/Source/gd32vf103_i2c.c **** 
 495:../Firmware/GD32VF103_standard_peripheral/Source/gd32vf103_i2c.c ****     ctl = I2C_CTL0(i2c_periph);
 886              		.loc 1 495 5
 887              		.loc 1 495 9 is_stmt 0
 888 0000 1C41     		lw	a5,0(a0)
 889              	.LVL91:
 496:../Firmware/GD32VF103_standard_peripheral/Source/gd32vf103_i2c.c ****     ctl &= ~(I2C_CTL0_PECTRANS);
 890              		.loc 1 496 5 is_stmt 1
 891              		.loc 1 496 9 is_stmt 0
 892 0002 7D77     		li	a4,-4096
 893 0004 7D17     		addi	a4,a4,-1
GAS LISTING /tmp/cc0dKmfh.s 			page 26


 894 0006 F98F     		and	a5,a5,a4
 895              	.LVL92:
 497:../Firmware/GD32VF103_standard_peripheral/Source/gd32vf103_i2c.c ****     ctl |= pecpara;
 896              		.loc 1 497 5 is_stmt 1
 897              		.loc 1 497 9 is_stmt 0
 898 0008 CD8F     		or	a5,a5,a1
 899              	.LVL93:
 498:../Firmware/GD32VF103_standard_peripheral/Source/gd32vf103_i2c.c ****     I2C_CTL0(i2c_periph) = ctl;
 900              		.loc 1 498 5 is_stmt 1
 901              		.loc 1 498 26 is_stmt 0
 902 000a 1CC1     		sw	a5,0(a0)
 499:../Firmware/GD32VF103_standard_peripheral/Source/gd32vf103_i2c.c **** }
 903              		.loc 1 499 1
 904 000c 8280     		ret
 905              		.cfi_endproc
 906              	.LFE24:
 908              		.section	.text.i2c_pec_value_get,"ax",@progbits
 909              		.align	1
 910              		.globl	i2c_pec_value_get
 912              	i2c_pec_value_get:
 913              	.LFB25:
 500:../Firmware/GD32VF103_standard_peripheral/Source/gd32vf103_i2c.c **** 
 501:../Firmware/GD32VF103_standard_peripheral/Source/gd32vf103_i2c.c **** /*!
 502:../Firmware/GD32VF103_standard_peripheral/Source/gd32vf103_i2c.c ****     \brief      get packet error checking value 
 503:../Firmware/GD32VF103_standard_peripheral/Source/gd32vf103_i2c.c ****     \param[in]  i2c_periph: I2Cx(x=0,1)
 504:../Firmware/GD32VF103_standard_peripheral/Source/gd32vf103_i2c.c ****     \param[out] none
 505:../Firmware/GD32VF103_standard_peripheral/Source/gd32vf103_i2c.c ****     \retval     PEC value
 506:../Firmware/GD32VF103_standard_peripheral/Source/gd32vf103_i2c.c ****  */
 507:../Firmware/GD32VF103_standard_peripheral/Source/gd32vf103_i2c.c **** uint8_t i2c_pec_value_get(uint32_t i2c_periph) 
 508:../Firmware/GD32VF103_standard_peripheral/Source/gd32vf103_i2c.c **** {
 914              		.loc 1 508 1 is_stmt 1
 915              		.cfi_startproc
 916              	.LVL94:
 509:../Firmware/GD32VF103_standard_peripheral/Source/gd32vf103_i2c.c ****     return (uint8_t) ((I2C_STAT1(i2c_periph) & I2C_STAT1_PECV)>> STAT1_PECV_OFFSET);
 917              		.loc 1 509 5
 918              		.loc 1 509 24 is_stmt 0
 919 0000 084D     		lw	a0,24(a0)
 920              	.LVL95:
 921              		.loc 1 509 63
 922 0002 2181     		srli	a0,a0,8
 510:../Firmware/GD32VF103_standard_peripheral/Source/gd32vf103_i2c.c **** }
 923              		.loc 1 510 1
 924 0004 1375F50F 		andi	a0,a0,0xff
 925 0008 8280     		ret
 926              		.cfi_endproc
 927              	.LFE25:
 929              		.section	.text.i2c_smbus_issue_alert,"ax",@progbits
 930              		.align	1
 931              		.globl	i2c_smbus_issue_alert
 933              	i2c_smbus_issue_alert:
 934              	.LFB26:
 511:../Firmware/GD32VF103_standard_peripheral/Source/gd32vf103_i2c.c **** 
 512:../Firmware/GD32VF103_standard_peripheral/Source/gd32vf103_i2c.c **** /*!
 513:../Firmware/GD32VF103_standard_peripheral/Source/gd32vf103_i2c.c ****     \brief      I2C issue alert through SMBA pin 
 514:../Firmware/GD32VF103_standard_peripheral/Source/gd32vf103_i2c.c ****     \param[in]  i2c_periph: I2Cx(x=0,1)
 515:../Firmware/GD32VF103_standard_peripheral/Source/gd32vf103_i2c.c ****     \param[in]  smbuspara:
 516:../Firmware/GD32VF103_standard_peripheral/Source/gd32vf103_i2c.c ****                 only one parameter can be selected which is shown as below:
GAS LISTING /tmp/cc0dKmfh.s 			page 27


 517:../Firmware/GD32VF103_standard_peripheral/Source/gd32vf103_i2c.c ****     \arg        I2C_SALTSEND_ENABLE: issue alert through SMBA pin 
 518:../Firmware/GD32VF103_standard_peripheral/Source/gd32vf103_i2c.c ****     \arg        I2C_SALTSEND_DISABLE: not issue alert through SMBA pin 
 519:../Firmware/GD32VF103_standard_peripheral/Source/gd32vf103_i2c.c ****     \param[out] none
 520:../Firmware/GD32VF103_standard_peripheral/Source/gd32vf103_i2c.c ****     \retval     none
 521:../Firmware/GD32VF103_standard_peripheral/Source/gd32vf103_i2c.c ****  */
 522:../Firmware/GD32VF103_standard_peripheral/Source/gd32vf103_i2c.c **** void i2c_smbus_issue_alert(uint32_t i2c_periph, uint32_t smbuspara) 
 523:../Firmware/GD32VF103_standard_peripheral/Source/gd32vf103_i2c.c **** {
 935              		.loc 1 523 1 is_stmt 1
 936              		.cfi_startproc
 937              	.LVL96:
 524:../Firmware/GD32VF103_standard_peripheral/Source/gd32vf103_i2c.c ****     /* issue alert through SMBA pin configure*/
 525:../Firmware/GD32VF103_standard_peripheral/Source/gd32vf103_i2c.c ****     uint32_t ctl = 0U;
 938              		.loc 1 525 5
 526:../Firmware/GD32VF103_standard_peripheral/Source/gd32vf103_i2c.c **** 
 527:../Firmware/GD32VF103_standard_peripheral/Source/gd32vf103_i2c.c ****     ctl = I2C_CTL0(i2c_periph);
 939              		.loc 1 527 5
 940              		.loc 1 527 9 is_stmt 0
 941 0000 1C41     		lw	a5,0(a0)
 942              	.LVL97:
 528:../Firmware/GD32VF103_standard_peripheral/Source/gd32vf103_i2c.c ****     ctl &= ~(I2C_CTL0_SALT);
 943              		.loc 1 528 5 is_stmt 1
 944              		.loc 1 528 9 is_stmt 0
 945 0002 7977     		li	a4,-8192
 946 0004 7D17     		addi	a4,a4,-1
 947 0006 F98F     		and	a5,a5,a4
 948              	.LVL98:
 529:../Firmware/GD32VF103_standard_peripheral/Source/gd32vf103_i2c.c ****     ctl |= smbuspara;
 949              		.loc 1 529 5 is_stmt 1
 950              		.loc 1 529 9 is_stmt 0
 951 0008 CD8F     		or	a5,a5,a1
 952              	.LVL99:
 530:../Firmware/GD32VF103_standard_peripheral/Source/gd32vf103_i2c.c ****     I2C_CTL0(i2c_periph) = ctl;
 953              		.loc 1 530 5 is_stmt 1
 954              		.loc 1 530 26 is_stmt 0
 955 000a 1CC1     		sw	a5,0(a0)
 531:../Firmware/GD32VF103_standard_peripheral/Source/gd32vf103_i2c.c **** }
 956              		.loc 1 531 1
 957 000c 8280     		ret
 958              		.cfi_endproc
 959              	.LFE26:
 961              		.section	.text.i2c_smbus_arp_enable,"ax",@progbits
 962              		.align	1
 963              		.globl	i2c_smbus_arp_enable
 965              	i2c_smbus_arp_enable:
 966              	.LFB27:
 532:../Firmware/GD32VF103_standard_peripheral/Source/gd32vf103_i2c.c **** 
 533:../Firmware/GD32VF103_standard_peripheral/Source/gd32vf103_i2c.c **** /*!
 534:../Firmware/GD32VF103_standard_peripheral/Source/gd32vf103_i2c.c ****     \brief      enable or disable I2C ARP protocol in SMBus switch
 535:../Firmware/GD32VF103_standard_peripheral/Source/gd32vf103_i2c.c ****     \param[in]  i2c_periph: I2Cx(x=0,1)
 536:../Firmware/GD32VF103_standard_peripheral/Source/gd32vf103_i2c.c ****     \param[in]  arpstate:
 537:../Firmware/GD32VF103_standard_peripheral/Source/gd32vf103_i2c.c ****                 only one parameter can be selected which is shown as below:
 538:../Firmware/GD32VF103_standard_peripheral/Source/gd32vf103_i2c.c ****     \arg        I2C_ARP_ENABLE: enable ARP
 539:../Firmware/GD32VF103_standard_peripheral/Source/gd32vf103_i2c.c ****     \arg        I2C_ARP_DISABLE: disable ARP
 540:../Firmware/GD32VF103_standard_peripheral/Source/gd32vf103_i2c.c ****     \param[out] none
 541:../Firmware/GD32VF103_standard_peripheral/Source/gd32vf103_i2c.c ****     \retval     none
 542:../Firmware/GD32VF103_standard_peripheral/Source/gd32vf103_i2c.c ****  */
 543:../Firmware/GD32VF103_standard_peripheral/Source/gd32vf103_i2c.c **** void i2c_smbus_arp_enable(uint32_t i2c_periph, uint32_t arpstate)
GAS LISTING /tmp/cc0dKmfh.s 			page 28


 544:../Firmware/GD32VF103_standard_peripheral/Source/gd32vf103_i2c.c **** {
 967              		.loc 1 544 1 is_stmt 1
 968              		.cfi_startproc
 969              	.LVL100:
 545:../Firmware/GD32VF103_standard_peripheral/Source/gd32vf103_i2c.c ****     /* enable or disable I2C ARP protocol*/
 546:../Firmware/GD32VF103_standard_peripheral/Source/gd32vf103_i2c.c ****     uint32_t ctl = 0U;
 970              		.loc 1 546 5
 547:../Firmware/GD32VF103_standard_peripheral/Source/gd32vf103_i2c.c **** 
 548:../Firmware/GD32VF103_standard_peripheral/Source/gd32vf103_i2c.c ****     ctl = I2C_CTL0(i2c_periph);
 971              		.loc 1 548 5
 972              		.loc 1 548 9 is_stmt 0
 973 0000 1C41     		lw	a5,0(a0)
 974              	.LVL101:
 549:../Firmware/GD32VF103_standard_peripheral/Source/gd32vf103_i2c.c ****     ctl &= ~(I2C_CTL0_ARPEN);
 975              		.loc 1 549 5 is_stmt 1
 976              		.loc 1 549 9 is_stmt 0
 977 0002 BD9B     		andi	a5,a5,-17
 978              	.LVL102:
 550:../Firmware/GD32VF103_standard_peripheral/Source/gd32vf103_i2c.c ****     ctl |= arpstate;
 979              		.loc 1 550 5 is_stmt 1
 980              		.loc 1 550 9 is_stmt 0
 981 0004 CD8F     		or	a5,a5,a1
 982              	.LVL103:
 551:../Firmware/GD32VF103_standard_peripheral/Source/gd32vf103_i2c.c ****     I2C_CTL0(i2c_periph) = ctl;
 983              		.loc 1 551 5 is_stmt 1
 984              		.loc 1 551 26 is_stmt 0
 985 0006 1CC1     		sw	a5,0(a0)
 552:../Firmware/GD32VF103_standard_peripheral/Source/gd32vf103_i2c.c **** }
 986              		.loc 1 552 1
 987 0008 8280     		ret
 988              		.cfi_endproc
 989              	.LFE27:
 991              		.section	.text.i2c_flag_get,"ax",@progbits
 992              		.align	1
 993              		.globl	i2c_flag_get
 995              	i2c_flag_get:
 996              	.LFB28:
 553:../Firmware/GD32VF103_standard_peripheral/Source/gd32vf103_i2c.c **** 
 554:../Firmware/GD32VF103_standard_peripheral/Source/gd32vf103_i2c.c **** /*!
 555:../Firmware/GD32VF103_standard_peripheral/Source/gd32vf103_i2c.c ****     \brief      check I2C flag is set or not
 556:../Firmware/GD32VF103_standard_peripheral/Source/gd32vf103_i2c.c ****     \param[in]  i2c_periph: I2Cx(x=0,1)
 557:../Firmware/GD32VF103_standard_peripheral/Source/gd32vf103_i2c.c ****     \param[in]  flag: I2C flags, refer to i2c_flag_enum
 558:../Firmware/GD32VF103_standard_peripheral/Source/gd32vf103_i2c.c ****                 only one parameter can be selected which is shown as below:
 559:../Firmware/GD32VF103_standard_peripheral/Source/gd32vf103_i2c.c ****     \arg        I2C_FLAG_SBSEND: start condition send out 
 560:../Firmware/GD32VF103_standard_peripheral/Source/gd32vf103_i2c.c ****     \arg        I2C_FLAG_ADDSEND: address is sent in master mode or received and matches in slave m
 561:../Firmware/GD32VF103_standard_peripheral/Source/gd32vf103_i2c.c ****     \arg        I2C_FLAG_BTC: byte transmission finishes
 562:../Firmware/GD32VF103_standard_peripheral/Source/gd32vf103_i2c.c ****     \arg        I2C_FLAG_ADD10SEND: header of 10-bit address is sent in master mode
 563:../Firmware/GD32VF103_standard_peripheral/Source/gd32vf103_i2c.c ****     \arg        I2C_FLAG_STPDET: stop condition detected in slave mode
 564:../Firmware/GD32VF103_standard_peripheral/Source/gd32vf103_i2c.c ****     \arg        I2C_FLAG_RBNE: I2C_DATA is not Empty during receiving
 565:../Firmware/GD32VF103_standard_peripheral/Source/gd32vf103_i2c.c ****     \arg        I2C_FLAG_TBE: I2C_DATA is empty during transmitting
 566:../Firmware/GD32VF103_standard_peripheral/Source/gd32vf103_i2c.c ****     \arg        I2C_FLAG_BERR: a bus error occurs indication a unexpected start or stop condition o
 567:../Firmware/GD32VF103_standard_peripheral/Source/gd32vf103_i2c.c ****     \arg        I2C_FLAG_LOSTARB: arbitration lost in master mode
 568:../Firmware/GD32VF103_standard_peripheral/Source/gd32vf103_i2c.c ****     \arg        I2C_FLAG_AERR: acknowledge error
 569:../Firmware/GD32VF103_standard_peripheral/Source/gd32vf103_i2c.c ****     \arg        I2C_FLAG_OUERR: overrun or underrun situation occurs in slave mode
 570:../Firmware/GD32VF103_standard_peripheral/Source/gd32vf103_i2c.c ****     \arg        I2C_FLAG_PECERR: PEC error when receiving data
 571:../Firmware/GD32VF103_standard_peripheral/Source/gd32vf103_i2c.c ****     \arg        I2C_FLAG_SMBTO: timeout signal in SMBus mode
 572:../Firmware/GD32VF103_standard_peripheral/Source/gd32vf103_i2c.c ****     \arg        I2C_FLAG_SMBALT: SMBus alert status
GAS LISTING /tmp/cc0dKmfh.s 			page 29


 573:../Firmware/GD32VF103_standard_peripheral/Source/gd32vf103_i2c.c ****     \arg        I2C_FLAG_MASTER: a flag indicating whether I2C block is in master or slave mode
 574:../Firmware/GD32VF103_standard_peripheral/Source/gd32vf103_i2c.c ****     \arg        I2C_FLAG_I2CBSY: busy flag
 575:../Firmware/GD32VF103_standard_peripheral/Source/gd32vf103_i2c.c ****     \arg        I2C_FLAG_TR: whether the I2C is a transmitter or a receiver
 576:../Firmware/GD32VF103_standard_peripheral/Source/gd32vf103_i2c.c ****     \arg        I2C_FLAG_RXGC: general call address (00h) received
 577:../Firmware/GD32VF103_standard_peripheral/Source/gd32vf103_i2c.c ****     \arg        I2C_FLAG_DEFSMB: default address of SMBus device
 578:../Firmware/GD32VF103_standard_peripheral/Source/gd32vf103_i2c.c ****     \arg        I2C_FLAG_HSTSMB: SMBus host header detected in slave mode
 579:../Firmware/GD32VF103_standard_peripheral/Source/gd32vf103_i2c.c ****     \arg        I2C_FLAG_DUMODF: dual flag in slave mode indicating which address is matched in dua
 580:../Firmware/GD32VF103_standard_peripheral/Source/gd32vf103_i2c.c ****     \param[out] none
 581:../Firmware/GD32VF103_standard_peripheral/Source/gd32vf103_i2c.c ****     \retval     FlagStatus: SET or RESET
 582:../Firmware/GD32VF103_standard_peripheral/Source/gd32vf103_i2c.c ****  */
 583:../Firmware/GD32VF103_standard_peripheral/Source/gd32vf103_i2c.c **** FlagStatus i2c_flag_get(uint32_t i2c_periph, i2c_flag_enum flag) 
 584:../Firmware/GD32VF103_standard_peripheral/Source/gd32vf103_i2c.c **** {
 997              		.loc 1 584 1 is_stmt 1
 998              		.cfi_startproc
 999              	.LVL104:
 585:../Firmware/GD32VF103_standard_peripheral/Source/gd32vf103_i2c.c ****     if (RESET != (I2C_REG_VAL(i2c_periph, flag) & BIT(I2C_BIT_POS(flag)))) {
 1000              		.loc 1 585 5
 1001              		.loc 1 585 19 is_stmt 0
 1002 0000 93D76500 		srli	a5,a1,6
 1003 0004 93F7F73F 		andi	a5,a5,1023
 1004 0008 AA97     		add	a5,a5,a0
 1005 000a 8843     		lw	a0,0(a5)
 1006              	.LVL105:
 1007              		.loc 1 585 15
 1008 000c 3355B500 		srl	a0,a0,a1
 586:../Firmware/GD32VF103_standard_peripheral/Source/gd32vf103_i2c.c ****         return SET;
 587:../Firmware/GD32VF103_standard_peripheral/Source/gd32vf103_i2c.c ****     } else {
 588:../Firmware/GD32VF103_standard_peripheral/Source/gd32vf103_i2c.c ****         return RESET;
 589:../Firmware/GD32VF103_standard_peripheral/Source/gd32vf103_i2c.c ****     }
 590:../Firmware/GD32VF103_standard_peripheral/Source/gd32vf103_i2c.c **** }
 1009              		.loc 1 590 1
 1010 0010 0589     		andi	a0,a0,1
 1011 0012 8280     		ret
 1012              		.cfi_endproc
 1013              	.LFE28:
 1015              		.section	.text.i2c_flag_clear,"ax",@progbits
 1016              		.align	1
 1017              		.globl	i2c_flag_clear
 1019              	i2c_flag_clear:
 1020              	.LFB29:
 591:../Firmware/GD32VF103_standard_peripheral/Source/gd32vf103_i2c.c **** 
 592:../Firmware/GD32VF103_standard_peripheral/Source/gd32vf103_i2c.c **** /*!
 593:../Firmware/GD32VF103_standard_peripheral/Source/gd32vf103_i2c.c ****     \brief      clear I2C flag
 594:../Firmware/GD32VF103_standard_peripheral/Source/gd32vf103_i2c.c ****     \param[in]  i2c_periph: I2Cx(x=0,1)
 595:../Firmware/GD32VF103_standard_peripheral/Source/gd32vf103_i2c.c ****     \param[in]  flag: I2C flags, refer to i2c_flag_enum
 596:../Firmware/GD32VF103_standard_peripheral/Source/gd32vf103_i2c.c ****                 only one parameter can be selected which is shown as below:
 597:../Firmware/GD32VF103_standard_peripheral/Source/gd32vf103_i2c.c ****     \arg        I2C_FLAG_SMBALT: SMBus Alert status
 598:../Firmware/GD32VF103_standard_peripheral/Source/gd32vf103_i2c.c ****     \arg        I2C_FLAG_SMBTO: timeout signal in SMBus mode
 599:../Firmware/GD32VF103_standard_peripheral/Source/gd32vf103_i2c.c ****     \arg        I2C_FLAG_PECERR: PEC error when receiving data
 600:../Firmware/GD32VF103_standard_peripheral/Source/gd32vf103_i2c.c ****     \arg        I2C_FLAG_OUERR: over-run or under-run situation occurs in slave mode    
 601:../Firmware/GD32VF103_standard_peripheral/Source/gd32vf103_i2c.c ****     \arg        I2C_FLAG_AERR: acknowledge error
 602:../Firmware/GD32VF103_standard_peripheral/Source/gd32vf103_i2c.c ****     \arg        I2C_FLAG_LOSTARB: arbitration lost in master mode   
 603:../Firmware/GD32VF103_standard_peripheral/Source/gd32vf103_i2c.c ****     \arg        I2C_FLAG_BERR: a bus error   
 604:../Firmware/GD32VF103_standard_peripheral/Source/gd32vf103_i2c.c ****     \arg        I2C_FLAG_ADDSEND: cleared by reading I2C_STAT0 and reading I2C_STAT1
 605:../Firmware/GD32VF103_standard_peripheral/Source/gd32vf103_i2c.c ****     \param[out] none
 606:../Firmware/GD32VF103_standard_peripheral/Source/gd32vf103_i2c.c ****     \retval     none
 607:../Firmware/GD32VF103_standard_peripheral/Source/gd32vf103_i2c.c ****  */
GAS LISTING /tmp/cc0dKmfh.s 			page 30


 608:../Firmware/GD32VF103_standard_peripheral/Source/gd32vf103_i2c.c **** void i2c_flag_clear(uint32_t i2c_periph, i2c_flag_enum flag) 
 609:../Firmware/GD32VF103_standard_peripheral/Source/gd32vf103_i2c.c **** {
 1021              		.loc 1 609 1 is_stmt 1
 1022              		.cfi_startproc
 1023              	.LVL106:
 610:../Firmware/GD32VF103_standard_peripheral/Source/gd32vf103_i2c.c ****     uint32_t temp;
 1024              		.loc 1 610 5
 611:../Firmware/GD32VF103_standard_peripheral/Source/gd32vf103_i2c.c ****     if (I2C_FLAG_ADDSEND == flag) {
 1025              		.loc 1 611 5
 1026              		.loc 1 611 8 is_stmt 0
 1027 0000 93071050 		li	a5,1281
 1028 0004 6380F502 		beq	a1,a5,.L60
 612:../Firmware/GD32VF103_standard_peripheral/Source/gd32vf103_i2c.c ****         /* read I2C_STAT0 and then read I2C_STAT1 to clear ADDSEND */
 613:../Firmware/GD32VF103_standard_peripheral/Source/gd32vf103_i2c.c ****         temp = I2C_STAT0(i2c_periph);
 614:../Firmware/GD32VF103_standard_peripheral/Source/gd32vf103_i2c.c ****         temp = I2C_STAT1(i2c_periph);
 615:../Firmware/GD32VF103_standard_peripheral/Source/gd32vf103_i2c.c ****     } else {
 616:../Firmware/GD32VF103_standard_peripheral/Source/gd32vf103_i2c.c ****         I2C_REG_VAL(i2c_periph, flag) &= ~BIT(I2C_BIT_POS(flag));
 1029              		.loc 1 616 9 is_stmt 1
 1030              		.loc 1 616 39 is_stmt 0
 1031 0008 93D76500 		srli	a5,a1,6
 1032 000c 93F7F73F 		andi	a5,a5,1023
 1033 0010 3E95     		add	a0,a5,a0
 1034              	.LVL107:
 1035 0012 1841     		lw	a4,0(a0)
 1036              		.loc 1 616 43
 1037 0014 8547     		li	a5,1
 1038 0016 B395B700 		sll	a1,a5,a1
 1039              	.LVL108:
 1040              		.loc 1 616 42
 1041 001a 93C5F5FF 		not	a1,a1
 1042              		.loc 1 616 39
 1043 001e F98D     		and	a1,a1,a4
 1044 0020 0CC1     		sw	a1,0(a0)
 617:../Firmware/GD32VF103_standard_peripheral/Source/gd32vf103_i2c.c ****     }
 618:../Firmware/GD32VF103_standard_peripheral/Source/gd32vf103_i2c.c **** }
 1045              		.loc 1 618 1
 1046 0022 8280     		ret
 1047              	.LVL109:
 1048              	.L60:
 613:../Firmware/GD32VF103_standard_peripheral/Source/gd32vf103_i2c.c ****         temp = I2C_STAT1(i2c_periph);
 1049              		.loc 1 613 9 is_stmt 1
 613:../Firmware/GD32VF103_standard_peripheral/Source/gd32vf103_i2c.c ****         temp = I2C_STAT1(i2c_periph);
 1050              		.loc 1 613 14 is_stmt 0
 1051 0024 5C49     		lw	a5,20(a0)
 614:../Firmware/GD32VF103_standard_peripheral/Source/gd32vf103_i2c.c ****     } else {
 1052              		.loc 1 614 9 is_stmt 1
 614:../Firmware/GD32VF103_standard_peripheral/Source/gd32vf103_i2c.c ****     } else {
 1053              		.loc 1 614 14 is_stmt 0
 1054 0026 1C4D     		lw	a5,24(a0)
 1055 0028 8280     		ret
 1056              		.cfi_endproc
 1057              	.LFE29:
 1059              		.section	.text.i2c_interrupt_enable,"ax",@progbits
 1060              		.align	1
 1061              		.globl	i2c_interrupt_enable
 1063              	i2c_interrupt_enable:
 1064              	.LFB30:
GAS LISTING /tmp/cc0dKmfh.s 			page 31


 619:../Firmware/GD32VF103_standard_peripheral/Source/gd32vf103_i2c.c **** 
 620:../Firmware/GD32VF103_standard_peripheral/Source/gd32vf103_i2c.c **** /*!
 621:../Firmware/GD32VF103_standard_peripheral/Source/gd32vf103_i2c.c ****     \brief      enable I2C interrupt
 622:../Firmware/GD32VF103_standard_peripheral/Source/gd32vf103_i2c.c ****     \param[in]  i2c_periph: I2Cx(x=0,1)
 623:../Firmware/GD32VF103_standard_peripheral/Source/gd32vf103_i2c.c ****     \param[in]  interrupt: I2C interrupts, refer to i2c_interrupt_enum
 624:../Firmware/GD32VF103_standard_peripheral/Source/gd32vf103_i2c.c ****                 only one parameter can be selected which is shown as below:
 625:../Firmware/GD32VF103_standard_peripheral/Source/gd32vf103_i2c.c ****     \arg        I2C_INT_ERR: error interrupt enable 
 626:../Firmware/GD32VF103_standard_peripheral/Source/gd32vf103_i2c.c ****     \arg        I2C_INT_EV: event interrupt enable 
 627:../Firmware/GD32VF103_standard_peripheral/Source/gd32vf103_i2c.c ****     \arg        I2C_INT_BUF: buffer interrupt enable
 628:../Firmware/GD32VF103_standard_peripheral/Source/gd32vf103_i2c.c ****     \param[out] none
 629:../Firmware/GD32VF103_standard_peripheral/Source/gd32vf103_i2c.c ****     \retval     none
 630:../Firmware/GD32VF103_standard_peripheral/Source/gd32vf103_i2c.c ****  */
 631:../Firmware/GD32VF103_standard_peripheral/Source/gd32vf103_i2c.c **** void i2c_interrupt_enable(uint32_t i2c_periph, i2c_interrupt_enum interrupt) 
 632:../Firmware/GD32VF103_standard_peripheral/Source/gd32vf103_i2c.c **** {
 1065              		.loc 1 632 1 is_stmt 1
 1066              		.cfi_startproc
 1067              	.LVL110:
 633:../Firmware/GD32VF103_standard_peripheral/Source/gd32vf103_i2c.c ****     I2C_REG_VAL(i2c_periph, interrupt) |= BIT(I2C_BIT_POS(interrupt));
 1068              		.loc 1 633 5
 1069              		.loc 1 633 40 is_stmt 0
 1070 0000 93D76500 		srli	a5,a1,6
 1071 0004 93F7F73F 		andi	a5,a5,1023
 1072 0008 3E95     		add	a0,a5,a0
 1073              	.LVL111:
 1074 000a 1841     		lw	a4,0(a0)
 1075              		.loc 1 633 43
 1076 000c 8547     		li	a5,1
 1077 000e B395B700 		sll	a1,a5,a1
 1078              	.LVL112:
 1079              		.loc 1 633 40
 1080 0012 D98D     		or	a1,a1,a4
 1081 0014 0CC1     		sw	a1,0(a0)
 634:../Firmware/GD32VF103_standard_peripheral/Source/gd32vf103_i2c.c **** }
 1082              		.loc 1 634 1
 1083 0016 8280     		ret
 1084              		.cfi_endproc
 1085              	.LFE30:
 1087              		.section	.text.i2c_interrupt_disable,"ax",@progbits
 1088              		.align	1
 1089              		.globl	i2c_interrupt_disable
 1091              	i2c_interrupt_disable:
 1092              	.LFB31:
 635:../Firmware/GD32VF103_standard_peripheral/Source/gd32vf103_i2c.c **** 
 636:../Firmware/GD32VF103_standard_peripheral/Source/gd32vf103_i2c.c **** /*!
 637:../Firmware/GD32VF103_standard_peripheral/Source/gd32vf103_i2c.c ****     \brief      disable I2C interrupt
 638:../Firmware/GD32VF103_standard_peripheral/Source/gd32vf103_i2c.c ****     \param[in]  i2c_periph: I2Cx(x=0,1)
 639:../Firmware/GD32VF103_standard_peripheral/Source/gd32vf103_i2c.c ****     \param[in]  interrupt: I2C interrupts, refer to i2c_flag_enum
 640:../Firmware/GD32VF103_standard_peripheral/Source/gd32vf103_i2c.c ****                 only one parameter can be selected which is shown as below:
 641:../Firmware/GD32VF103_standard_peripheral/Source/gd32vf103_i2c.c ****     \arg        I2C_INT_ERR: error interrupt enable 
 642:../Firmware/GD32VF103_standard_peripheral/Source/gd32vf103_i2c.c ****     \arg        I2C_INT_EV: event interrupt enable 
 643:../Firmware/GD32VF103_standard_peripheral/Source/gd32vf103_i2c.c ****     \arg        I2C_INT_BUF: buffer interrupt enable
 644:../Firmware/GD32VF103_standard_peripheral/Source/gd32vf103_i2c.c ****     \param[out] none
 645:../Firmware/GD32VF103_standard_peripheral/Source/gd32vf103_i2c.c ****     \retval     none
 646:../Firmware/GD32VF103_standard_peripheral/Source/gd32vf103_i2c.c ****  */
 647:../Firmware/GD32VF103_standard_peripheral/Source/gd32vf103_i2c.c **** void i2c_interrupt_disable(uint32_t i2c_periph, i2c_interrupt_enum interrupt) 
 648:../Firmware/GD32VF103_standard_peripheral/Source/gd32vf103_i2c.c **** {
 1093              		.loc 1 648 1 is_stmt 1
GAS LISTING /tmp/cc0dKmfh.s 			page 32


 1094              		.cfi_startproc
 1095              	.LVL113:
 649:../Firmware/GD32VF103_standard_peripheral/Source/gd32vf103_i2c.c ****     I2C_REG_VAL(i2c_periph, interrupt) &= ~BIT(I2C_BIT_POS(interrupt));
 1096              		.loc 1 649 5
 1097              		.loc 1 649 40 is_stmt 0
 1098 0000 13D76500 		srli	a4,a1,6
 1099 0004 1377F73F 		andi	a4,a4,1023
 1100 0008 3A95     		add	a0,a4,a0
 1101              	.LVL114:
 1102 000a 1841     		lw	a4,0(a0)
 1103              		.loc 1 649 44
 1104 000c 8547     		li	a5,1
 1105 000e B397B700 		sll	a5,a5,a1
 1106              		.loc 1 649 43
 1107 0012 93C7F7FF 		not	a5,a5
 1108              		.loc 1 649 40
 1109 0016 F98F     		and	a5,a5,a4
 1110 0018 1CC1     		sw	a5,0(a0)
 650:../Firmware/GD32VF103_standard_peripheral/Source/gd32vf103_i2c.c **** }
 1111              		.loc 1 650 1
 1112 001a 8280     		ret
 1113              		.cfi_endproc
 1114              	.LFE31:
 1116              		.section	.text.i2c_interrupt_flag_get,"ax",@progbits
 1117              		.align	1
 1118              		.globl	i2c_interrupt_flag_get
 1120              	i2c_interrupt_flag_get:
 1121              	.LFB32:
 651:../Firmware/GD32VF103_standard_peripheral/Source/gd32vf103_i2c.c **** 
 652:../Firmware/GD32VF103_standard_peripheral/Source/gd32vf103_i2c.c **** /*!
 653:../Firmware/GD32VF103_standard_peripheral/Source/gd32vf103_i2c.c ****     \brief      check I2C interrupt flag
 654:../Firmware/GD32VF103_standard_peripheral/Source/gd32vf103_i2c.c ****     \param[in]  i2c_periph: I2Cx(x=0,1)
 655:../Firmware/GD32VF103_standard_peripheral/Source/gd32vf103_i2c.c ****     \param[in]  int_flag: I2C interrupt flags, refer to i2c_interrupt_flag_enum
 656:../Firmware/GD32VF103_standard_peripheral/Source/gd32vf103_i2c.c ****                 only one parameter can be selected which is shown as below:
 657:../Firmware/GD32VF103_standard_peripheral/Source/gd32vf103_i2c.c ****     \arg        I2C_INT_FLAG_SBSEND: start condition sent out in master mode interrupt flag
 658:../Firmware/GD32VF103_standard_peripheral/Source/gd32vf103_i2c.c ****     \arg        I2C_INT_FLAG_ADDSEND: address is sent in master mode or received and matches in sla
 659:../Firmware/GD32VF103_standard_peripheral/Source/gd32vf103_i2c.c ****     \arg        I2C_INT_FLAG_BTC: byte transmission finishes
 660:../Firmware/GD32VF103_standard_peripheral/Source/gd32vf103_i2c.c ****     \arg        I2C_INT_FLAG_ADD10SEND: header of 10-bit address is sent in master mode interrupt f
 661:../Firmware/GD32VF103_standard_peripheral/Source/gd32vf103_i2c.c ****     \arg        I2C_INT_FLAG_STPDET: etop condition detected in slave mode interrupt flag
 662:../Firmware/GD32VF103_standard_peripheral/Source/gd32vf103_i2c.c ****     \arg        I2C_INT_FLAG_RBNE: I2C_DATA is not Empty during receiving interrupt flag
 663:../Firmware/GD32VF103_standard_peripheral/Source/gd32vf103_i2c.c ****     \arg        I2C_INT_FLAG_TBE: I2C_DATA is empty during transmitting interrupt flag
 664:../Firmware/GD32VF103_standard_peripheral/Source/gd32vf103_i2c.c ****     \arg        I2C_INT_FLAG_BERR: a bus error occurs indication a unexpected start or stop conditi
 665:../Firmware/GD32VF103_standard_peripheral/Source/gd32vf103_i2c.c ****     \arg        I2C_INT_FLAG_LOSTARB: arbitration lost in master mode interrupt flag
 666:../Firmware/GD32VF103_standard_peripheral/Source/gd32vf103_i2c.c ****     \arg        I2C_INT_FLAG_AERR: acknowledge error interrupt flag
 667:../Firmware/GD32VF103_standard_peripheral/Source/gd32vf103_i2c.c ****     \arg        I2C_INT_FLAG_OUERR: over-run or under-run situation occurs in slave mode interrupt 
 668:../Firmware/GD32VF103_standard_peripheral/Source/gd32vf103_i2c.c ****     \arg        I2C_INT_FLAG_PECERR: PEC error when receiving data interrupt flag
 669:../Firmware/GD32VF103_standard_peripheral/Source/gd32vf103_i2c.c ****     \arg        I2C_INT_FLAG_SMBTO: timeout signal in SMBus mode interrupt flag
 670:../Firmware/GD32VF103_standard_peripheral/Source/gd32vf103_i2c.c ****     \arg        I2C_INT_FLAG_SMBALT: SMBus Alert status interrupt flag
 671:../Firmware/GD32VF103_standard_peripheral/Source/gd32vf103_i2c.c ****     \param[out] none
 672:../Firmware/GD32VF103_standard_peripheral/Source/gd32vf103_i2c.c ****     \retval     FlagStatus: SET or RESET
 673:../Firmware/GD32VF103_standard_peripheral/Source/gd32vf103_i2c.c ****  */
 674:../Firmware/GD32VF103_standard_peripheral/Source/gd32vf103_i2c.c **** FlagStatus i2c_interrupt_flag_get(uint32_t i2c_periph,i2c_interrupt_flag_enum int_flag) 
 675:../Firmware/GD32VF103_standard_peripheral/Source/gd32vf103_i2c.c **** {
 1122              		.loc 1 675 1 is_stmt 1
 1123              		.cfi_startproc
 1124              	.LVL115:
 676:../Firmware/GD32VF103_standard_peripheral/Source/gd32vf103_i2c.c ****     uint32_t intenable = 0U, flagstatus = 0U, bufie;
GAS LISTING /tmp/cc0dKmfh.s 			page 33


 1125              		.loc 1 676 5
 677:../Firmware/GD32VF103_standard_peripheral/Source/gd32vf103_i2c.c **** 
 678:../Firmware/GD32VF103_standard_peripheral/Source/gd32vf103_i2c.c ****     /* check BUFIE */
 679:../Firmware/GD32VF103_standard_peripheral/Source/gd32vf103_i2c.c ****     bufie = I2C_CTL1(i2c_periph) & I2C_CTL1_BUFIE;
 1126              		.loc 1 679 5
 680:../Firmware/GD32VF103_standard_peripheral/Source/gd32vf103_i2c.c **** 
 681:../Firmware/GD32VF103_standard_peripheral/Source/gd32vf103_i2c.c ****     /* get the interrupt enable bit status */
 682:../Firmware/GD32VF103_standard_peripheral/Source/gd32vf103_i2c.c ****     intenable = (I2C_REG_VAL(i2c_periph, int_flag) & BIT(I2C_BIT_POS(int_flag)));
 1127              		.loc 1 682 18 is_stmt 0
 1128 0000 93D76500 		srli	a5,a1,6
 683:../Firmware/GD32VF103_standard_peripheral/Source/gd32vf103_i2c.c ****     /* get the corresponding flag bit status */
 684:../Firmware/GD32VF103_standard_peripheral/Source/gd32vf103_i2c.c ****     flagstatus = (I2C_REG_VAL2(i2c_periph, int_flag)& BIT(I2C_BIT_POS2(int_flag)));
 1129              		.loc 1 684 19
 1130 0004 13D76501 		srli	a4,a1,22
 682:../Firmware/GD32VF103_standard_peripheral/Source/gd32vf103_i2c.c ****     /* get the corresponding flag bit status */
 1131              		.loc 1 682 18
 1132 0008 93F7F73F 		andi	a5,a5,1023
 1133 000c AA97     		add	a5,a5,a0
 1134              		.loc 1 684 19
 1135 000e 2A97     		add	a4,a4,a0
 679:../Firmware/GD32VF103_standard_peripheral/Source/gd32vf103_i2c.c **** 
 1136              		.loc 1 679 13
 1137 0010 03284500 		lw	a6,4(a0)
 1138              	.LVL116:
 682:../Firmware/GD32VF103_standard_peripheral/Source/gd32vf103_i2c.c ****     /* get the corresponding flag bit status */
 1139              		.loc 1 682 5 is_stmt 1
 682:../Firmware/GD32VF103_standard_peripheral/Source/gd32vf103_i2c.c ****     /* get the corresponding flag bit status */
 1140              		.loc 1 682 18 is_stmt 0
 1141 0014 9043     		lw	a2,0(a5)
 1142              		.loc 1 684 19
 1143 0016 1443     		lw	a3,0(a4)
 682:../Firmware/GD32VF103_standard_peripheral/Source/gd32vf103_i2c.c ****     /* get the corresponding flag bit status */
 1144              		.loc 1 682 54
 1145 0018 8547     		li	a5,1
 1146              		.loc 1 684 55
 1147 001a 13D70501 		srli	a4,a1,16
 682:../Firmware/GD32VF103_standard_peripheral/Source/gd32vf103_i2c.c ****     /* get the corresponding flag bit status */
 1148              		.loc 1 682 54
 1149 001e 3395B700 		sll	a0,a5,a1
 1150              	.LVL117:
 1151              		.loc 1 684 55
 1152 0022 B397E700 		sll	a5,a5,a4
 685:../Firmware/GD32VF103_standard_peripheral/Source/gd32vf103_i2c.c **** 
 686:../Firmware/GD32VF103_standard_peripheral/Source/gd32vf103_i2c.c ****     if ((I2C_INT_FLAG_RBNE == int_flag) || (I2C_INT_FLAG_TBE == int_flag)) {
 1153              		.loc 1 686 8
 1154 0026 4177     		li	a4,-65536
 1155 0028 7D17     		addi	a4,a4,-1
 1156 002a F98D     		and	a1,a1,a4
 1157              	.LVL118:
 1158 002c 37070605 		li	a4,84279296
 1159 0030 13079710 		addi	a4,a4,265
 682:../Firmware/GD32VF103_standard_peripheral/Source/gd32vf103_i2c.c ****     /* get the corresponding flag bit status */
 1160              		.loc 1 682 15
 1161 0034 718D     		and	a0,a0,a2
 1162              	.LVL119:
 684:../Firmware/GD32VF103_standard_peripheral/Source/gd32vf103_i2c.c **** 
 1163              		.loc 1 684 5 is_stmt 1
GAS LISTING /tmp/cc0dKmfh.s 			page 34


 684:../Firmware/GD32VF103_standard_peripheral/Source/gd32vf103_i2c.c **** 
 1164              		.loc 1 684 16 is_stmt 0
 1165 0036 F58F     		and	a5,a5,a3
 1166              	.LVL120:
 1167              		.loc 1 686 5 is_stmt 1
 1168              		.loc 1 686 8 is_stmt 0
 1169 0038 6386E500 		beq	a1,a4,.L73
 687:../Firmware/GD32VF103_standard_peripheral/Source/gd32vf103_i2c.c ****         if (intenable && bufie) {
 688:../Firmware/GD32VF103_standard_peripheral/Source/gd32vf103_i2c.c ****             intenable = 1U;
 689:../Firmware/GD32VF103_standard_peripheral/Source/gd32vf103_i2c.c ****         } else {
 690:../Firmware/GD32VF103_standard_peripheral/Source/gd32vf103_i2c.c ****             intenable = 0U;
 691:../Firmware/GD32VF103_standard_peripheral/Source/gd32vf103_i2c.c ****         }
 692:../Firmware/GD32VF103_standard_peripheral/Source/gd32vf103_i2c.c ****     }
 693:../Firmware/GD32VF103_standard_peripheral/Source/gd32vf103_i2c.c ****     if ((0U != flagstatus) && (0U != intenable)) {
 1170              		.loc 1 693 5 is_stmt 1
 1171              		.loc 1 693 8 is_stmt 0
 1172 003c 99CB     		beq	a5,zero,.L66
 1173              		.loc 1 693 28 discriminator 1
 1174 003e 3335A000 		snez	a0,a0
 1175              	.LVL121:
 1176 0042 8280     		ret
 1177              	.LVL122:
 1178              	.L73:
 687:../Firmware/GD32VF103_standard_peripheral/Source/gd32vf103_i2c.c ****         if (intenable && bufie) {
 1179              		.loc 1 687 9 is_stmt 1
 687:../Firmware/GD32VF103_standard_peripheral/Source/gd32vf103_i2c.c ****         if (intenable && bufie) {
 1180              		.loc 1 687 12 is_stmt 0
 1181 0044 01C9     		beq	a0,zero,.L63
 679:../Firmware/GD32VF103_standard_peripheral/Source/gd32vf103_i2c.c **** 
 1182              		.loc 1 679 11 discriminator 1
 1183 0046 13750840 		andi	a0,a6,1024
 1184              	.LVL123:
 687:../Firmware/GD32VF103_standard_peripheral/Source/gd32vf103_i2c.c ****         if (intenable && bufie) {
 1185              		.loc 1 687 23 discriminator 1
 1186 004a 09C5     		beq	a0,zero,.L63
 1187              	.LVL124:
 1188              		.loc 1 693 5 is_stmt 1
 1189              		.loc 1 693 8 is_stmt 0
 1190 004c 3335F000 		snez	a0,a5
 1191 0050 8280     		ret
 1192              	.LVL125:
 1193              	.L66:
 694:../Firmware/GD32VF103_standard_peripheral/Source/gd32vf103_i2c.c ****         return SET;
 695:../Firmware/GD32VF103_standard_peripheral/Source/gd32vf103_i2c.c ****     } else {
 696:../Firmware/GD32VF103_standard_peripheral/Source/gd32vf103_i2c.c ****         return RESET;
 1194              		.loc 1 696 16
 1195 0052 0145     		li	a0,0
 1196              	.LVL126:
 1197              	.L63:
 697:../Firmware/GD32VF103_standard_peripheral/Source/gd32vf103_i2c.c ****     }
 698:../Firmware/GD32VF103_standard_peripheral/Source/gd32vf103_i2c.c **** }
 1198              		.loc 1 698 1
 1199 0054 8280     		ret
 1200              		.cfi_endproc
 1201              	.LFE32:
 1203              		.section	.text.i2c_interrupt_flag_clear,"ax",@progbits
 1204              		.align	1
GAS LISTING /tmp/cc0dKmfh.s 			page 35


 1205              		.globl	i2c_interrupt_flag_clear
 1207              	i2c_interrupt_flag_clear:
 1208              	.LFB33:
 699:../Firmware/GD32VF103_standard_peripheral/Source/gd32vf103_i2c.c **** 
 700:../Firmware/GD32VF103_standard_peripheral/Source/gd32vf103_i2c.c **** /*!
 701:../Firmware/GD32VF103_standard_peripheral/Source/gd32vf103_i2c.c ****     \brief      clear I2C interrupt flag
 702:../Firmware/GD32VF103_standard_peripheral/Source/gd32vf103_i2c.c ****     \param[in]  i2c_periph: I2Cx(x=0,1)
 703:../Firmware/GD32VF103_standard_peripheral/Source/gd32vf103_i2c.c ****     \param[in]  int_flag: I2C interrupt flags, refer to i2c_interrupt_flag_enum
 704:../Firmware/GD32VF103_standard_peripheral/Source/gd32vf103_i2c.c ****                 only one parameter can be selected which is shown as below:
 705:../Firmware/GD32VF103_standard_peripheral/Source/gd32vf103_i2c.c ****     \arg        I2C_INT_FLAG_ADDSEND: address is sent in master mode or received and matches in sla
 706:../Firmware/GD32VF103_standard_peripheral/Source/gd32vf103_i2c.c ****     \arg        I2C_INT_FLAG_BERR: a bus error occurs indication a unexpected start or stop conditi
 707:../Firmware/GD32VF103_standard_peripheral/Source/gd32vf103_i2c.c ****     \arg        I2C_INT_FLAG_LOSTARB: arbitration lost in master mode interrupt flag
 708:../Firmware/GD32VF103_standard_peripheral/Source/gd32vf103_i2c.c ****     \arg        I2C_INT_FLAG_AERR: acknowledge error interrupt flag
 709:../Firmware/GD32VF103_standard_peripheral/Source/gd32vf103_i2c.c ****     \arg        I2C_INT_FLAG_OUERR: over-run or under-run situation occurs in slave mode interrupt 
 710:../Firmware/GD32VF103_standard_peripheral/Source/gd32vf103_i2c.c ****     \arg        I2C_INT_FLAG_PECERR: PEC error when receiving data interrupt flag
 711:../Firmware/GD32VF103_standard_peripheral/Source/gd32vf103_i2c.c ****     \arg        I2C_INT_FLAG_SMBTO: timeout signal in SMBus mode interrupt flag
 712:../Firmware/GD32VF103_standard_peripheral/Source/gd32vf103_i2c.c ****     \arg        I2C_INT_FLAG_SMBALT: SMBus Alert status interrupt flag
 713:../Firmware/GD32VF103_standard_peripheral/Source/gd32vf103_i2c.c ****     \param[out] none
 714:../Firmware/GD32VF103_standard_peripheral/Source/gd32vf103_i2c.c ****     \retval     none
 715:../Firmware/GD32VF103_standard_peripheral/Source/gd32vf103_i2c.c ****  */
 716:../Firmware/GD32VF103_standard_peripheral/Source/gd32vf103_i2c.c **** void i2c_interrupt_flag_clear(uint32_t i2c_periph,i2c_interrupt_flag_enum int_flag) 
 717:../Firmware/GD32VF103_standard_peripheral/Source/gd32vf103_i2c.c **** {
 1209              		.loc 1 717 1 is_stmt 1
 1210              		.cfi_startproc
 1211              	.LVL127:
 718:../Firmware/GD32VF103_standard_peripheral/Source/gd32vf103_i2c.c ****     uint32_t temp;
 1212              		.loc 1 718 5
 719:../Firmware/GD32VF103_standard_peripheral/Source/gd32vf103_i2c.c ****     if (I2C_INT_FLAG_ADDSEND == int_flag) {
 1213              		.loc 1 719 5
 1214              		.loc 1 719 8 is_stmt 0
 1215 0000 B7070105 		li	a5,83951616
 1216 0004 93879710 		addi	a5,a5,265
 1217 0008 638FF500 		beq	a1,a5,.L77
 720:../Firmware/GD32VF103_standard_peripheral/Source/gd32vf103_i2c.c ****         /* read I2C_STAT0 and then read I2C_STAT1 to clear ADDSEND */
 721:../Firmware/GD32VF103_standard_peripheral/Source/gd32vf103_i2c.c ****         temp = I2C_STAT0(i2c_periph);
 722:../Firmware/GD32VF103_standard_peripheral/Source/gd32vf103_i2c.c ****         temp = I2C_STAT1(i2c_periph);
 723:../Firmware/GD32VF103_standard_peripheral/Source/gd32vf103_i2c.c ****     } else {
 724:../Firmware/GD32VF103_standard_peripheral/Source/gd32vf103_i2c.c ****         I2C_REG_VAL2(i2c_periph, int_flag) &= ~BIT(I2C_BIT_POS2(int_flag));
 1218              		.loc 1 724 9 is_stmt 1
 1219              		.loc 1 724 44 is_stmt 0
 1220 000c 93D76501 		srli	a5,a1,22
 1221 0010 3E95     		add	a0,a5,a0
 1222              	.LVL128:
 1223 0012 1841     		lw	a4,0(a0)
 1224              		.loc 1 724 48
 1225 0014 C181     		srli	a1,a1,16
 1226              	.LVL129:
 1227 0016 8547     		li	a5,1
 1228 0018 B395B700 		sll	a1,a5,a1
 1229              		.loc 1 724 47
 1230 001c 93C5F5FF 		not	a1,a1
 1231              		.loc 1 724 44
 1232 0020 F98D     		and	a1,a1,a4
 1233 0022 0CC1     		sw	a1,0(a0)
 725:../Firmware/GD32VF103_standard_peripheral/Source/gd32vf103_i2c.c ****     }
 726:../Firmware/GD32VF103_standard_peripheral/Source/gd32vf103_i2c.c **** }
 1234              		.loc 1 726 1
GAS LISTING /tmp/cc0dKmfh.s 			page 36


 1235 0024 8280     		ret
 1236              	.LVL130:
 1237              	.L77:
 721:../Firmware/GD32VF103_standard_peripheral/Source/gd32vf103_i2c.c ****         temp = I2C_STAT1(i2c_periph);
 1238              		.loc 1 721 9 is_stmt 1
 721:../Firmware/GD32VF103_standard_peripheral/Source/gd32vf103_i2c.c ****         temp = I2C_STAT1(i2c_periph);
 1239              		.loc 1 721 14 is_stmt 0
 1240 0026 5C49     		lw	a5,20(a0)
 722:../Firmware/GD32VF103_standard_peripheral/Source/gd32vf103_i2c.c ****     } else {
 1241              		.loc 1 722 9 is_stmt 1
 722:../Firmware/GD32VF103_standard_peripheral/Source/gd32vf103_i2c.c ****     } else {
 1242              		.loc 1 722 14 is_stmt 0
 1243 0028 1C4D     		lw	a5,24(a0)
 1244 002a 8280     		ret
 1245              		.cfi_endproc
 1246              	.LFE33:
 1248              		.text
 1249              	.Letext0:
 1250              		.file 2 "/home/johnson/Documents/mpb-toolchain/build/riscv32-mapleboard-elf/include/machine/_defau
 1251              		.file 3 "/home/johnson/Documents/mpb-toolchain/build/riscv32-mapleboard-elf/include/sys/_stdint.h"
 1252              		.file 4 "../Firmware/GD32VF103_standard_peripheral/gd32vf103.h"
 1253              		.file 5 "../Firmware/GD32VF103_standard_peripheral/Include/gd32vf103_rcu.h"
 1254              		.file 6 "../Firmware/GD32VF103_standard_peripheral/Include/gd32vf103_i2c.h"
GAS LISTING /tmp/cc0dKmfh.s 			page 37


DEFINED SYMBOLS
                            *ABS*:0000000000000000 gd32vf103_i2c.c
     /tmp/cc0dKmfh.s:13     .text.i2c_deinit:0000000000000000 i2c_deinit
     /tmp/cc0dKmfh.s:17     .text.i2c_deinit:0000000000000000 .L0 
     /tmp/cc0dKmfh.s:19     .text.i2c_deinit:0000000000000000 .L0 
     /tmp/cc0dKmfh.s:20     .text.i2c_deinit:0000000000000000 .L0 
     /tmp/cc0dKmfh.s:21     .text.i2c_deinit:0000000000000000 .L0 
     /tmp/cc0dKmfh.s:23     .text.i2c_deinit:0000000000000002 .L0 
     /tmp/cc0dKmfh.s:25     .text.i2c_deinit:0000000000000002 .L0 
     /tmp/cc0dKmfh.s:27     .text.i2c_deinit:0000000000000006 .L0 
     /tmp/cc0dKmfh.s:28     .text.i2c_deinit:0000000000000008 .L0 
     /tmp/cc0dKmfh.s:30     .text.i2c_deinit:0000000000000008 .L0 
     /tmp/cc0dKmfh.s:36     .text.i2c_deinit:000000000000001c .L0 
     /tmp/cc0dKmfh.s:37     .text.i2c_deinit:000000000000001e .L0 
     /tmp/cc0dKmfh.s:38     .text.i2c_deinit:000000000000001e .L0 
     /tmp/cc0dKmfh.s:41     .text.i2c_deinit:0000000000000020 .L0 
     /tmp/cc0dKmfh.s:45     .text.i2c_deinit:0000000000000022 .L0 
     /tmp/cc0dKmfh.s:47     .text.i2c_deinit:0000000000000022 .L0 
     /tmp/cc0dKmfh.s:52     .text.i2c_deinit:000000000000002e .L0 
     /tmp/cc0dKmfh.s:53     .text.i2c_deinit:000000000000002e .L0 
     /tmp/cc0dKmfh.s:54     .text.i2c_deinit:0000000000000030 .L0 
     /tmp/cc0dKmfh.s:55     .text.i2c_deinit:0000000000000030 .L0 
     /tmp/cc0dKmfh.s:57     .text.i2c_deinit:0000000000000030 .L0 
     /tmp/cc0dKmfh.s:59     .text.i2c_deinit:0000000000000034 .L0 
     /tmp/cc0dKmfh.s:61     .text.i2c_deinit:0000000000000036 .L0 
     /tmp/cc0dKmfh.s:63     .text.i2c_deinit:0000000000000036 .L0 
     /tmp/cc0dKmfh.s:67     .text.i2c_deinit:000000000000003e .L0 
     /tmp/cc0dKmfh.s:69     .text.i2c_deinit:000000000000003e .L0 
     /tmp/cc0dKmfh.s:74     .text.i2c_deinit:000000000000004a .L0 
     /tmp/cc0dKmfh.s:75     .text.i2c_deinit:000000000000004a .L0 
     /tmp/cc0dKmfh.s:76     .text.i2c_deinit:000000000000004c .L0 
     /tmp/cc0dKmfh.s:78     .text.i2c_deinit:000000000000004c .L0 
     /tmp/cc0dKmfh.s:80     .text.i2c_deinit:0000000000000050 .L0 
     /tmp/cc0dKmfh.s:82     .text.i2c_deinit:0000000000000052 .L0 
     /tmp/cc0dKmfh.s:84     .text.i2c_deinit:0000000000000052 .L0 
     /tmp/cc0dKmfh.s:86     .text.i2c_deinit:000000000000005a .L0 
     /tmp/cc0dKmfh.s:93     .text.i2c_clock_config:0000000000000000 i2c_clock_config
     /tmp/cc0dKmfh.s:96     .text.i2c_clock_config:0000000000000000 .L0 
     /tmp/cc0dKmfh.s:98     .text.i2c_clock_config:0000000000000000 .L0 
     /tmp/cc0dKmfh.s:99     .text.i2c_clock_config:0000000000000000 .L0 
     /tmp/cc0dKmfh.s:100    .text.i2c_clock_config:0000000000000000 .L0 
     /tmp/cc0dKmfh.s:101    .text.i2c_clock_config:0000000000000000 .L0 
     /tmp/cc0dKmfh.s:102    .text.i2c_clock_config:0000000000000000 .L0 
     /tmp/cc0dKmfh.s:104    .text.i2c_clock_config:0000000000000002 .L0 
     /tmp/cc0dKmfh.s:106    .text.i2c_clock_config:0000000000000004 .L0 
     /tmp/cc0dKmfh.s:109    .text.i2c_clock_config:0000000000000006 .L0 
     /tmp/cc0dKmfh.s:112    .text.i2c_clock_config:0000000000000008 .L0 
     /tmp/cc0dKmfh.s:115    .text.i2c_clock_config:000000000000000e .L0 
     /tmp/cc0dKmfh.s:116    .text.i2c_clock_config:000000000000000e .L0 
     /tmp/cc0dKmfh.s:117    .text.i2c_clock_config:000000000000000e .L0 
     /tmp/cc0dKmfh.s:119    .text.i2c_clock_config:000000000000000e .L0 
     /tmp/cc0dKmfh.s:122    .text.i2c_clock_config:0000000000000012 .L0 
     /tmp/cc0dKmfh.s:125    .text.i2c_clock_config:000000000000001a .L0 
     /tmp/cc0dKmfh.s:126    .text.i2c_clock_config:000000000000001a .L0 
     /tmp/cc0dKmfh.s:128    .text.i2c_clock_config:000000000000001e .L0 
     /tmp/cc0dKmfh.s:130    .text.i2c_clock_config:0000000000000022 .L0 
     /tmp/cc0dKmfh.s:132    .text.i2c_clock_config:0000000000000026 .L0 
GAS LISTING /tmp/cc0dKmfh.s 			page 38


     /tmp/cc0dKmfh.s:134    .text.i2c_clock_config:000000000000002a .L0 
     /tmp/cc0dKmfh.s:137    .text.i2c_clock_config:000000000000002e .L0 
     /tmp/cc0dKmfh.s:138    .text.i2c_clock_config:000000000000002e .L0 
     /tmp/cc0dKmfh.s:140    .text.i2c_clock_config:0000000000000032 .L0 
     /tmp/cc0dKmfh.s:145    .text.i2c_clock_config:0000000000000038 .L0 
     /tmp/cc0dKmfh.s:146    .text.i2c_clock_config:0000000000000038 .L0 
     /tmp/cc0dKmfh.s:149    .text.i2c_clock_config:000000000000003a .L0 
     /tmp/cc0dKmfh.s:150    .text.i2c_clock_config:000000000000003a .L0 
     /tmp/cc0dKmfh.s:153    .text.i2c_clock_config:0000000000000040 .L0 
     /tmp/cc0dKmfh.s:156    .text.i2c_clock_config:0000000000000044 .L0 
     /tmp/cc0dKmfh.s:157    .text.i2c_clock_config:0000000000000044 .L0 
     /tmp/cc0dKmfh.s:160    .text.i2c_clock_config:0000000000000046 .L0 
     /tmp/cc0dKmfh.s:161    .text.i2c_clock_config:0000000000000046 .L0 
     /tmp/cc0dKmfh.s:163    .text.i2c_clock_config:0000000000000048 .L0 
     /tmp/cc0dKmfh.s:164    .text.i2c_clock_config:0000000000000048 .L0 
     /tmp/cc0dKmfh.s:166    .text.i2c_clock_config:000000000000004c .L0 
     /tmp/cc0dKmfh.s:167    .text.i2c_clock_config:000000000000004c .L0 
     /tmp/cc0dKmfh.s:170    .text.i2c_clock_config:000000000000004e .L0 
     /tmp/cc0dKmfh.s:171    .text.i2c_clock_config:000000000000004e .L0 
     /tmp/cc0dKmfh.s:175    .text.i2c_clock_config:0000000000000056 .L0 
     /tmp/cc0dKmfh.s:176    .text.i2c_clock_config:0000000000000056 .L0 
     /tmp/cc0dKmfh.s:182    .text.i2c_clock_config:000000000000005c .L0 
     /tmp/cc0dKmfh.s:183    .text.i2c_clock_config:000000000000005c .L0 
     /tmp/cc0dKmfh.s:186    .text.i2c_clock_config:000000000000005e .L0 
     /tmp/cc0dKmfh.s:187    .text.i2c_clock_config:000000000000005e .L0 
     /tmp/cc0dKmfh.s:188    .text.i2c_clock_config:000000000000005e .L0 
     /tmp/cc0dKmfh.s:192    .text.i2c_clock_config:0000000000000064 .L0 
     /tmp/cc0dKmfh.s:195    .text.i2c_clock_config:0000000000000066 .L0 
     /tmp/cc0dKmfh.s:202    .text.i2c_clock_config:0000000000000070 .L0 
     /tmp/cc0dKmfh.s:206    .text.i2c_clock_config:0000000000000074 .L0 
     /tmp/cc0dKmfh.s:207    .text.i2c_clock_config:0000000000000076 .L0 
     /tmp/cc0dKmfh.s:208    .text.i2c_clock_config:0000000000000076 .L0 
     /tmp/cc0dKmfh.s:210    .text.i2c_clock_config:0000000000000078 .L0 
     /tmp/cc0dKmfh.s:212    .text.i2c_clock_config:000000000000007a .L0 
     /tmp/cc0dKmfh.s:215    .text.i2c_clock_config:000000000000007c .L0 
     /tmp/cc0dKmfh.s:219    .text.i2c_clock_config:000000000000007e .L0 
     /tmp/cc0dKmfh.s:224    .text.i2c_clock_config:0000000000000080 .L0 
     /tmp/cc0dKmfh.s:226    .text.i2c_clock_config:0000000000000080 .L0 
     /tmp/cc0dKmfh.s:227    .text.i2c_clock_config:0000000000000080 .L0 
     /tmp/cc0dKmfh.s:231    .text.i2c_clock_config:000000000000008c .L0 
     /tmp/cc0dKmfh.s:232    .text.i2c_clock_config:000000000000008c .L0 
     /tmp/cc0dKmfh.s:236    .text.i2c_clock_config:0000000000000094 .L0 
     /tmp/cc0dKmfh.s:238    .text.i2c_clock_config:0000000000000098 .L0 
     /tmp/cc0dKmfh.s:240    .text.i2c_clock_config:000000000000009c .L0 
     /tmp/cc0dKmfh.s:242    .text.i2c_clock_config:00000000000000a0 .L0 
     /tmp/cc0dKmfh.s:244    .text.i2c_clock_config:00000000000000a2 .L0 
     /tmp/cc0dKmfh.s:246    .text.i2c_clock_config:00000000000000a4 .L0 
     /tmp/cc0dKmfh.s:247    .text.i2c_clock_config:00000000000000a4 .L0 
     /tmp/cc0dKmfh.s:249    .text.i2c_clock_config:00000000000000a8 .L0 
     /tmp/cc0dKmfh.s:250    .text.i2c_clock_config:00000000000000a8 .L0 
     /tmp/cc0dKmfh.s:253    .text.i2c_clock_config:00000000000000aa .L0 
     /tmp/cc0dKmfh.s:256    .text.i2c_clock_config:00000000000000ae .L0 
     /tmp/cc0dKmfh.s:257    .text.i2c_clock_config:00000000000000ae .L0 
     /tmp/cc0dKmfh.s:264    .text.i2c_clock_config:00000000000000b8 .L0 
     /tmp/cc0dKmfh.s:268    .text.i2c_clock_config:00000000000000be .L0 
     /tmp/cc0dKmfh.s:269    .text.i2c_clock_config:00000000000000be .L0 
     /tmp/cc0dKmfh.s:271    .text.i2c_clock_config:00000000000000c0 .L0 
GAS LISTING /tmp/cc0dKmfh.s 			page 39


     /tmp/cc0dKmfh.s:272    .text.i2c_clock_config:00000000000000c0 .L0 
     /tmp/cc0dKmfh.s:276    .text.i2c_clock_config:00000000000000c4 .L0 
     /tmp/cc0dKmfh.s:277    .text.i2c_clock_config:00000000000000c4 .L0 
     /tmp/cc0dKmfh.s:280    .text.i2c_clock_config:00000000000000c8 .L0 
     /tmp/cc0dKmfh.s:281    .text.i2c_clock_config:00000000000000ca .L0 
     /tmp/cc0dKmfh.s:282    .text.i2c_clock_config:00000000000000ca .L0 
     /tmp/cc0dKmfh.s:284    .text.i2c_clock_config:00000000000000ca .L0 
     /tmp/cc0dKmfh.s:287    .text.i2c_clock_config:00000000000000ce .L0 
     /tmp/cc0dKmfh.s:288    .text.i2c_clock_config:00000000000000ce .L0 
     /tmp/cc0dKmfh.s:290    .text.i2c_clock_config:00000000000000d0 .L0 
     /tmp/cc0dKmfh.s:291    .text.i2c_clock_config:00000000000000d2 .L0 
     /tmp/cc0dKmfh.s:294    .text.i2c_clock_config:00000000000000d2 .L0 
     /tmp/cc0dKmfh.s:297    .text.i2c_clock_config:00000000000000d4 .L0 
     /tmp/cc0dKmfh.s:298    .text.i2c_clock_config:00000000000000d6 .L0 
     /tmp/cc0dKmfh.s:300    .text.i2c_clock_config:00000000000000d6 .L0 
     /tmp/cc0dKmfh.s:302    .text.i2c_clock_config:00000000000000d8 .L0 
     /tmp/cc0dKmfh.s:303    .text.i2c_clock_config:00000000000000d8 .L0 
     /tmp/cc0dKmfh.s:304    .text.i2c_clock_config:00000000000000da .L0 
     /tmp/cc0dKmfh.s:308    .text.i2c_clock_config:00000000000000dc .L0 
     /tmp/cc0dKmfh.s:313    .text.i2c_clock_config:00000000000000de .L0 
     /tmp/cc0dKmfh.s:315    .text.i2c_clock_config:00000000000000de .L0 
     /tmp/cc0dKmfh.s:316    .text.i2c_clock_config:00000000000000de .L0 
     /tmp/cc0dKmfh.s:319    .text.i2c_clock_config:00000000000000e4 .L0 
     /tmp/cc0dKmfh.s:320    .text.i2c_clock_config:00000000000000e4 .L0 
     /tmp/cc0dKmfh.s:326    .text.i2c_clock_config:00000000000000e8 .L0 
     /tmp/cc0dKmfh.s:327    .text.i2c_clock_config:00000000000000e8 .L0 
     /tmp/cc0dKmfh.s:333    .text.i2c_clock_config:00000000000000ec .L0 
     /tmp/cc0dKmfh.s:334    .text.i2c_clock_config:00000000000000ec .L0 
     /tmp/cc0dKmfh.s:339    .text.i2c_clock_config:00000000000000f2 .L0 
     /tmp/cc0dKmfh.s:342    .text.i2c_clock_config:00000000000000f6 .L0 
     /tmp/cc0dKmfh.s:343    .text.i2c_clock_config:00000000000000f6 .L0 
     /tmp/cc0dKmfh.s:350    .text.i2c_clock_config:0000000000000102 .L0 
     /tmp/cc0dKmfh.s:357    .text.i2c_mode_addr_config:0000000000000000 i2c_mode_addr_config
     /tmp/cc0dKmfh.s:360    .text.i2c_mode_addr_config:0000000000000000 .L0 
     /tmp/cc0dKmfh.s:362    .text.i2c_mode_addr_config:0000000000000000 .L0 
     /tmp/cc0dKmfh.s:363    .text.i2c_mode_addr_config:0000000000000000 .L0 
     /tmp/cc0dKmfh.s:364    .text.i2c_mode_addr_config:0000000000000000 .L0 
     /tmp/cc0dKmfh.s:365    .text.i2c_mode_addr_config:0000000000000000 .L0 
     /tmp/cc0dKmfh.s:368    .text.i2c_mode_addr_config:0000000000000002 .L0 
     /tmp/cc0dKmfh.s:369    .text.i2c_mode_addr_config:0000000000000002 .L0 
     /tmp/cc0dKmfh.s:372    .text.i2c_mode_addr_config:0000000000000006 .L0 
     /tmp/cc0dKmfh.s:374    .text.i2c_mode_addr_config:0000000000000008 .L0 
     /tmp/cc0dKmfh.s:377    .text.i2c_mode_addr_config:000000000000000a .L0 
     /tmp/cc0dKmfh.s:378    .text.i2c_mode_addr_config:000000000000000a .L0 
     /tmp/cc0dKmfh.s:381    .text.i2c_mode_addr_config:000000000000000c .L0 
     /tmp/cc0dKmfh.s:382    .text.i2c_mode_addr_config:000000000000000c .L0 
     /tmp/cc0dKmfh.s:385    .text.i2c_mode_addr_config:000000000000000e .L0 
     /tmp/cc0dKmfh.s:386    .text.i2c_mode_addr_config:000000000000000e .L0 
     /tmp/cc0dKmfh.s:387    .text.i2c_mode_addr_config:000000000000000e .L0 
     /tmp/cc0dKmfh.s:389    .text.i2c_mode_addr_config:0000000000000010 .L0 
     /tmp/cc0dKmfh.s:390    .text.i2c_mode_addr_config:0000000000000012 .L0 
     /tmp/cc0dKmfh.s:397    .text.i2c_smbus_type_config:0000000000000000 i2c_smbus_type_config
     /tmp/cc0dKmfh.s:400    .text.i2c_smbus_type_config:0000000000000000 .L0 
     /tmp/cc0dKmfh.s:402    .text.i2c_smbus_type_config:0000000000000000 .L0 
     /tmp/cc0dKmfh.s:403    .text.i2c_smbus_type_config:0000000000000000 .L0 
     /tmp/cc0dKmfh.s:404    .text.i2c_smbus_type_config:0000000000000000 .L0 
     /tmp/cc0dKmfh.s:407    .text.i2c_smbus_type_config:0000000000000006 .L0 
GAS LISTING /tmp/cc0dKmfh.s 			page 40


     /tmp/cc0dKmfh.s:408    .text.i2c_smbus_type_config:0000000000000006 .L0 
     /tmp/cc0dKmfh.s:412    .text.i2c_smbus_type_config:000000000000000c .L0 
     /tmp/cc0dKmfh.s:415    .text.i2c_smbus_type_config:000000000000000e .L0 
     /tmp/cc0dKmfh.s:416    .text.i2c_smbus_type_config:000000000000000e .L0 
     /tmp/cc0dKmfh.s:420    .text.i2c_smbus_type_config:0000000000000018 .L0 
     /tmp/cc0dKmfh.s:427    .text.i2c_ack_config:0000000000000000 i2c_ack_config
     /tmp/cc0dKmfh.s:430    .text.i2c_ack_config:0000000000000000 .L0 
     /tmp/cc0dKmfh.s:432    .text.i2c_ack_config:0000000000000000 .L0 
     /tmp/cc0dKmfh.s:433    .text.i2c_ack_config:0000000000000000 .L0 
     /tmp/cc0dKmfh.s:434    .text.i2c_ack_config:0000000000000000 .L0 
     /tmp/cc0dKmfh.s:437    .text.i2c_ack_config:0000000000000006 .L0 
     /tmp/cc0dKmfh.s:438    .text.i2c_ack_config:0000000000000006 .L0 
     /tmp/cc0dKmfh.s:442    .text.i2c_ack_config:000000000000000e .L0 
     /tmp/cc0dKmfh.s:445    .text.i2c_ack_config:0000000000000010 .L0 
     /tmp/cc0dKmfh.s:446    .text.i2c_ack_config:0000000000000010 .L0 
     /tmp/cc0dKmfh.s:450    .text.i2c_ack_config:000000000000001a .L0 
     /tmp/cc0dKmfh.s:457    .text.i2c_ackpos_config:0000000000000000 i2c_ackpos_config
     /tmp/cc0dKmfh.s:460    .text.i2c_ackpos_config:0000000000000000 .L0 
     /tmp/cc0dKmfh.s:462    .text.i2c_ackpos_config:0000000000000000 .L0 
     /tmp/cc0dKmfh.s:463    .text.i2c_ackpos_config:0000000000000000 .L0 
     /tmp/cc0dKmfh.s:464    .text.i2c_ackpos_config:0000000000000000 .L0 
     /tmp/cc0dKmfh.s:466    .text.i2c_ackpos_config:0000000000000002 .L0 
     /tmp/cc0dKmfh.s:468    .text.i2c_ackpos_config:0000000000000004 .L0 
     /tmp/cc0dKmfh.s:469    .text.i2c_ackpos_config:0000000000000004 .L0 
     /tmp/cc0dKmfh.s:476    .text.i2c_ackpos_config:0000000000000010 .L0 
     /tmp/cc0dKmfh.s:477    .text.i2c_ackpos_config:0000000000000010 .L0 
     /tmp/cc0dKmfh.s:482    .text.i2c_ackpos_config:000000000000001a .L0 
     /tmp/cc0dKmfh.s:483    .text.i2c_ackpos_config:000000000000001c .L0 
     /tmp/cc0dKmfh.s:490    .text.i2c_master_addressing:0000000000000000 i2c_master_addressing
     /tmp/cc0dKmfh.s:493    .text.i2c_master_addressing:0000000000000000 .L0 
     /tmp/cc0dKmfh.s:495    .text.i2c_master_addressing:0000000000000000 .L0 
     /tmp/cc0dKmfh.s:496    .text.i2c_master_addressing:0000000000000000 .L0 
     /tmp/cc0dKmfh.s:497    .text.i2c_master_addressing:0000000000000000 .L0 
     /tmp/cc0dKmfh.s:499    .text.i2c_master_addressing:0000000000000002 .L0 
     /tmp/cc0dKmfh.s:501    .text.i2c_master_addressing:0000000000000006 .L0 
     /tmp/cc0dKmfh.s:503    .text.i2c_master_addressing:000000000000000a .L0 
     /tmp/cc0dKmfh.s:504    .text.i2c_master_addressing:000000000000000a .L0 
     /tmp/cc0dKmfh.s:508    .text.i2c_master_addressing:000000000000000e .L0 
     /tmp/cc0dKmfh.s:509    .text.i2c_master_addressing:000000000000000e .L0 
     /tmp/cc0dKmfh.s:511    .text.i2c_master_addressing:0000000000000010 .L0 
     /tmp/cc0dKmfh.s:512    .text.i2c_master_addressing:0000000000000012 .L0 
     /tmp/cc0dKmfh.s:519    .text.i2c_saddr1_config:0000000000000000 i2c_saddr1_config
     /tmp/cc0dKmfh.s:522    .text.i2c_saddr1_config:0000000000000000 .L0 
     /tmp/cc0dKmfh.s:524    .text.i2c_saddr1_config:0000000000000000 .L0 
     /tmp/cc0dKmfh.s:525    .text.i2c_saddr1_config:0000000000000000 .L0 
     /tmp/cc0dKmfh.s:526    .text.i2c_saddr1_config:0000000000000000 .L0 
     /tmp/cc0dKmfh.s:529    .text.i2c_saddr1_config:0000000000000004 .L0 
     /tmp/cc0dKmfh.s:531    .text.i2c_saddr1_config:0000000000000006 .L0 
     /tmp/cc0dKmfh.s:532    .text.i2c_saddr1_config:0000000000000008 .L0 
     /tmp/cc0dKmfh.s:539    .text.i2c_dualaddr_enable:0000000000000000 i2c_dualaddr_enable
     /tmp/cc0dKmfh.s:542    .text.i2c_dualaddr_enable:0000000000000000 .L0 
     /tmp/cc0dKmfh.s:544    .text.i2c_dualaddr_enable:0000000000000000 .L0 
     /tmp/cc0dKmfh.s:545    .text.i2c_dualaddr_enable:0000000000000000 .L0 
     /tmp/cc0dKmfh.s:546    .text.i2c_dualaddr_enable:0000000000000000 .L0 
     /tmp/cc0dKmfh.s:547    .text.i2c_dualaddr_enable:0000000000000000 .L0 
     /tmp/cc0dKmfh.s:550    .text.i2c_dualaddr_enable:0000000000000004 .L0 
     /tmp/cc0dKmfh.s:553    .text.i2c_dualaddr_enable:0000000000000008 .L0 
GAS LISTING /tmp/cc0dKmfh.s 			page 41


     /tmp/cc0dKmfh.s:555    .text.i2c_dualaddr_enable:000000000000000a .L0 
     /tmp/cc0dKmfh.s:556    .text.i2c_dualaddr_enable:000000000000000c .L0 
     /tmp/cc0dKmfh.s:563    .text.i2c_dualaddr_disable:0000000000000000 i2c_dualaddr_disable
     /tmp/cc0dKmfh.s:566    .text.i2c_dualaddr_disable:0000000000000000 .L0 
     /tmp/cc0dKmfh.s:568    .text.i2c_dualaddr_disable:0000000000000000 .L0 
     /tmp/cc0dKmfh.s:569    .text.i2c_dualaddr_disable:0000000000000000 .L0 
     /tmp/cc0dKmfh.s:570    .text.i2c_dualaddr_disable:0000000000000000 .L0 
     /tmp/cc0dKmfh.s:574    .text.i2c_dualaddr_disable:0000000000000006 .L0 
     /tmp/cc0dKmfh.s:575    .text.i2c_dualaddr_disable:0000000000000008 .L0 
     /tmp/cc0dKmfh.s:582    .text.i2c_enable:0000000000000000 i2c_enable
     /tmp/cc0dKmfh.s:585    .text.i2c_enable:0000000000000000 .L0 
     /tmp/cc0dKmfh.s:587    .text.i2c_enable:0000000000000000 .L0 
     /tmp/cc0dKmfh.s:588    .text.i2c_enable:0000000000000000 .L0 
     /tmp/cc0dKmfh.s:589    .text.i2c_enable:0000000000000000 .L0 
     /tmp/cc0dKmfh.s:593    .text.i2c_enable:0000000000000008 .L0 
     /tmp/cc0dKmfh.s:594    .text.i2c_enable:000000000000000a .L0 
     /tmp/cc0dKmfh.s:601    .text.i2c_disable:0000000000000000 i2c_disable
     /tmp/cc0dKmfh.s:604    .text.i2c_disable:0000000000000000 .L0 
     /tmp/cc0dKmfh.s:606    .text.i2c_disable:0000000000000000 .L0 
     /tmp/cc0dKmfh.s:607    .text.i2c_disable:0000000000000000 .L0 
     /tmp/cc0dKmfh.s:608    .text.i2c_disable:0000000000000000 .L0 
     /tmp/cc0dKmfh.s:612    .text.i2c_disable:0000000000000006 .L0 
     /tmp/cc0dKmfh.s:613    .text.i2c_disable:0000000000000008 .L0 
     /tmp/cc0dKmfh.s:620    .text.i2c_start_on_bus:0000000000000000 i2c_start_on_bus
     /tmp/cc0dKmfh.s:623    .text.i2c_start_on_bus:0000000000000000 .L0 
     /tmp/cc0dKmfh.s:625    .text.i2c_start_on_bus:0000000000000000 .L0 
     /tmp/cc0dKmfh.s:626    .text.i2c_start_on_bus:0000000000000000 .L0 
     /tmp/cc0dKmfh.s:627    .text.i2c_start_on_bus:0000000000000000 .L0 
     /tmp/cc0dKmfh.s:631    .text.i2c_start_on_bus:0000000000000008 .L0 
     /tmp/cc0dKmfh.s:632    .text.i2c_start_on_bus:000000000000000a .L0 
     /tmp/cc0dKmfh.s:639    .text.i2c_stop_on_bus:0000000000000000 i2c_stop_on_bus
     /tmp/cc0dKmfh.s:642    .text.i2c_stop_on_bus:0000000000000000 .L0 
     /tmp/cc0dKmfh.s:644    .text.i2c_stop_on_bus:0000000000000000 .L0 
     /tmp/cc0dKmfh.s:645    .text.i2c_stop_on_bus:0000000000000000 .L0 
     /tmp/cc0dKmfh.s:646    .text.i2c_stop_on_bus:0000000000000000 .L0 
     /tmp/cc0dKmfh.s:650    .text.i2c_stop_on_bus:0000000000000008 .L0 
     /tmp/cc0dKmfh.s:651    .text.i2c_stop_on_bus:000000000000000a .L0 
     /tmp/cc0dKmfh.s:658    .text.i2c_data_transmit:0000000000000000 i2c_data_transmit
     /tmp/cc0dKmfh.s:661    .text.i2c_data_transmit:0000000000000000 .L0 
     /tmp/cc0dKmfh.s:663    .text.i2c_data_transmit:0000000000000000 .L0 
     /tmp/cc0dKmfh.s:664    .text.i2c_data_transmit:0000000000000000 .L0 
     /tmp/cc0dKmfh.s:665    .text.i2c_data_transmit:0000000000000000 .L0 
     /tmp/cc0dKmfh.s:667    .text.i2c_data_transmit:0000000000000002 .L0 
     /tmp/cc0dKmfh.s:668    .text.i2c_data_transmit:0000000000000004 .L0 
     /tmp/cc0dKmfh.s:675    .text.i2c_data_receive:0000000000000000 i2c_data_receive
     /tmp/cc0dKmfh.s:678    .text.i2c_data_receive:0000000000000000 .L0 
     /tmp/cc0dKmfh.s:680    .text.i2c_data_receive:0000000000000000 .L0 
     /tmp/cc0dKmfh.s:681    .text.i2c_data_receive:0000000000000000 .L0 
     /tmp/cc0dKmfh.s:682    .text.i2c_data_receive:0000000000000000 .L0 
     /tmp/cc0dKmfh.s:685    .text.i2c_data_receive:0000000000000002 .L0 
     /tmp/cc0dKmfh.s:687    .text.i2c_data_receive:0000000000000008 .L0 
     /tmp/cc0dKmfh.s:694    .text.i2c_dma_enable:0000000000000000 i2c_dma_enable
     /tmp/cc0dKmfh.s:697    .text.i2c_dma_enable:0000000000000000 .L0 
     /tmp/cc0dKmfh.s:699    .text.i2c_dma_enable:0000000000000000 .L0 
     /tmp/cc0dKmfh.s:700    .text.i2c_dma_enable:0000000000000000 .L0 
     /tmp/cc0dKmfh.s:701    .text.i2c_dma_enable:0000000000000000 .L0 
     /tmp/cc0dKmfh.s:702    .text.i2c_dma_enable:0000000000000000 .L0 
GAS LISTING /tmp/cc0dKmfh.s 			page 42


     /tmp/cc0dKmfh.s:705    .text.i2c_dma_enable:0000000000000002 .L0 
     /tmp/cc0dKmfh.s:706    .text.i2c_dma_enable:0000000000000002 .L0 
     /tmp/cc0dKmfh.s:711    .text.i2c_dma_enable:000000000000000a .L0 
     /tmp/cc0dKmfh.s:712    .text.i2c_dma_enable:000000000000000a .L0 
     /tmp/cc0dKmfh.s:715    .text.i2c_dma_enable:000000000000000c .L0 
     /tmp/cc0dKmfh.s:716    .text.i2c_dma_enable:000000000000000c .L0 
     /tmp/cc0dKmfh.s:718    .text.i2c_dma_enable:000000000000000e .L0 
     /tmp/cc0dKmfh.s:719    .text.i2c_dma_enable:0000000000000010 .L0 
     /tmp/cc0dKmfh.s:726    .text.i2c_dma_last_transfer_config:0000000000000000 i2c_dma_last_transfer_config
     /tmp/cc0dKmfh.s:729    .text.i2c_dma_last_transfer_config:0000000000000000 .L0 
     /tmp/cc0dKmfh.s:731    .text.i2c_dma_last_transfer_config:0000000000000000 .L0 
     /tmp/cc0dKmfh.s:732    .text.i2c_dma_last_transfer_config:0000000000000000 .L0 
     /tmp/cc0dKmfh.s:733    .text.i2c_dma_last_transfer_config:0000000000000000 .L0 
     /tmp/cc0dKmfh.s:734    .text.i2c_dma_last_transfer_config:0000000000000000 .L0 
     /tmp/cc0dKmfh.s:737    .text.i2c_dma_last_transfer_config:0000000000000002 .L0 
     /tmp/cc0dKmfh.s:738    .text.i2c_dma_last_transfer_config:0000000000000002 .L0 
     /tmp/cc0dKmfh.s:743    .text.i2c_dma_last_transfer_config:0000000000000008 .L0 
     /tmp/cc0dKmfh.s:744    .text.i2c_dma_last_transfer_config:0000000000000008 .L0 
     /tmp/cc0dKmfh.s:747    .text.i2c_dma_last_transfer_config:000000000000000a .L0 
     /tmp/cc0dKmfh.s:748    .text.i2c_dma_last_transfer_config:000000000000000a .L0 
     /tmp/cc0dKmfh.s:750    .text.i2c_dma_last_transfer_config:000000000000000c .L0 
     /tmp/cc0dKmfh.s:751    .text.i2c_dma_last_transfer_config:000000000000000e .L0 
     /tmp/cc0dKmfh.s:758    .text.i2c_stretch_scl_low_config:0000000000000000 i2c_stretch_scl_low_config
     /tmp/cc0dKmfh.s:761    .text.i2c_stretch_scl_low_config:0000000000000000 .L0 
     /tmp/cc0dKmfh.s:763    .text.i2c_stretch_scl_low_config:0000000000000000 .L0 
     /tmp/cc0dKmfh.s:764    .text.i2c_stretch_scl_low_config:0000000000000000 .L0 
     /tmp/cc0dKmfh.s:765    .text.i2c_stretch_scl_low_config:0000000000000000 .L0 
     /tmp/cc0dKmfh.s:766    .text.i2c_stretch_scl_low_config:0000000000000000 .L0 
     /tmp/cc0dKmfh.s:769    .text.i2c_stretch_scl_low_config:0000000000000002 .L0 
     /tmp/cc0dKmfh.s:770    .text.i2c_stretch_scl_low_config:0000000000000002 .L0 
     /tmp/cc0dKmfh.s:773    .text.i2c_stretch_scl_low_config:0000000000000006 .L0 
     /tmp/cc0dKmfh.s:774    .text.i2c_stretch_scl_low_config:0000000000000006 .L0 
     /tmp/cc0dKmfh.s:777    .text.i2c_stretch_scl_low_config:0000000000000008 .L0 
     /tmp/cc0dKmfh.s:778    .text.i2c_stretch_scl_low_config:0000000000000008 .L0 
     /tmp/cc0dKmfh.s:780    .text.i2c_stretch_scl_low_config:000000000000000a .L0 
     /tmp/cc0dKmfh.s:781    .text.i2c_stretch_scl_low_config:000000000000000c .L0 
     /tmp/cc0dKmfh.s:788    .text.i2c_slave_response_to_gcall_config:0000000000000000 i2c_slave_response_to_gcall_config
     /tmp/cc0dKmfh.s:791    .text.i2c_slave_response_to_gcall_config:0000000000000000 .L0 
     /tmp/cc0dKmfh.s:793    .text.i2c_slave_response_to_gcall_config:0000000000000000 .L0 
     /tmp/cc0dKmfh.s:794    .text.i2c_slave_response_to_gcall_config:0000000000000000 .L0 
     /tmp/cc0dKmfh.s:795    .text.i2c_slave_response_to_gcall_config:0000000000000000 .L0 
     /tmp/cc0dKmfh.s:796    .text.i2c_slave_response_to_gcall_config:0000000000000000 .L0 
     /tmp/cc0dKmfh.s:799    .text.i2c_slave_response_to_gcall_config:0000000000000002 .L0 
     /tmp/cc0dKmfh.s:800    .text.i2c_slave_response_to_gcall_config:0000000000000002 .L0 
     /tmp/cc0dKmfh.s:803    .text.i2c_slave_response_to_gcall_config:0000000000000006 .L0 
     /tmp/cc0dKmfh.s:804    .text.i2c_slave_response_to_gcall_config:0000000000000006 .L0 
     /tmp/cc0dKmfh.s:807    .text.i2c_slave_response_to_gcall_config:0000000000000008 .L0 
     /tmp/cc0dKmfh.s:808    .text.i2c_slave_response_to_gcall_config:0000000000000008 .L0 
     /tmp/cc0dKmfh.s:810    .text.i2c_slave_response_to_gcall_config:000000000000000a .L0 
     /tmp/cc0dKmfh.s:811    .text.i2c_slave_response_to_gcall_config:000000000000000c .L0 
     /tmp/cc0dKmfh.s:818    .text.i2c_software_reset_config:0000000000000000 i2c_software_reset_config
     /tmp/cc0dKmfh.s:821    .text.i2c_software_reset_config:0000000000000000 .L0 
     /tmp/cc0dKmfh.s:823    .text.i2c_software_reset_config:0000000000000000 .L0 
     /tmp/cc0dKmfh.s:824    .text.i2c_software_reset_config:0000000000000000 .L0 
     /tmp/cc0dKmfh.s:825    .text.i2c_software_reset_config:0000000000000000 .L0 
     /tmp/cc0dKmfh.s:826    .text.i2c_software_reset_config:0000000000000000 .L0 
     /tmp/cc0dKmfh.s:829    .text.i2c_software_reset_config:0000000000000002 .L0 
GAS LISTING /tmp/cc0dKmfh.s 			page 43


     /tmp/cc0dKmfh.s:830    .text.i2c_software_reset_config:0000000000000002 .L0 
     /tmp/cc0dKmfh.s:835    .text.i2c_software_reset_config:0000000000000008 .L0 
     /tmp/cc0dKmfh.s:836    .text.i2c_software_reset_config:0000000000000008 .L0 
     /tmp/cc0dKmfh.s:839    .text.i2c_software_reset_config:000000000000000a .L0 
     /tmp/cc0dKmfh.s:840    .text.i2c_software_reset_config:000000000000000a .L0 
     /tmp/cc0dKmfh.s:842    .text.i2c_software_reset_config:000000000000000c .L0 
     /tmp/cc0dKmfh.s:843    .text.i2c_software_reset_config:000000000000000e .L0 
     /tmp/cc0dKmfh.s:850    .text.i2c_pec_enable:0000000000000000 i2c_pec_enable
     /tmp/cc0dKmfh.s:853    .text.i2c_pec_enable:0000000000000000 .L0 
     /tmp/cc0dKmfh.s:855    .text.i2c_pec_enable:0000000000000000 .L0 
     /tmp/cc0dKmfh.s:856    .text.i2c_pec_enable:0000000000000000 .L0 
     /tmp/cc0dKmfh.s:857    .text.i2c_pec_enable:0000000000000000 .L0 
     /tmp/cc0dKmfh.s:858    .text.i2c_pec_enable:0000000000000000 .L0 
     /tmp/cc0dKmfh.s:861    .text.i2c_pec_enable:0000000000000002 .L0 
     /tmp/cc0dKmfh.s:862    .text.i2c_pec_enable:0000000000000002 .L0 
     /tmp/cc0dKmfh.s:865    .text.i2c_pec_enable:0000000000000006 .L0 
     /tmp/cc0dKmfh.s:866    .text.i2c_pec_enable:0000000000000006 .L0 
     /tmp/cc0dKmfh.s:869    .text.i2c_pec_enable:0000000000000008 .L0 
     /tmp/cc0dKmfh.s:870    .text.i2c_pec_enable:0000000000000008 .L0 
     /tmp/cc0dKmfh.s:872    .text.i2c_pec_enable:000000000000000a .L0 
     /tmp/cc0dKmfh.s:873    .text.i2c_pec_enable:000000000000000c .L0 
     /tmp/cc0dKmfh.s:880    .text.i2c_pec_transfer_enable:0000000000000000 i2c_pec_transfer_enable
     /tmp/cc0dKmfh.s:883    .text.i2c_pec_transfer_enable:0000000000000000 .L0 
     /tmp/cc0dKmfh.s:885    .text.i2c_pec_transfer_enable:0000000000000000 .L0 
     /tmp/cc0dKmfh.s:886    .text.i2c_pec_transfer_enable:0000000000000000 .L0 
     /tmp/cc0dKmfh.s:887    .text.i2c_pec_transfer_enable:0000000000000000 .L0 
     /tmp/cc0dKmfh.s:888    .text.i2c_pec_transfer_enable:0000000000000000 .L0 
     /tmp/cc0dKmfh.s:891    .text.i2c_pec_transfer_enable:0000000000000002 .L0 
     /tmp/cc0dKmfh.s:892    .text.i2c_pec_transfer_enable:0000000000000002 .L0 
     /tmp/cc0dKmfh.s:897    .text.i2c_pec_transfer_enable:0000000000000008 .L0 
     /tmp/cc0dKmfh.s:898    .text.i2c_pec_transfer_enable:0000000000000008 .L0 
     /tmp/cc0dKmfh.s:901    .text.i2c_pec_transfer_enable:000000000000000a .L0 
     /tmp/cc0dKmfh.s:902    .text.i2c_pec_transfer_enable:000000000000000a .L0 
     /tmp/cc0dKmfh.s:904    .text.i2c_pec_transfer_enable:000000000000000c .L0 
     /tmp/cc0dKmfh.s:905    .text.i2c_pec_transfer_enable:000000000000000e .L0 
     /tmp/cc0dKmfh.s:912    .text.i2c_pec_value_get:0000000000000000 i2c_pec_value_get
     /tmp/cc0dKmfh.s:915    .text.i2c_pec_value_get:0000000000000000 .L0 
     /tmp/cc0dKmfh.s:917    .text.i2c_pec_value_get:0000000000000000 .L0 
     /tmp/cc0dKmfh.s:918    .text.i2c_pec_value_get:0000000000000000 .L0 
     /tmp/cc0dKmfh.s:919    .text.i2c_pec_value_get:0000000000000000 .L0 
     /tmp/cc0dKmfh.s:922    .text.i2c_pec_value_get:0000000000000002 .L0 
     /tmp/cc0dKmfh.s:924    .text.i2c_pec_value_get:0000000000000004 .L0 
     /tmp/cc0dKmfh.s:926    .text.i2c_pec_value_get:000000000000000a .L0 
     /tmp/cc0dKmfh.s:933    .text.i2c_smbus_issue_alert:0000000000000000 i2c_smbus_issue_alert
     /tmp/cc0dKmfh.s:936    .text.i2c_smbus_issue_alert:0000000000000000 .L0 
     /tmp/cc0dKmfh.s:938    .text.i2c_smbus_issue_alert:0000000000000000 .L0 
     /tmp/cc0dKmfh.s:939    .text.i2c_smbus_issue_alert:0000000000000000 .L0 
     /tmp/cc0dKmfh.s:940    .text.i2c_smbus_issue_alert:0000000000000000 .L0 
     /tmp/cc0dKmfh.s:941    .text.i2c_smbus_issue_alert:0000000000000000 .L0 
     /tmp/cc0dKmfh.s:944    .text.i2c_smbus_issue_alert:0000000000000002 .L0 
     /tmp/cc0dKmfh.s:945    .text.i2c_smbus_issue_alert:0000000000000002 .L0 
     /tmp/cc0dKmfh.s:950    .text.i2c_smbus_issue_alert:0000000000000008 .L0 
     /tmp/cc0dKmfh.s:951    .text.i2c_smbus_issue_alert:0000000000000008 .L0 
     /tmp/cc0dKmfh.s:954    .text.i2c_smbus_issue_alert:000000000000000a .L0 
     /tmp/cc0dKmfh.s:955    .text.i2c_smbus_issue_alert:000000000000000a .L0 
     /tmp/cc0dKmfh.s:957    .text.i2c_smbus_issue_alert:000000000000000c .L0 
     /tmp/cc0dKmfh.s:958    .text.i2c_smbus_issue_alert:000000000000000e .L0 
GAS LISTING /tmp/cc0dKmfh.s 			page 44


     /tmp/cc0dKmfh.s:965    .text.i2c_smbus_arp_enable:0000000000000000 i2c_smbus_arp_enable
     /tmp/cc0dKmfh.s:968    .text.i2c_smbus_arp_enable:0000000000000000 .L0 
     /tmp/cc0dKmfh.s:970    .text.i2c_smbus_arp_enable:0000000000000000 .L0 
     /tmp/cc0dKmfh.s:971    .text.i2c_smbus_arp_enable:0000000000000000 .L0 
     /tmp/cc0dKmfh.s:972    .text.i2c_smbus_arp_enable:0000000000000000 .L0 
     /tmp/cc0dKmfh.s:973    .text.i2c_smbus_arp_enable:0000000000000000 .L0 
     /tmp/cc0dKmfh.s:976    .text.i2c_smbus_arp_enable:0000000000000002 .L0 
     /tmp/cc0dKmfh.s:977    .text.i2c_smbus_arp_enable:0000000000000002 .L0 
     /tmp/cc0dKmfh.s:980    .text.i2c_smbus_arp_enable:0000000000000004 .L0 
     /tmp/cc0dKmfh.s:981    .text.i2c_smbus_arp_enable:0000000000000004 .L0 
     /tmp/cc0dKmfh.s:984    .text.i2c_smbus_arp_enable:0000000000000006 .L0 
     /tmp/cc0dKmfh.s:985    .text.i2c_smbus_arp_enable:0000000000000006 .L0 
     /tmp/cc0dKmfh.s:987    .text.i2c_smbus_arp_enable:0000000000000008 .L0 
     /tmp/cc0dKmfh.s:988    .text.i2c_smbus_arp_enable:000000000000000a .L0 
     /tmp/cc0dKmfh.s:995    .text.i2c_flag_get:0000000000000000 i2c_flag_get
     /tmp/cc0dKmfh.s:998    .text.i2c_flag_get:0000000000000000 .L0 
     /tmp/cc0dKmfh.s:1000   .text.i2c_flag_get:0000000000000000 .L0 
     /tmp/cc0dKmfh.s:1001   .text.i2c_flag_get:0000000000000000 .L0 
     /tmp/cc0dKmfh.s:1002   .text.i2c_flag_get:0000000000000000 .L0 
     /tmp/cc0dKmfh.s:1008   .text.i2c_flag_get:000000000000000c .L0 
     /tmp/cc0dKmfh.s:1010   .text.i2c_flag_get:0000000000000010 .L0 
     /tmp/cc0dKmfh.s:1012   .text.i2c_flag_get:0000000000000014 .L0 
     /tmp/cc0dKmfh.s:1019   .text.i2c_flag_clear:0000000000000000 i2c_flag_clear
     /tmp/cc0dKmfh.s:1022   .text.i2c_flag_clear:0000000000000000 .L0 
     /tmp/cc0dKmfh.s:1024   .text.i2c_flag_clear:0000000000000000 .L0 
     /tmp/cc0dKmfh.s:1025   .text.i2c_flag_clear:0000000000000000 .L0 
     /tmp/cc0dKmfh.s:1026   .text.i2c_flag_clear:0000000000000000 .L0 
     /tmp/cc0dKmfh.s:1027   .text.i2c_flag_clear:0000000000000000 .L0 
     /tmp/cc0dKmfh.s:1030   .text.i2c_flag_clear:0000000000000008 .L0 
     /tmp/cc0dKmfh.s:1031   .text.i2c_flag_clear:0000000000000008 .L0 
     /tmp/cc0dKmfh.s:1037   .text.i2c_flag_clear:0000000000000014 .L0 
     /tmp/cc0dKmfh.s:1041   .text.i2c_flag_clear:000000000000001a .L0 
     /tmp/cc0dKmfh.s:1043   .text.i2c_flag_clear:000000000000001e .L0 
     /tmp/cc0dKmfh.s:1046   .text.i2c_flag_clear:0000000000000022 .L0 
     /tmp/cc0dKmfh.s:1050   .text.i2c_flag_clear:0000000000000024 .L0 
     /tmp/cc0dKmfh.s:1051   .text.i2c_flag_clear:0000000000000024 .L0 
     /tmp/cc0dKmfh.s:1053   .text.i2c_flag_clear:0000000000000026 .L0 
     /tmp/cc0dKmfh.s:1054   .text.i2c_flag_clear:0000000000000026 .L0 
     /tmp/cc0dKmfh.s:1056   .text.i2c_flag_clear:000000000000002a .L0 
     /tmp/cc0dKmfh.s:1063   .text.i2c_interrupt_enable:0000000000000000 i2c_interrupt_enable
     /tmp/cc0dKmfh.s:1066   .text.i2c_interrupt_enable:0000000000000000 .L0 
     /tmp/cc0dKmfh.s:1068   .text.i2c_interrupt_enable:0000000000000000 .L0 
     /tmp/cc0dKmfh.s:1069   .text.i2c_interrupt_enable:0000000000000000 .L0 
     /tmp/cc0dKmfh.s:1070   .text.i2c_interrupt_enable:0000000000000000 .L0 
     /tmp/cc0dKmfh.s:1076   .text.i2c_interrupt_enable:000000000000000c .L0 
     /tmp/cc0dKmfh.s:1080   .text.i2c_interrupt_enable:0000000000000012 .L0 
     /tmp/cc0dKmfh.s:1083   .text.i2c_interrupt_enable:0000000000000016 .L0 
     /tmp/cc0dKmfh.s:1084   .text.i2c_interrupt_enable:0000000000000018 .L0 
     /tmp/cc0dKmfh.s:1091   .text.i2c_interrupt_disable:0000000000000000 i2c_interrupt_disable
     /tmp/cc0dKmfh.s:1094   .text.i2c_interrupt_disable:0000000000000000 .L0 
     /tmp/cc0dKmfh.s:1096   .text.i2c_interrupt_disable:0000000000000000 .L0 
     /tmp/cc0dKmfh.s:1097   .text.i2c_interrupt_disable:0000000000000000 .L0 
     /tmp/cc0dKmfh.s:1098   .text.i2c_interrupt_disable:0000000000000000 .L0 
     /tmp/cc0dKmfh.s:1104   .text.i2c_interrupt_disable:000000000000000c .L0 
     /tmp/cc0dKmfh.s:1107   .text.i2c_interrupt_disable:0000000000000012 .L0 
     /tmp/cc0dKmfh.s:1109   .text.i2c_interrupt_disable:0000000000000016 .L0 
     /tmp/cc0dKmfh.s:1112   .text.i2c_interrupt_disable:000000000000001a .L0 
GAS LISTING /tmp/cc0dKmfh.s 			page 45


     /tmp/cc0dKmfh.s:1113   .text.i2c_interrupt_disable:000000000000001c .L0 
     /tmp/cc0dKmfh.s:1120   .text.i2c_interrupt_flag_get:0000000000000000 i2c_interrupt_flag_get
     /tmp/cc0dKmfh.s:1123   .text.i2c_interrupt_flag_get:0000000000000000 .L0 
     /tmp/cc0dKmfh.s:1125   .text.i2c_interrupt_flag_get:0000000000000000 .L0 
     /tmp/cc0dKmfh.s:1126   .text.i2c_interrupt_flag_get:0000000000000000 .L0 
     /tmp/cc0dKmfh.s:1127   .text.i2c_interrupt_flag_get:0000000000000000 .L0 
     /tmp/cc0dKmfh.s:1128   .text.i2c_interrupt_flag_get:0000000000000000 .L0 
     /tmp/cc0dKmfh.s:1130   .text.i2c_interrupt_flag_get:0000000000000004 .L0 
     /tmp/cc0dKmfh.s:1132   .text.i2c_interrupt_flag_get:0000000000000008 .L0 
     /tmp/cc0dKmfh.s:1135   .text.i2c_interrupt_flag_get:000000000000000e .L0 
     /tmp/cc0dKmfh.s:1137   .text.i2c_interrupt_flag_get:0000000000000010 .L0 
     /tmp/cc0dKmfh.s:1140   .text.i2c_interrupt_flag_get:0000000000000014 .L0 
     /tmp/cc0dKmfh.s:1141   .text.i2c_interrupt_flag_get:0000000000000014 .L0 
     /tmp/cc0dKmfh.s:1143   .text.i2c_interrupt_flag_get:0000000000000016 .L0 
     /tmp/cc0dKmfh.s:1145   .text.i2c_interrupt_flag_get:0000000000000018 .L0 
     /tmp/cc0dKmfh.s:1147   .text.i2c_interrupt_flag_get:000000000000001a .L0 
     /tmp/cc0dKmfh.s:1149   .text.i2c_interrupt_flag_get:000000000000001e .L0 
     /tmp/cc0dKmfh.s:1152   .text.i2c_interrupt_flag_get:0000000000000022 .L0 
     /tmp/cc0dKmfh.s:1154   .text.i2c_interrupt_flag_get:0000000000000026 .L0 
     /tmp/cc0dKmfh.s:1161   .text.i2c_interrupt_flag_get:0000000000000034 .L0 
     /tmp/cc0dKmfh.s:1164   .text.i2c_interrupt_flag_get:0000000000000036 .L0 
     /tmp/cc0dKmfh.s:1165   .text.i2c_interrupt_flag_get:0000000000000036 .L0 
     /tmp/cc0dKmfh.s:1168   .text.i2c_interrupt_flag_get:0000000000000038 .L0 
     /tmp/cc0dKmfh.s:1169   .text.i2c_interrupt_flag_get:0000000000000038 .L0 
     /tmp/cc0dKmfh.s:1171   .text.i2c_interrupt_flag_get:000000000000003c .L0 
     /tmp/cc0dKmfh.s:1172   .text.i2c_interrupt_flag_get:000000000000003c .L0 
     /tmp/cc0dKmfh.s:1174   .text.i2c_interrupt_flag_get:000000000000003e .L0 
     /tmp/cc0dKmfh.s:1180   .text.i2c_interrupt_flag_get:0000000000000044 .L0 
     /tmp/cc0dKmfh.s:1181   .text.i2c_interrupt_flag_get:0000000000000044 .L0 
     /tmp/cc0dKmfh.s:1183   .text.i2c_interrupt_flag_get:0000000000000046 .L0 
     /tmp/cc0dKmfh.s:1186   .text.i2c_interrupt_flag_get:000000000000004a .L0 
     /tmp/cc0dKmfh.s:1189   .text.i2c_interrupt_flag_get:000000000000004c .L0 
     /tmp/cc0dKmfh.s:1190   .text.i2c_interrupt_flag_get:000000000000004c .L0 
     /tmp/cc0dKmfh.s:1195   .text.i2c_interrupt_flag_get:0000000000000052 .L0 
     /tmp/cc0dKmfh.s:1199   .text.i2c_interrupt_flag_get:0000000000000054 .L0 
     /tmp/cc0dKmfh.s:1200   .text.i2c_interrupt_flag_get:0000000000000056 .L0 
     /tmp/cc0dKmfh.s:1207   .text.i2c_interrupt_flag_clear:0000000000000000 i2c_interrupt_flag_clear
     /tmp/cc0dKmfh.s:1210   .text.i2c_interrupt_flag_clear:0000000000000000 .L0 
     /tmp/cc0dKmfh.s:1212   .text.i2c_interrupt_flag_clear:0000000000000000 .L0 
     /tmp/cc0dKmfh.s:1213   .text.i2c_interrupt_flag_clear:0000000000000000 .L0 
     /tmp/cc0dKmfh.s:1214   .text.i2c_interrupt_flag_clear:0000000000000000 .L0 
     /tmp/cc0dKmfh.s:1215   .text.i2c_interrupt_flag_clear:0000000000000000 .L0 
     /tmp/cc0dKmfh.s:1219   .text.i2c_interrupt_flag_clear:000000000000000c .L0 
     /tmp/cc0dKmfh.s:1220   .text.i2c_interrupt_flag_clear:000000000000000c .L0 
     /tmp/cc0dKmfh.s:1225   .text.i2c_interrupt_flag_clear:0000000000000014 .L0 
     /tmp/cc0dKmfh.s:1230   .text.i2c_interrupt_flag_clear:000000000000001c .L0 
     /tmp/cc0dKmfh.s:1232   .text.i2c_interrupt_flag_clear:0000000000000020 .L0 
     /tmp/cc0dKmfh.s:1235   .text.i2c_interrupt_flag_clear:0000000000000024 .L0 
     /tmp/cc0dKmfh.s:1239   .text.i2c_interrupt_flag_clear:0000000000000026 .L0 
     /tmp/cc0dKmfh.s:1240   .text.i2c_interrupt_flag_clear:0000000000000026 .L0 
     /tmp/cc0dKmfh.s:1242   .text.i2c_interrupt_flag_clear:0000000000000028 .L0 
     /tmp/cc0dKmfh.s:1243   .text.i2c_interrupt_flag_clear:0000000000000028 .L0 
     /tmp/cc0dKmfh.s:1245   .text.i2c_interrupt_flag_clear:000000000000002c .L0 
     /tmp/cc0dKmfh.s:89     .text.i2c_deinit:000000000000005a .L0 
     /tmp/cc0dKmfh.s:353    .text.i2c_clock_config:0000000000000102 .L0 
     /tmp/cc0dKmfh.s:393    .text.i2c_mode_addr_config:0000000000000012 .L0 
     /tmp/cc0dKmfh.s:423    .text.i2c_smbus_type_config:0000000000000018 .L0 
GAS LISTING /tmp/cc0dKmfh.s 			page 46


     /tmp/cc0dKmfh.s:453    .text.i2c_ack_config:000000000000001a .L0 
     /tmp/cc0dKmfh.s:486    .text.i2c_ackpos_config:000000000000001c .L0 
     /tmp/cc0dKmfh.s:515    .text.i2c_master_addressing:0000000000000012 .L0 
     /tmp/cc0dKmfh.s:535    .text.i2c_saddr1_config:0000000000000008 .L0 
     /tmp/cc0dKmfh.s:559    .text.i2c_dualaddr_enable:000000000000000c .L0 
     /tmp/cc0dKmfh.s:578    .text.i2c_dualaddr_disable:0000000000000008 .L0 
     /tmp/cc0dKmfh.s:597    .text.i2c_enable:000000000000000a .L0 
     /tmp/cc0dKmfh.s:616    .text.i2c_disable:0000000000000008 .L0 
     /tmp/cc0dKmfh.s:635    .text.i2c_start_on_bus:000000000000000a .L0 
     /tmp/cc0dKmfh.s:654    .text.i2c_stop_on_bus:000000000000000a .L0 
     /tmp/cc0dKmfh.s:671    .text.i2c_data_transmit:0000000000000004 .L0 
     /tmp/cc0dKmfh.s:690    .text.i2c_data_receive:0000000000000008 .L0 
     /tmp/cc0dKmfh.s:722    .text.i2c_dma_enable:0000000000000010 .L0 
     /tmp/cc0dKmfh.s:754    .text.i2c_dma_last_transfer_config:000000000000000e .L0 
     /tmp/cc0dKmfh.s:784    .text.i2c_stretch_scl_low_config:000000000000000c .L0 
     /tmp/cc0dKmfh.s:814    .text.i2c_slave_response_to_gcall_config:000000000000000c .L0 
     /tmp/cc0dKmfh.s:846    .text.i2c_software_reset_config:000000000000000e .L0 
     /tmp/cc0dKmfh.s:876    .text.i2c_pec_enable:000000000000000c .L0 
     /tmp/cc0dKmfh.s:908    .text.i2c_pec_transfer_enable:000000000000000e .L0 
     /tmp/cc0dKmfh.s:929    .text.i2c_pec_value_get:000000000000000a .L0 
     /tmp/cc0dKmfh.s:961    .text.i2c_smbus_issue_alert:000000000000000e .L0 
     /tmp/cc0dKmfh.s:991    .text.i2c_smbus_arp_enable:000000000000000a .L0 
     /tmp/cc0dKmfh.s:1015   .text.i2c_flag_get:0000000000000014 .L0 
     /tmp/cc0dKmfh.s:1059   .text.i2c_flag_clear:000000000000002a .L0 
     /tmp/cc0dKmfh.s:1087   .text.i2c_interrupt_enable:0000000000000018 .L0 
     /tmp/cc0dKmfh.s:1116   .text.i2c_interrupt_disable:000000000000001c .L0 
     /tmp/cc0dKmfh.s:1203   .text.i2c_interrupt_flag_get:0000000000000056 .L0 
     /tmp/cc0dKmfh.s:1248   .text.i2c_interrupt_flag_clear:000000000000002c .L0 
                     .debug_frame:0000000000000000 .L0 
     /tmp/cc0dKmfh.s:43     .text.i2c_deinit:0000000000000022 .L2
     /tmp/cc0dKmfh.s:65     .text.i2c_deinit:000000000000003e .L3
     /tmp/cc0dKmfh.s:142    .text.i2c_clock_config:0000000000000038 .L9
     /tmp/cc0dKmfh.s:222    .text.i2c_clock_config:0000000000000080 .L10
     /tmp/cc0dKmfh.s:311    .text.i2c_clock_config:00000000000000de .L11
     /tmp/cc0dKmfh.s:198    .text.i2c_clock_config:000000000000006c .L14
     /tmp/cc0dKmfh.s:204    .text.i2c_clock_config:0000000000000074 .L8
     /tmp/cc0dKmfh.s:331    .text.i2c_clock_config:00000000000000ec .L16
     /tmp/cc0dKmfh.s:274    .text.i2c_clock_config:00000000000000c4 .L18
     /tmp/cc0dKmfh.s:324    .text.i2c_clock_config:00000000000000e8 .L13
     /tmp/cc0dKmfh.s:180    .text.i2c_clock_config:000000000000005c .L12
     /tmp/cc0dKmfh.s:266    .text.i2c_clock_config:00000000000000be .L17
     /tmp/cc0dKmfh.s:413    .text.i2c_smbus_type_config:000000000000000e .L26
     /tmp/cc0dKmfh.s:443    .text.i2c_ack_config:0000000000000010 .L30
     /tmp/cc0dKmfh.s:474    .text.i2c_ackpos_config:0000000000000010 .L32
     /tmp/cc0dKmfh.s:506    .text.i2c_master_addressing:000000000000000e .L36
     /tmp/cc0dKmfh.s:1048   .text.i2c_flag_clear:0000000000000024 .L60
     /tmp/cc0dKmfh.s:1178   .text.i2c_interrupt_flag_get:0000000000000044 .L73
     /tmp/cc0dKmfh.s:1193   .text.i2c_interrupt_flag_get:0000000000000052 .L66
     /tmp/cc0dKmfh.s:1197   .text.i2c_interrupt_flag_get:0000000000000054 .L63
     /tmp/cc0dKmfh.s:1237   .text.i2c_interrupt_flag_clear:0000000000000026 .L77
     /tmp/cc0dKmfh.s:2811   .debug_abbrev:0000000000000000 .Ldebug_abbrev0
     /tmp/cc0dKmfh.s:4566   .debug_str:00000000000008c3 .LASF157
     /tmp/cc0dKmfh.s:4436   .debug_str:000000000000053a .LASF158
     /tmp/cc0dKmfh.s:4438   .debug_str:000000000000057b .LASF159
     /tmp/cc0dKmfh.s:4194   .debug_ranges:0000000000000000 .Ldebug_ranges0
     /tmp/cc0dKmfh.s:4262   .debug_line:0000000000000000 .Ldebug_line0
     /tmp/cc0dKmfh.s:4284   .debug_str:00000000000000be .LASF0
GAS LISTING /tmp/cc0dKmfh.s 			page 47


     /tmp/cc0dKmfh.s:4548   .debug_str:000000000000083b .LASF1
     /tmp/cc0dKmfh.s:4500   .debug_str:00000000000006fc .LASF6
     /tmp/cc0dKmfh.s:4524   .debug_str:0000000000000798 .LASF2
     /tmp/cc0dKmfh.s:4468   .debug_str:000000000000065a .LASF3
     /tmp/cc0dKmfh.s:4552   .debug_str:000000000000084f .LASF4
     /tmp/cc0dKmfh.s:4474   .debug_str:000000000000067c .LASF5
     /tmp/cc0dKmfh.s:4526   .debug_str:00000000000007a6 .LASF7
     /tmp/cc0dKmfh.s:4514   .debug_str:0000000000000752 .LASF8
     /tmp/cc0dKmfh.s:4416   .debug_str:0000000000000496 .LASF9
     /tmp/cc0dKmfh.s:4334   .debug_str:000000000000022c .LASF10
     /tmp/cc0dKmfh.s:4404   .debug_str:0000000000000448 .LASF11
     /tmp/cc0dKmfh.s:4310   .debug_str:000000000000017c .LASF12
     /tmp/cc0dKmfh.s:4486   .debug_str:00000000000006b7 .LASF13
     /tmp/cc0dKmfh.s:4298   .debug_str:000000000000011c .LASF14
     /tmp/cc0dKmfh.s:4406   .debug_str:0000000000000450 .LASF15
     /tmp/cc0dKmfh.s:4364   .debug_str:0000000000000328 .LASF16
     /tmp/cc0dKmfh.s:4546   .debug_str:000000000000082d .LASF17
     /tmp/cc0dKmfh.s:4414   .debug_str:0000000000000488 .LASF18
     /tmp/cc0dKmfh.s:4276   .debug_str:000000000000006e .LASF19
     /tmp/cc0dKmfh.s:4458   .debug_str:000000000000061a .LASF20
     /tmp/cc0dKmfh.s:4320   .debug_str:00000000000001bc .LASF21
     /tmp/cc0dKmfh.s:4536   .debug_str:00000000000007f1 .LASF22
     /tmp/cc0dKmfh.s:4286   .debug_str:00000000000000cb .LASF23
     /tmp/cc0dKmfh.s:4466   .debug_str:000000000000064e .LASF24
     /tmp/cc0dKmfh.s:4508   .debug_str:000000000000072e .LASF25
     /tmp/cc0dKmfh.s:4372   .debug_str:0000000000000366 .LASF26
     /tmp/cc0dKmfh.s:4504   .debug_str:0000000000000714 .LASF27
     /tmp/cc0dKmfh.s:4368   .debug_str:0000000000000345 .LASF28
     /tmp/cc0dKmfh.s:4534   .debug_str:00000000000007e5 .LASF29
     /tmp/cc0dKmfh.s:4396   .debug_str:0000000000000415 .LASF30
     /tmp/cc0dKmfh.s:4478   .debug_str:000000000000068e .LASF31
     /tmp/cc0dKmfh.s:4348   .debug_str:00000000000002a9 .LASF32
     /tmp/cc0dKmfh.s:4556   .debug_str:0000000000000870 .LASF33
     /tmp/cc0dKmfh.s:4420   .debug_str:00000000000004b6 .LASF34
     /tmp/cc0dKmfh.s:4280   .debug_str:0000000000000099 .LASF35
     /tmp/cc0dKmfh.s:4470   .debug_str:0000000000000664 .LASF36
     /tmp/cc0dKmfh.s:4410   .debug_str:000000000000046b .LASF37
     /tmp/cc0dKmfh.s:4272   .debug_str:0000000000000057 .LASF38
     /tmp/cc0dKmfh.s:4448   .debug_str:00000000000005d8 .LASF39
     /tmp/cc0dKmfh.s:4308   .debug_str:000000000000016f .LASF40
     /tmp/cc0dKmfh.s:4506   .debug_str:0000000000000721 .LASF41
     /tmp/cc0dKmfh.s:4360   .debug_str:0000000000000308 .LASF42
     /tmp/cc0dKmfh.s:4544   .debug_str:0000000000000821 .LASF43
     /tmp/cc0dKmfh.s:4502   .debug_str:0000000000000706 .LASF44
     /tmp/cc0dKmfh.s:4426   .debug_str:00000000000004e7 .LASF45
     /tmp/cc0dKmfh.s:4312   .debug_str:0000000000000185 .LASF46
     /tmp/cc0dKmfh.s:4440   .debug_str:00000000000005ad .LASF47
     /tmp/cc0dKmfh.s:4356   .debug_str:00000000000002f1 .LASF48
     /tmp/cc0dKmfh.s:4490   .debug_str:00000000000006cd .LASF49
     /tmp/cc0dKmfh.s:4492   .debug_str:00000000000006d5 .LASF50
     /tmp/cc0dKmfh.s:4450   .debug_str:00000000000005e5 .LASF51
     /tmp/cc0dKmfh.s:4316   .debug_str:000000000000019b .LASF52
     /tmp/cc0dKmfh.s:4520   .debug_str:0000000000000782 .LASF53
     /tmp/cc0dKmfh.s:4380   .debug_str:000000000000039c .LASF54
     /tmp/cc0dKmfh.s:4342   .debug_str:000000000000027e .LASF55
     /tmp/cc0dKmfh.s:4326   .debug_str:00000000000001e4 .LASF56
     /tmp/cc0dKmfh.s:4408   .debug_str:000000000000045d .LASF57
GAS LISTING /tmp/cc0dKmfh.s 			page 48


     /tmp/cc0dKmfh.s:4374   .debug_str:0000000000000374 .LASF58
     /tmp/cc0dKmfh.s:4480   .debug_str:000000000000069a .LASF59
     /tmp/cc0dKmfh.s:4462   .debug_str:000000000000062d .LASF60
     /tmp/cc0dKmfh.s:4294   .debug_str:00000000000000f8 .LASF61
     /tmp/cc0dKmfh.s:4366   .debug_str:0000000000000336 .LASF62
     /tmp/cc0dKmfh.s:4382   .debug_str:00000000000003a9 .LASF63
     /tmp/cc0dKmfh.s:4344   .debug_str:0000000000000291 .LASF64
     /tmp/cc0dKmfh.s:4488   .debug_str:00000000000006bd .LASF65
     /tmp/cc0dKmfh.s:4358   .debug_str:00000000000002f8 .LASF66
     /tmp/cc0dKmfh.s:4464   .debug_str:000000000000063e .LASF67
     /tmp/cc0dKmfh.s:4452   .debug_str:00000000000005f1 .LASF68
     /tmp/cc0dKmfh.s:4494   .debug_str:00000000000006dd .LASF69
     /tmp/cc0dKmfh.s:4576   .debug_str:0000000000000998 .LASF70
     /tmp/cc0dKmfh.s:4456   .debug_str:000000000000060a .LASF71
     /tmp/cc0dKmfh.s:4350   .debug_str:00000000000002b5 .LASF72
     /tmp/cc0dKmfh.s:4472   .debug_str:000000000000066e .LASF73
     /tmp/cc0dKmfh.s:4362   .debug_str:0000000000000314 .LASF74
     /tmp/cc0dKmfh.s:4390   .debug_str:00000000000003d9 .LASF75
     /tmp/cc0dKmfh.s:4336   .debug_str:0000000000000243 .LASF76
     /tmp/cc0dKmfh.s:4330   .debug_str:0000000000000206 .LASF77
     /tmp/cc0dKmfh.s:4370   .debug_str:0000000000000352 .LASF78
     /tmp/cc0dKmfh.s:4532   .debug_str:00000000000007d3 .LASF79
     /tmp/cc0dKmfh.s:4318   .debug_str:00000000000001ab .LASF80
     /tmp/cc0dKmfh.s:4328   .debug_str:00000000000001f4 .LASF81
     /tmp/cc0dKmfh.s:4340   .debug_str:0000000000000269 .LASF82
     /tmp/cc0dKmfh.s:4418   .debug_str:00000000000004a4 .LASF83
     /tmp/cc0dKmfh.s:4580   .debug_str:00000000000009b3 .LASF84
     /tmp/cc0dKmfh.s:4428   .debug_str:00000000000004f3 .LASF85
     /tmp/cc0dKmfh.s:4558   .debug_str:000000000000087c .LASF86
     /tmp/cc0dKmfh.s:4568   .debug_str:000000000000095c .LASF87
     /tmp/cc0dKmfh.s:4402   .debug_str:0000000000000430 .LASF88
     /tmp/cc0dKmfh.s:4290   .debug_str:00000000000000e3 .LASF89
     /tmp/cc0dKmfh.s:4574   .debug_str:000000000000098d .LASF90
     /tmp/cc0dKmfh.s:4288   .debug_str:00000000000000d7 .LASF91
     /tmp/cc0dKmfh.s:4540   .debug_str:0000000000000803 .LASF92
     /tmp/cc0dKmfh.s:4564   .debug_str:00000000000008aa .LASF98
     /tmp/cc0dKmfh.s:1208   .text.i2c_interrupt_flag_clear:0000000000000000 .LFB33
     /tmp/cc0dKmfh.s:1246   .text.i2c_interrupt_flag_clear:000000000000002c .LFE33
     /tmp/cc0dKmfh.s:4542   .debug_str:0000000000000816 .LASF93
     /tmp/cc0dKmfh.s:3323   .debug_loc:0000000000000000 .LLST37
     /tmp/cc0dKmfh.s:4322   .debug_str:00000000000001ca .LASF94
     /tmp/cc0dKmfh.s:3341   .debug_loc:000000000000002c .LLST38
     /tmp/cc0dKmfh.s:4484   .debug_str:00000000000006b2 .LASF104
     /tmp/cc0dKmfh.s:4432   .debug_str:0000000000000519 .LASF105
     /tmp/cc0dKmfh.s:1121   .text.i2c_interrupt_flag_get:0000000000000000 .LFB32
     /tmp/cc0dKmfh.s:1201   .text.i2c_interrupt_flag_get:0000000000000056 .LFE32
     /tmp/cc0dKmfh.s:3359   .debug_loc:0000000000000058 .LLST33
     /tmp/cc0dKmfh.s:3373   .debug_loc:0000000000000079 .LLST34
     /tmp/cc0dKmfh.s:4434   .debug_str:0000000000000530 .LASF95
     /tmp/cc0dKmfh.s:3387   .debug_loc:000000000000009a .LLST35
     /tmp/cc0dKmfh.s:4570   .debug_str:0000000000000970 .LASF96
     /tmp/cc0dKmfh.s:3442   .debug_loc:0000000000000107 .LLST36
     /tmp/cc0dKmfh.s:4498   .debug_str:00000000000006f6 .LASF97
     /tmp/cc0dKmfh.s:4378   .debug_str:0000000000000386 .LASF99
     /tmp/cc0dKmfh.s:1092   .text.i2c_interrupt_disable:0000000000000000 .LFB31
     /tmp/cc0dKmfh.s:1114   .text.i2c_interrupt_disable:000000000000001c .LFE31
     /tmp/cc0dKmfh.s:3454   .debug_loc:0000000000000126 .LLST32
GAS LISTING /tmp/cc0dKmfh.s 			page 49


     /tmp/cc0dKmfh.s:4512   .debug_str:0000000000000748 .LASF100
     /tmp/cc0dKmfh.s:4560   .debug_str:000000000000088f .LASF101
     /tmp/cc0dKmfh.s:1064   .text.i2c_interrupt_enable:0000000000000000 .LFB30
     /tmp/cc0dKmfh.s:1085   .text.i2c_interrupt_enable:0000000000000018 .LFE30
     /tmp/cc0dKmfh.s:3468   .debug_loc:0000000000000147 .LLST30
     /tmp/cc0dKmfh.s:3482   .debug_loc:0000000000000168 .LLST31
     /tmp/cc0dKmfh.s:4332   .debug_str:000000000000021d .LASF102
     /tmp/cc0dKmfh.s:1020   .text.i2c_flag_clear:0000000000000000 .LFB29
     /tmp/cc0dKmfh.s:1057   .text.i2c_flag_clear:000000000000002a .LFE29
     /tmp/cc0dKmfh.s:3496   .debug_loc:0000000000000189 .LLST28
     /tmp/cc0dKmfh.s:4386   .debug_str:00000000000003cb .LASF103
     /tmp/cc0dKmfh.s:3514   .debug_loc:00000000000001b5 .LLST29
     /tmp/cc0dKmfh.s:4454   .debug_str:00000000000005fd .LASF106
     /tmp/cc0dKmfh.s:996    .text.i2c_flag_get:0000000000000000 .LFB28
     /tmp/cc0dKmfh.s:1013   .text.i2c_flag_get:0000000000000014 .LFE28
     /tmp/cc0dKmfh.s:3532   .debug_loc:00000000000001e1 .LLST27
     /tmp/cc0dKmfh.s:4338   .debug_str:0000000000000254 .LASF107
     /tmp/cc0dKmfh.s:966    .text.i2c_smbus_arp_enable:0000000000000000 .LFB27
     /tmp/cc0dKmfh.s:989    .text.i2c_smbus_arp_enable:000000000000000a .LFE27
     /tmp/cc0dKmfh.s:4292   .debug_str:00000000000000ef .LASF108
     /tmp/cc0dKmfh.s:3546   .debug_loc:0000000000000202 .LLST26
     /tmp/cc0dKmfh.s:4394   .debug_str:00000000000003ff .LASF109
     /tmp/cc0dKmfh.s:934    .text.i2c_smbus_issue_alert:0000000000000000 .LFB26
     /tmp/cc0dKmfh.s:959    .text.i2c_smbus_issue_alert:000000000000000e .LFE26
     /tmp/cc0dKmfh.s:4482   .debug_str:00000000000006a8 .LASF110
     /tmp/cc0dKmfh.s:3558   .debug_loc:0000000000000221 .LLST25
     /tmp/cc0dKmfh.s:4572   .debug_str:000000000000097b .LASF111
     /tmp/cc0dKmfh.s:913    .text.i2c_pec_value_get:0000000000000000 .LFB25
     /tmp/cc0dKmfh.s:927    .text.i2c_pec_value_get:000000000000000a .LFE25
     /tmp/cc0dKmfh.s:3570   .debug_loc:0000000000000240 .LLST24
     /tmp/cc0dKmfh.s:4264   .debug_str:0000000000000000 .LASF112
     /tmp/cc0dKmfh.s:881    .text.i2c_pec_transfer_enable:0000000000000000 .LFB24
     /tmp/cc0dKmfh.s:906    .text.i2c_pec_transfer_enable:000000000000000e .LFE24
     /tmp/cc0dKmfh.s:4314   .debug_str:0000000000000193 .LASF113
     /tmp/cc0dKmfh.s:3584   .debug_loc:0000000000000261 .LLST23
     /tmp/cc0dKmfh.s:4518   .debug_str:0000000000000773 .LASF114
     /tmp/cc0dKmfh.s:851    .text.i2c_pec_enable:0000000000000000 .LFB23
     /tmp/cc0dKmfh.s:874    .text.i2c_pec_enable:000000000000000c .LFE23
     /tmp/cc0dKmfh.s:4388   .debug_str:00000000000003d0 .LASF115
     /tmp/cc0dKmfh.s:3596   .debug_loc:0000000000000280 .LLST22
     /tmp/cc0dKmfh.s:4282   .debug_str:00000000000000a4 .LASF116
     /tmp/cc0dKmfh.s:819    .text.i2c_software_reset_config:0000000000000000 .LFB22
     /tmp/cc0dKmfh.s:844    .text.i2c_software_reset_config:000000000000000e .LFE22
     /tmp/cc0dKmfh.s:4266   .debug_str:0000000000000018 .LASF117
     /tmp/cc0dKmfh.s:3608   .debug_loc:000000000000029f .LLST21
     /tmp/cc0dKmfh.s:4270   .debug_str:0000000000000034 .LASF118
     /tmp/cc0dKmfh.s:789    .text.i2c_slave_response_to_gcall_config:0000000000000000 .LFB21
     /tmp/cc0dKmfh.s:812    .text.i2c_slave_response_to_gcall_config:000000000000000c .LFE21
     /tmp/cc0dKmfh.s:4274   .debug_str:0000000000000064 .LASF119
     /tmp/cc0dKmfh.s:3620   .debug_loc:00000000000002be .LLST20
     /tmp/cc0dKmfh.s:4306   .debug_str:0000000000000154 .LASF120
     /tmp/cc0dKmfh.s:759    .text.i2c_stretch_scl_low_config:0000000000000000 .LFB20
     /tmp/cc0dKmfh.s:782    .text.i2c_stretch_scl_low_config:000000000000000c .LFE20
     /tmp/cc0dKmfh.s:4528   .debug_str:00000000000007b1 .LASF121
     /tmp/cc0dKmfh.s:3632   .debug_loc:00000000000002dd .LLST19
     /tmp/cc0dKmfh.s:4278   .debug_str:000000000000007c .LASF122
     /tmp/cc0dKmfh.s:727    .text.i2c_dma_last_transfer_config:0000000000000000 .LFB19
GAS LISTING /tmp/cc0dKmfh.s 			page 50


     /tmp/cc0dKmfh.s:752    .text.i2c_dma_last_transfer_config:000000000000000e .LFE19
     /tmp/cc0dKmfh.s:4550   .debug_str:0000000000000847 .LASF123
     /tmp/cc0dKmfh.s:3644   .debug_loc:00000000000002fc .LLST18
     /tmp/cc0dKmfh.s:4300   .debug_str:0000000000000127 .LASF124
     /tmp/cc0dKmfh.s:695    .text.i2c_dma_enable:0000000000000000 .LFB18
     /tmp/cc0dKmfh.s:720    .text.i2c_dma_enable:0000000000000010 .LFE18
     /tmp/cc0dKmfh.s:4346   .debug_str:00000000000002a0 .LASF125
     /tmp/cc0dKmfh.s:3656   .debug_loc:000000000000031b .LLST17
     /tmp/cc0dKmfh.s:4324   .debug_str:00000000000001d3 .LASF126
     /tmp/cc0dKmfh.s:676    .text.i2c_data_receive:0000000000000000 .LFB17
     /tmp/cc0dKmfh.s:688    .text.i2c_data_receive:0000000000000008 .LFE17
     /tmp/cc0dKmfh.s:3668   .debug_loc:000000000000033a .LLST16
     /tmp/cc0dKmfh.s:4384   .debug_str:00000000000003b9 .LASF127
     /tmp/cc0dKmfh.s:659    .text.i2c_data_transmit:0000000000000000 .LFB16
     /tmp/cc0dKmfh.s:669    .text.i2c_data_transmit:0000000000000004 .LFE16
     /tmp/cc0dKmfh.s:4398   .debug_str:0000000000000421 .LASF128
     /tmp/cc0dKmfh.s:4412   .debug_str:0000000000000478 .LASF129
     /tmp/cc0dKmfh.s:640    .text.i2c_stop_on_bus:0000000000000000 .LFB15
     /tmp/cc0dKmfh.s:652    .text.i2c_stop_on_bus:000000000000000a .LFE15
     /tmp/cc0dKmfh.s:4422   .debug_str:00000000000004c1 .LASF130
     /tmp/cc0dKmfh.s:621    .text.i2c_start_on_bus:0000000000000000 .LFB14
     /tmp/cc0dKmfh.s:633    .text.i2c_start_on_bus:000000000000000a .LFE14
     /tmp/cc0dKmfh.s:4510   .debug_str:000000000000073c .LASF131
     /tmp/cc0dKmfh.s:602    .text.i2c_disable:0000000000000000 .LFB13
     /tmp/cc0dKmfh.s:614    .text.i2c_disable:0000000000000008 .LFE13
     /tmp/cc0dKmfh.s:4496   .debug_str:00000000000006eb .LASF132
     /tmp/cc0dKmfh.s:583    .text.i2c_enable:0000000000000000 .LFB12
     /tmp/cc0dKmfh.s:595    .text.i2c_enable:000000000000000a .LFE12
     /tmp/cc0dKmfh.s:4268   .debug_str:000000000000001f .LASF133
     /tmp/cc0dKmfh.s:564    .text.i2c_dualaddr_disable:0000000000000000 .LFB11
     /tmp/cc0dKmfh.s:576    .text.i2c_dualaddr_disable:0000000000000008 .LFE11
     /tmp/cc0dKmfh.s:4354   .debug_str:00000000000002dd .LASF134
     /tmp/cc0dKmfh.s:540    .text.i2c_dualaddr_enable:0000000000000000 .LFB10
     /tmp/cc0dKmfh.s:557    .text.i2c_dualaddr_enable:000000000000000c .LFE10
     /tmp/cc0dKmfh.s:4538   .debug_str:00000000000007fe .LASF135
     /tmp/cc0dKmfh.s:3682   .debug_loc:000000000000035b .LLST15
     /tmp/cc0dKmfh.s:4582   .debug_str:00000000000009c6 .LASF136
     /tmp/cc0dKmfh.s:520    .text.i2c_saddr1_config:0000000000000000 .LFB9
     /tmp/cc0dKmfh.s:533    .text.i2c_saddr1_config:0000000000000008 .LFE9
     /tmp/cc0dKmfh.s:3712   .debug_loc:000000000000039a .LLST14
     /tmp/cc0dKmfh.s:4530   .debug_str:00000000000007bd .LASF137
     /tmp/cc0dKmfh.s:491    .text.i2c_master_addressing:0000000000000000 .LFB8
     /tmp/cc0dKmfh.s:513    .text.i2c_master_addressing:0000000000000012 .LFE8
     /tmp/cc0dKmfh.s:3726   .debug_loc:00000000000003bb .LLST13
     /tmp/cc0dKmfh.s:4554   .debug_str:0000000000000862 .LASF138
     /tmp/cc0dKmfh.s:4430   .debug_str:0000000000000507 .LASF139
     /tmp/cc0dKmfh.s:458    .text.i2c_ackpos_config:0000000000000000 .LFB7
     /tmp/cc0dKmfh.s:484    .text.i2c_ackpos_config:000000000000001c .LFE7
     /tmp/cc0dKmfh.s:4516   .debug_str:0000000000000764 .LASF140
     /tmp/cc0dKmfh.s:428    .text.i2c_ack_config:0000000000000000 .LFB6
     /tmp/cc0dKmfh.s:451    .text.i2c_ack_config:000000000000001a .LFE6
     /tmp/cc0dKmfh.s:4296   .debug_str:0000000000000106 .LASF141
     /tmp/cc0dKmfh.s:398    .text.i2c_smbus_type_config:0000000000000000 .LFB5
     /tmp/cc0dKmfh.s:421    .text.i2c_smbus_type_config:0000000000000018 .LFE5
     /tmp/cc0dKmfh.s:4522   .debug_str:0000000000000793 .LASF142
     /tmp/cc0dKmfh.s:4424   .debug_str:00000000000004d2 .LASF143
     /tmp/cc0dKmfh.s:358    .text.i2c_mode_addr_config:0000000000000000 .LFB4
GAS LISTING /tmp/cc0dKmfh.s 			page 51


     /tmp/cc0dKmfh.s:391    .text.i2c_mode_addr_config:0000000000000012 .LFE4
     /tmp/cc0dKmfh.s:4302   .debug_str:0000000000000136 .LASF144
     /tmp/cc0dKmfh.s:4400   .debug_str:0000000000000426 .LASF145
     /tmp/cc0dKmfh.s:3737   .debug_loc:00000000000003d9 .LLST11
     /tmp/cc0dKmfh.s:3751   .debug_loc:00000000000003fa .LLST12
     /tmp/cc0dKmfh.s:4392   .debug_str:00000000000003ee .LASF146
     /tmp/cc0dKmfh.s:94     .text.i2c_clock_config:0000000000000000 .LFB3
     /tmp/cc0dKmfh.s:351    .text.i2c_clock_config:0000000000000102 .LFE3
     /tmp/cc0dKmfh.s:3763   .debug_loc:0000000000000419 .LLST2
     /tmp/cc0dKmfh.s:3796   .debug_loc:0000000000000469 .LLST3
     /tmp/cc0dKmfh.s:4476   .debug_str:0000000000000685 .LASF147
     /tmp/cc0dKmfh.s:3829   .debug_loc:00000000000004b9 .LLST4
     /tmp/cc0dKmfh.s:4446   .debug_str:00000000000005d0 .LASF148
     /tmp/cc0dKmfh.s:3869   .debug_loc:0000000000000517 .LLST5
     /tmp/cc0dKmfh.s:4562   .debug_str:00000000000008a4 .LASF149
     /tmp/cc0dKmfh.s:3902   .debug_loc:0000000000000567 .LLST6
     /tmp/cc0dKmfh.s:4460   .debug_str:0000000000000628 .LASF150
     /tmp/cc0dKmfh.s:3917   .debug_loc:0000000000000590 .LLST7
     /tmp/cc0dKmfh.s:4376   .debug_str:0000000000000381 .LASF151
     /tmp/cc0dKmfh.s:3983   .debug_loc:00000000000005f5 .LLST8
     /tmp/cc0dKmfh.s:4444   .debug_str:00000000000005c7 .LASF152
     /tmp/cc0dKmfh.s:3998   .debug_loc:000000000000061e .LLST9
     /tmp/cc0dKmfh.s:4026   .debug_loc:0000000000000657 .LLST10
     /tmp/cc0dKmfh.s:123    .text.i2c_clock_config:000000000000001a .LVL9
     /tmp/cc0dKmfh.s:4578   .debug_str:00000000000009a8 .LASF153
     /tmp/cc0dKmfh.s:14     .text.i2c_deinit:0000000000000000 .LFB2
     /tmp/cc0dKmfh.s:87     .text.i2c_deinit:000000000000005a .LFE2
     /tmp/cc0dKmfh.s:4056   .debug_loc:00000000000006a4 .LLST0
     /tmp/cc0dKmfh.s:4094   .debug_loc:0000000000000700 .LLST1
     /tmp/cc0dKmfh.s:50     .text.i2c_deinit:000000000000002e .LVL2
     /tmp/cc0dKmfh.s:64     .text.i2c_deinit:000000000000003e .LVL3
     /tmp/cc0dKmfh.s:72     .text.i2c_deinit:000000000000004a .LVL5
     /tmp/cc0dKmfh.s:85     .text.i2c_deinit:000000000000005a .LVL6
     /tmp/cc0dKmfh.s:4442   .debug_str:00000000000005b4 .LASF154
     /tmp/cc0dKmfh.s:4352   .debug_str:00000000000002c5 .LASF155
     /tmp/cc0dKmfh.s:4304   .debug_str:000000000000013b .LASF156
     /tmp/cc0dKmfh.s:1211   .text.i2c_interrupt_flag_clear:0000000000000000 .LVL127
     /tmp/cc0dKmfh.s:1222   .text.i2c_interrupt_flag_clear:0000000000000012 .LVL128
     /tmp/cc0dKmfh.s:1236   .text.i2c_interrupt_flag_clear:0000000000000026 .LVL130
     /tmp/cc0dKmfh.s:1226   .text.i2c_interrupt_flag_clear:0000000000000016 .LVL129
     /tmp/cc0dKmfh.s:1124   .text.i2c_interrupt_flag_get:0000000000000000 .LVL115
     /tmp/cc0dKmfh.s:1150   .text.i2c_interrupt_flag_get:0000000000000022 .LVL117
     /tmp/cc0dKmfh.s:1157   .text.i2c_interrupt_flag_get:000000000000002c .LVL118
     /tmp/cc0dKmfh.s:1162   .text.i2c_interrupt_flag_get:0000000000000036 .LVL119
     /tmp/cc0dKmfh.s:1175   .text.i2c_interrupt_flag_get:0000000000000042 .LVL121
     /tmp/cc0dKmfh.s:1177   .text.i2c_interrupt_flag_get:0000000000000044 .LVL122
     /tmp/cc0dKmfh.s:1184   .text.i2c_interrupt_flag_get:000000000000004a .LVL123
     /tmp/cc0dKmfh.s:1187   .text.i2c_interrupt_flag_get:000000000000004c .LVL124
     /tmp/cc0dKmfh.s:1192   .text.i2c_interrupt_flag_get:0000000000000052 .LVL125
     /tmp/cc0dKmfh.s:1196   .text.i2c_interrupt_flag_get:0000000000000054 .LVL126
     /tmp/cc0dKmfh.s:1166   .text.i2c_interrupt_flag_get:0000000000000038 .LVL120
     /tmp/cc0dKmfh.s:1095   .text.i2c_interrupt_disable:0000000000000000 .LVL113
     /tmp/cc0dKmfh.s:1101   .text.i2c_interrupt_disable:000000000000000a .LVL114
     /tmp/cc0dKmfh.s:1067   .text.i2c_interrupt_enable:0000000000000000 .LVL110
     /tmp/cc0dKmfh.s:1073   .text.i2c_interrupt_enable:000000000000000a .LVL111
     /tmp/cc0dKmfh.s:1078   .text.i2c_interrupt_enable:0000000000000012 .LVL112
     /tmp/cc0dKmfh.s:1023   .text.i2c_flag_clear:0000000000000000 .LVL106
GAS LISTING /tmp/cc0dKmfh.s 			page 52


     /tmp/cc0dKmfh.s:1034   .text.i2c_flag_clear:0000000000000012 .LVL107
     /tmp/cc0dKmfh.s:1047   .text.i2c_flag_clear:0000000000000024 .LVL109
     /tmp/cc0dKmfh.s:1039   .text.i2c_flag_clear:000000000000001a .LVL108
     /tmp/cc0dKmfh.s:999    .text.i2c_flag_get:0000000000000000 .LVL104
     /tmp/cc0dKmfh.s:1006   .text.i2c_flag_get:000000000000000c .LVL105
     /tmp/cc0dKmfh.s:969    .text.i2c_smbus_arp_enable:0000000000000000 .LVL100
     /tmp/cc0dKmfh.s:974    .text.i2c_smbus_arp_enable:0000000000000002 .LVL101
     /tmp/cc0dKmfh.s:937    .text.i2c_smbus_issue_alert:0000000000000000 .LVL96
     /tmp/cc0dKmfh.s:942    .text.i2c_smbus_issue_alert:0000000000000002 .LVL97
     /tmp/cc0dKmfh.s:916    .text.i2c_pec_value_get:0000000000000000 .LVL94
     /tmp/cc0dKmfh.s:920    .text.i2c_pec_value_get:0000000000000002 .LVL95
     /tmp/cc0dKmfh.s:884    .text.i2c_pec_transfer_enable:0000000000000000 .LVL90
     /tmp/cc0dKmfh.s:889    .text.i2c_pec_transfer_enable:0000000000000002 .LVL91
     /tmp/cc0dKmfh.s:854    .text.i2c_pec_enable:0000000000000000 .LVL86
     /tmp/cc0dKmfh.s:859    .text.i2c_pec_enable:0000000000000002 .LVL87
     /tmp/cc0dKmfh.s:822    .text.i2c_software_reset_config:0000000000000000 .LVL82
     /tmp/cc0dKmfh.s:827    .text.i2c_software_reset_config:0000000000000002 .LVL83
     /tmp/cc0dKmfh.s:792    .text.i2c_slave_response_to_gcall_config:0000000000000000 .LVL78
     /tmp/cc0dKmfh.s:797    .text.i2c_slave_response_to_gcall_config:0000000000000002 .LVL79
     /tmp/cc0dKmfh.s:762    .text.i2c_stretch_scl_low_config:0000000000000000 .LVL74
     /tmp/cc0dKmfh.s:767    .text.i2c_stretch_scl_low_config:0000000000000002 .LVL75
     /tmp/cc0dKmfh.s:730    .text.i2c_dma_last_transfer_config:0000000000000000 .LVL70
     /tmp/cc0dKmfh.s:735    .text.i2c_dma_last_transfer_config:0000000000000002 .LVL71
     /tmp/cc0dKmfh.s:698    .text.i2c_dma_enable:0000000000000000 .LVL66
     /tmp/cc0dKmfh.s:703    .text.i2c_dma_enable:0000000000000002 .LVL67
     /tmp/cc0dKmfh.s:679    .text.i2c_data_receive:0000000000000000 .LVL64
     /tmp/cc0dKmfh.s:683    .text.i2c_data_receive:0000000000000002 .LVL65
     /tmp/cc0dKmfh.s:543    .text.i2c_dualaddr_enable:0000000000000000 .LVL55
     /tmp/cc0dKmfh.s:548    .text.i2c_dualaddr_enable:0000000000000004 .LVL56
     /tmp/cc0dKmfh.s:551    .text.i2c_dualaddr_enable:0000000000000008 .LVL57
     /tmp/cc0dKmfh.s:523    .text.i2c_saddr1_config:0000000000000000 .LVL53
     /tmp/cc0dKmfh.s:527    .text.i2c_saddr1_config:0000000000000004 .LVL54
     /tmp/cc0dKmfh.s:494    .text.i2c_master_addressing:0000000000000000 .LVL51
     /tmp/cc0dKmfh.s:505    .text.i2c_master_addressing:000000000000000e .LVL52
     /tmp/cc0dKmfh.s:361    .text.i2c_mode_addr_config:0000000000000000 .LVL42
     /tmp/cc0dKmfh.s:370    .text.i2c_mode_addr_config:0000000000000006 .LVL44
     /tmp/cc0dKmfh.s:384    .text.i2c_mode_addr_config:000000000000000e .LVL47
     /tmp/cc0dKmfh.s:366    .text.i2c_mode_addr_config:0000000000000002 .LVL43
     /tmp/cc0dKmfh.s:103    .text.i2c_clock_config:0000000000000002 .LCFI6
     /tmp/cc0dKmfh.s:218    .text.i2c_clock_config:000000000000007e .LCFI7
     /tmp/cc0dKmfh.s:223    .text.i2c_clock_config:0000000000000080 .LCFI8
     /tmp/cc0dKmfh.s:307    .text.i2c_clock_config:00000000000000dc .LCFI9
     /tmp/cc0dKmfh.s:312    .text.i2c_clock_config:00000000000000de .LCFI10
     /tmp/cc0dKmfh.s:97     .text.i2c_clock_config:0000000000000000 .LVL7
     /tmp/cc0dKmfh.s:110    .text.i2c_clock_config:0000000000000008 .LVL8
     /tmp/cc0dKmfh.s:213    .text.i2c_clock_config:000000000000007a .LVL23
     /tmp/cc0dKmfh.s:221    .text.i2c_clock_config:0000000000000080 .LVL25
     /tmp/cc0dKmfh.s:305    .text.i2c_clock_config:00000000000000da .LVL33
     /tmp/cc0dKmfh.s:310    .text.i2c_clock_config:00000000000000de .LVL34
     /tmp/cc0dKmfh.s:184    .text.i2c_clock_config:000000000000005e .LVL19
     /tmp/cc0dKmfh.s:251    .text.i2c_clock_config:00000000000000aa .LVL27
     /tmp/cc0dKmfh.s:337    .text.i2c_clock_config:00000000000000f2 .LVL39
     /tmp/cc0dKmfh.s:216    .text.i2c_clock_config:000000000000007c .LVL24
     /tmp/cc0dKmfh.s:292    .text.i2c_clock_config:00000000000000d2 .LVL31
     /tmp/cc0dKmfh.s:193    .text.i2c_clock_config:0000000000000066 .LVL21
     /tmp/cc0dKmfh.s:254    .text.i2c_clock_config:00000000000000ae .LVL28
     /tmp/cc0dKmfh.s:340    .text.i2c_clock_config:00000000000000f6 .LVL40
GAS LISTING /tmp/cc0dKmfh.s 			page 53


     /tmp/cc0dKmfh.s:190    .text.i2c_clock_config:0000000000000064 .LVL20
     /tmp/cc0dKmfh.s:197    .text.i2c_clock_config:000000000000006c .LVL22
     /tmp/cc0dKmfh.s:295    .text.i2c_clock_config:00000000000000d4 .LVL32
     /tmp/cc0dKmfh.s:135    .text.i2c_clock_config:000000000000002e .LVL10
     /tmp/cc0dKmfh.s:143    .text.i2c_clock_config:0000000000000038 .LVL11
     /tmp/cc0dKmfh.s:234    .text.i2c_clock_config:0000000000000094 .LVL26
     /tmp/cc0dKmfh.s:330    .text.i2c_clock_config:00000000000000ec .LVL38
     /tmp/cc0dKmfh.s:168    .text.i2c_clock_config:000000000000004e .LVL15
     /tmp/cc0dKmfh.s:177    .text.i2c_clock_config:000000000000005a .LVL17
     /tmp/cc0dKmfh.s:147    .text.i2c_clock_config:000000000000003a .LVL12
     /tmp/cc0dKmfh.s:172    .text.i2c_clock_config:0000000000000052 .LVL16
     /tmp/cc0dKmfh.s:179    .text.i2c_clock_config:000000000000005c .LVL18
     /tmp/cc0dKmfh.s:259    .text.i2c_clock_config:00000000000000b2 .LVL29
     /tmp/cc0dKmfh.s:321    .text.i2c_clock_config:00000000000000e6 .LVL35
     /tmp/cc0dKmfh.s:323    .text.i2c_clock_config:00000000000000e8 .LVL36
     /tmp/cc0dKmfh.s:328    .text.i2c_clock_config:00000000000000ea .LVL37
     /tmp/cc0dKmfh.s:345    .text.i2c_clock_config:00000000000000fa .LVL41
     /tmp/cc0dKmfh.s:22     .text.i2c_deinit:0000000000000002 .LCFI0
     /tmp/cc0dKmfh.s:40     .text.i2c_deinit:0000000000000020 .LCFI1
     /tmp/cc0dKmfh.s:44     .text.i2c_deinit:0000000000000022 .LCFI2
     /tmp/cc0dKmfh.s:60     .text.i2c_deinit:0000000000000036 .LCFI3
     /tmp/cc0dKmfh.s:66     .text.i2c_deinit:000000000000003e .LCFI4
     /tmp/cc0dKmfh.s:81     .text.i2c_deinit:0000000000000052 .LCFI5
     /tmp/cc0dKmfh.s:18     .text.i2c_deinit:0000000000000000 .LVL0
     /tmp/cc0dKmfh.s:48     .text.i2c_deinit:0000000000000026 .LVL1
     /tmp/cc0dKmfh.s:70     .text.i2c_deinit:0000000000000042 .LVL4
     /tmp/cc0dKmfh.s:1256   .debug_info:0000000000000000 .Ldebug_info0

UNDEFINED SYMBOLS
rcu_periph_reset_enable
rcu_periph_reset_disable
rcu_clock_freq_get
