GAS LISTING /tmp/ccOz1Rcm.s 			page 1


   1              		.file	"gd32vf103_adc.c"
   2              		.option nopic
   3              		.attribute arch, "rv32i2p0_m2p0_a2p0_c2p0"
   4              		.attribute unaligned_access, 0
   5              		.attribute stack_align, 16
   6              		.text
   7              	.Ltext0:
   8              		.cfi_sections	.debug_frame
   9              		.section	.text.adc_deinit,"ax",@progbits
  10              		.align	1
  11              		.globl	adc_deinit
  13              	adc_deinit:
  14              	.LFB2:
  15              		.file 1 "../Firmware/GD32VF103_standard_peripheral/Source/gd32vf103_adc.c"
   1:../Firmware/GD32VF103_standard_peripheral/Source/gd32vf103_adc.c **** /*!
   2:../Firmware/GD32VF103_standard_peripheral/Source/gd32vf103_adc.c ****     \file  gd32vf103_adc.c
   3:../Firmware/GD32VF103_standard_peripheral/Source/gd32vf103_adc.c ****     \brief ADC driver
   4:../Firmware/GD32VF103_standard_peripheral/Source/gd32vf103_adc.c **** 
   5:../Firmware/GD32VF103_standard_peripheral/Source/gd32vf103_adc.c ****     \version 2019-6-5, V1.0.0, firmware for GD32VF103
   6:../Firmware/GD32VF103_standard_peripheral/Source/gd32vf103_adc.c **** */
   7:../Firmware/GD32VF103_standard_peripheral/Source/gd32vf103_adc.c **** 
   8:../Firmware/GD32VF103_standard_peripheral/Source/gd32vf103_adc.c **** /*
   9:../Firmware/GD32VF103_standard_peripheral/Source/gd32vf103_adc.c ****     Copyright (c) 2019, GigaDevice Semiconductor Inc.
  10:../Firmware/GD32VF103_standard_peripheral/Source/gd32vf103_adc.c **** 
  11:../Firmware/GD32VF103_standard_peripheral/Source/gd32vf103_adc.c ****     Redistribution and use in source and binary forms, with or without modification, 
  12:../Firmware/GD32VF103_standard_peripheral/Source/gd32vf103_adc.c **** are permitted provided that the following conditions are met:
  13:../Firmware/GD32VF103_standard_peripheral/Source/gd32vf103_adc.c **** 
  14:../Firmware/GD32VF103_standard_peripheral/Source/gd32vf103_adc.c ****     1. Redistributions of source code must retain the above copyright notice, this 
  15:../Firmware/GD32VF103_standard_peripheral/Source/gd32vf103_adc.c ****        list of conditions and the following disclaimer.
  16:../Firmware/GD32VF103_standard_peripheral/Source/gd32vf103_adc.c ****     2. Redistributions in binary form must reproduce the above copyright notice, 
  17:../Firmware/GD32VF103_standard_peripheral/Source/gd32vf103_adc.c ****        this list of conditions and the following disclaimer in the documentation 
  18:../Firmware/GD32VF103_standard_peripheral/Source/gd32vf103_adc.c ****        and/or other materials provided with the distribution.
  19:../Firmware/GD32VF103_standard_peripheral/Source/gd32vf103_adc.c ****     3. Neither the name of the copyright holder nor the names of its contributors 
  20:../Firmware/GD32VF103_standard_peripheral/Source/gd32vf103_adc.c ****        may be used to endorse or promote products derived from this software without 
  21:../Firmware/GD32VF103_standard_peripheral/Source/gd32vf103_adc.c ****        specific prior written permission.
  22:../Firmware/GD32VF103_standard_peripheral/Source/gd32vf103_adc.c **** 
  23:../Firmware/GD32VF103_standard_peripheral/Source/gd32vf103_adc.c ****     THIS SOFTWARE IS PROVIDED BY THE COPYRIGHT HOLDERS AND CONTRIBUTORS "AS IS" 
  24:../Firmware/GD32VF103_standard_peripheral/Source/gd32vf103_adc.c **** AND ANY EXPRESS OR IMPLIED WARRANTIES, INCLUDING, BUT NOT LIMITED TO, THE IMPLIED 
  25:../Firmware/GD32VF103_standard_peripheral/Source/gd32vf103_adc.c **** WARRANTIES OF MERCHANTABILITY AND FITNESS FOR A PARTICULAR PURPOSE ARE DISCLAIMED. 
  26:../Firmware/GD32VF103_standard_peripheral/Source/gd32vf103_adc.c **** IN NO EVENT SHALL THE COPYRIGHT HOLDER OR CONTRIBUTORS BE LIABLE FOR ANY DIRECT, 
  27:../Firmware/GD32VF103_standard_peripheral/Source/gd32vf103_adc.c **** INDIRECT, INCIDENTAL, SPECIAL, EXEMPLARY, OR CONSEQUENTIAL DAMAGES (INCLUDING, BUT 
  28:../Firmware/GD32VF103_standard_peripheral/Source/gd32vf103_adc.c **** NOT LIMITED TO, PROCUREMENT OF SUBSTITUTE GOODS OR SERVICES; LOSS OF USE, DATA, OR 
  29:../Firmware/GD32VF103_standard_peripheral/Source/gd32vf103_adc.c **** PROFITS; OR BUSINESS INTERRUPTION) HOWEVER CAUSED AND ON ANY THEORY OF LIABILITY, 
  30:../Firmware/GD32VF103_standard_peripheral/Source/gd32vf103_adc.c **** WHETHER IN CONTRACT, STRICT LIABILITY, OR TORT (INCLUDING NEGLIGENCE OR OTHERWISE) 
  31:../Firmware/GD32VF103_standard_peripheral/Source/gd32vf103_adc.c **** ARISING IN ANY WAY OUT OF THE USE OF THIS SOFTWARE, EVEN IF ADVISED OF THE POSSIBILITY 
  32:../Firmware/GD32VF103_standard_peripheral/Source/gd32vf103_adc.c **** OF SUCH DAMAGE.
  33:../Firmware/GD32VF103_standard_peripheral/Source/gd32vf103_adc.c **** */
  34:../Firmware/GD32VF103_standard_peripheral/Source/gd32vf103_adc.c **** 
  35:../Firmware/GD32VF103_standard_peripheral/Source/gd32vf103_adc.c **** #include "gd32vf103_adc.h"
  36:../Firmware/GD32VF103_standard_peripheral/Source/gd32vf103_adc.c **** 
  37:../Firmware/GD32VF103_standard_peripheral/Source/gd32vf103_adc.c **** /* discontinuous mode macro*/
  38:../Firmware/GD32VF103_standard_peripheral/Source/gd32vf103_adc.c **** #define  ADC_CHANNEL_LENGTH_SUBTRACT_ONE            ((uint8_t)1U)
  39:../Firmware/GD32VF103_standard_peripheral/Source/gd32vf103_adc.c **** 
  40:../Firmware/GD32VF103_standard_peripheral/Source/gd32vf103_adc.c **** /* ADC regular channel macro */
  41:../Firmware/GD32VF103_standard_peripheral/Source/gd32vf103_adc.c **** #define  ADC_REGULAR_CHANNEL_RANK_SIX               ((uint8_t)6U)
  42:../Firmware/GD32VF103_standard_peripheral/Source/gd32vf103_adc.c **** #define  ADC_REGULAR_CHANNEL_RANK_TWELVE            ((uint8_t)12U)
  43:../Firmware/GD32VF103_standard_peripheral/Source/gd32vf103_adc.c **** #define  ADC_REGULAR_CHANNEL_RANK_SIXTEEN           ((uint8_t)16U)
GAS LISTING /tmp/ccOz1Rcm.s 			page 2


  44:../Firmware/GD32VF103_standard_peripheral/Source/gd32vf103_adc.c **** #define  ADC_REGULAR_CHANNEL_RANK_LENGTH            ((uint8_t)5U)
  45:../Firmware/GD32VF103_standard_peripheral/Source/gd32vf103_adc.c **** 
  46:../Firmware/GD32VF103_standard_peripheral/Source/gd32vf103_adc.c **** /* ADC sampling time macro */
  47:../Firmware/GD32VF103_standard_peripheral/Source/gd32vf103_adc.c **** #define  ADC_CHANNEL_SAMPLE_TEN                     ((uint8_t)10U)
  48:../Firmware/GD32VF103_standard_peripheral/Source/gd32vf103_adc.c **** #define  ADC_CHANNEL_SAMPLE_EIGHTEEN                ((uint8_t)18U)
  49:../Firmware/GD32VF103_standard_peripheral/Source/gd32vf103_adc.c **** #define  ADC_CHANNEL_SAMPLE_LENGTH                  ((uint8_t)3U)
  50:../Firmware/GD32VF103_standard_peripheral/Source/gd32vf103_adc.c **** 
  51:../Firmware/GD32VF103_standard_peripheral/Source/gd32vf103_adc.c **** /* ADC inserted channel macro */
  52:../Firmware/GD32VF103_standard_peripheral/Source/gd32vf103_adc.c **** #define  ADC_INSERTED_CHANNEL_RANK_LENGTH           ((uint8_t)5U)
  53:../Firmware/GD32VF103_standard_peripheral/Source/gd32vf103_adc.c **** #define  ADC_INSERTED_CHANNEL_SHIFT_LENGTH          ((uint8_t)15U)
  54:../Firmware/GD32VF103_standard_peripheral/Source/gd32vf103_adc.c **** 
  55:../Firmware/GD32VF103_standard_peripheral/Source/gd32vf103_adc.c **** /* ADC inserted channel offset macro */
  56:../Firmware/GD32VF103_standard_peripheral/Source/gd32vf103_adc.c **** #define  ADC_OFFSET_LENGTH                          ((uint8_t)3U)
  57:../Firmware/GD32VF103_standard_peripheral/Source/gd32vf103_adc.c **** #define  ADC_OFFSET_SHIFT_LENGTH                    ((uint8_t)4U)
  58:../Firmware/GD32VF103_standard_peripheral/Source/gd32vf103_adc.c **** 
  59:../Firmware/GD32VF103_standard_peripheral/Source/gd32vf103_adc.c **** /*!
  60:../Firmware/GD32VF103_standard_peripheral/Source/gd32vf103_adc.c ****     \brief      reset ADC 
  61:../Firmware/GD32VF103_standard_peripheral/Source/gd32vf103_adc.c ****     \param[in]  adc_periph: ADCx, x=0,1
  62:../Firmware/GD32VF103_standard_peripheral/Source/gd32vf103_adc.c ****     \param[out] none
  63:../Firmware/GD32VF103_standard_peripheral/Source/gd32vf103_adc.c ****     \retval     none
  64:../Firmware/GD32VF103_standard_peripheral/Source/gd32vf103_adc.c **** */
  65:../Firmware/GD32VF103_standard_peripheral/Source/gd32vf103_adc.c **** void adc_deinit(uint32_t adc_periph)
  66:../Firmware/GD32VF103_standard_peripheral/Source/gd32vf103_adc.c **** {
  16              		.loc 1 66 1
  17              		.cfi_startproc
  18              	.LVL0:
  67:../Firmware/GD32VF103_standard_peripheral/Source/gd32vf103_adc.c ****     switch(adc_periph){
  19              		.loc 1 67 5
  66:../Firmware/GD32VF103_standard_peripheral/Source/gd32vf103_adc.c ****     switch(adc_periph){
  20              		.loc 1 66 1 is_stmt 0
  21 0000 4111     		addi	sp,sp,-16
  22              	.LCFI0:
  23              		.cfi_def_cfa_offset 16
  24              		.loc 1 67 5
  25 0002 B7270140 		li	a5,1073815552
  66:../Firmware/GD32VF103_standard_peripheral/Source/gd32vf103_adc.c ****     switch(adc_periph){
  26              		.loc 1 66 1
  27 0006 06C6     		sw	ra,12(sp)
  28              		.cfi_offset 1, -4
  29              		.loc 1 67 5
  30 0008 93870740 		addi	a5,a5,1024
  31 000c 630BF500 		beq	a0,a5,.L2
  32 0010 B7370140 		li	a5,1073819648
  33 0014 93870780 		addi	a5,a5,-2048
  34 0018 6303F502 		beq	a0,a5,.L3
  68:../Firmware/GD32VF103_standard_peripheral/Source/gd32vf103_adc.c ****     case ADC0:
  69:../Firmware/GD32VF103_standard_peripheral/Source/gd32vf103_adc.c ****         /* reset ADC0 */
  70:../Firmware/GD32VF103_standard_peripheral/Source/gd32vf103_adc.c ****         rcu_periph_reset_enable(RCU_ADC0RST);
  71:../Firmware/GD32VF103_standard_peripheral/Source/gd32vf103_adc.c ****         rcu_periph_reset_disable(RCU_ADC0RST);
  72:../Firmware/GD32VF103_standard_peripheral/Source/gd32vf103_adc.c ****         break;
  73:../Firmware/GD32VF103_standard_peripheral/Source/gd32vf103_adc.c ****     case ADC1:
  74:../Firmware/GD32VF103_standard_peripheral/Source/gd32vf103_adc.c ****         /* reset ADC1 */
  75:../Firmware/GD32VF103_standard_peripheral/Source/gd32vf103_adc.c ****         rcu_periph_reset_enable(RCU_ADC1RST);
  76:../Firmware/GD32VF103_standard_peripheral/Source/gd32vf103_adc.c ****         rcu_periph_reset_disable(RCU_ADC1RST);
  77:../Firmware/GD32VF103_standard_peripheral/Source/gd32vf103_adc.c ****         break;
  78:../Firmware/GD32VF103_standard_peripheral/Source/gd32vf103_adc.c ****     default:
  79:../Firmware/GD32VF103_standard_peripheral/Source/gd32vf103_adc.c ****         break;
GAS LISTING /tmp/ccOz1Rcm.s 			page 3


  80:../Firmware/GD32VF103_standard_peripheral/Source/gd32vf103_adc.c ****     }
  81:../Firmware/GD32VF103_standard_peripheral/Source/gd32vf103_adc.c **** }
  35              		.loc 1 81 1
  36 001c B240     		lw	ra,12(sp)
  37              		.cfi_remember_state
  38              		.cfi_restore 1
  39 001e 4101     		addi	sp,sp,16
  40              	.LCFI1:
  41              		.cfi_def_cfa_offset 0
  42 0020 8280     		jr	ra
  43              	.L2:
  44              	.LCFI2:
  45              		.cfi_restore_state
  70:../Firmware/GD32VF103_standard_peripheral/Source/gd32vf103_adc.c ****         rcu_periph_reset_disable(RCU_ADC0RST);
  46              		.loc 1 70 9 is_stmt 1
  47 0022 13059030 		li	a0,777
  48              	.LVL1:
  49 0026 97000000 		call	rcu_periph_reset_enable
  49      E7800000 
  50              	.LVL2:
  71:../Firmware/GD32VF103_standard_peripheral/Source/gd32vf103_adc.c ****         break;
  51              		.loc 1 71 9
  52              		.loc 1 81 1 is_stmt 0
  53 002e B240     		lw	ra,12(sp)
  54              		.cfi_remember_state
  55              		.cfi_restore 1
  71:../Firmware/GD32VF103_standard_peripheral/Source/gd32vf103_adc.c ****         break;
  56              		.loc 1 71 9
  57 0030 13059030 		li	a0,777
  58              		.loc 1 81 1
  59 0034 4101     		addi	sp,sp,16
  60              	.LCFI3:
  61              		.cfi_def_cfa_offset 0
  71:../Firmware/GD32VF103_standard_peripheral/Source/gd32vf103_adc.c ****         break;
  62              		.loc 1 71 9
  63 0036 17030000 		tail	rcu_periph_reset_disable
  63      67000300 
  64              	.LVL3:
  65              	.L3:
  66              	.LCFI4:
  67              		.cfi_restore_state
  75:../Firmware/GD32VF103_standard_peripheral/Source/gd32vf103_adc.c ****         rcu_periph_reset_disable(RCU_ADC1RST);
  68              		.loc 1 75 9 is_stmt 1
  69 003e 1305A030 		li	a0,778
  70              	.LVL4:
  71 0042 97000000 		call	rcu_periph_reset_enable
  71      E7800000 
  72              	.LVL5:
  76:../Firmware/GD32VF103_standard_peripheral/Source/gd32vf103_adc.c ****         break;
  73              		.loc 1 76 9
  74              		.loc 1 81 1 is_stmt 0
  75 004a B240     		lw	ra,12(sp)
  76              		.cfi_restore 1
  76:../Firmware/GD32VF103_standard_peripheral/Source/gd32vf103_adc.c ****         break;
  77              		.loc 1 76 9
  78 004c 1305A030 		li	a0,778
  79              		.loc 1 81 1
GAS LISTING /tmp/ccOz1Rcm.s 			page 4


  80 0050 4101     		addi	sp,sp,16
  81              	.LCFI5:
  82              		.cfi_def_cfa_offset 0
  76:../Firmware/GD32VF103_standard_peripheral/Source/gd32vf103_adc.c ****         break;
  83              		.loc 1 76 9
  84 0052 17030000 		tail	rcu_periph_reset_disable
  84      67000300 
  85              	.LVL6:
  86              		.cfi_endproc
  87              	.LFE2:
  89              		.section	.text.adc_mode_config,"ax",@progbits
  90              		.align	1
  91              		.globl	adc_mode_config
  93              	adc_mode_config:
  94              	.LFB3:
  82:../Firmware/GD32VF103_standard_peripheral/Source/gd32vf103_adc.c **** 
  83:../Firmware/GD32VF103_standard_peripheral/Source/gd32vf103_adc.c **** /*!
  84:../Firmware/GD32VF103_standard_peripheral/Source/gd32vf103_adc.c ****     \brief      configure the ADC sync mode
  85:../Firmware/GD32VF103_standard_peripheral/Source/gd32vf103_adc.c ****     \param[in]  mode: ADC mode
  86:../Firmware/GD32VF103_standard_peripheral/Source/gd32vf103_adc.c ****                 only one parameter can be selected which is shown as below:
  87:../Firmware/GD32VF103_standard_peripheral/Source/gd32vf103_adc.c ****       \arg        ADC_MODE_FREE: all the ADCs work independently
  88:../Firmware/GD32VF103_standard_peripheral/Source/gd32vf103_adc.c ****       \arg        ADC_DAUL_REGULAL_PARALLEL_INSERTED_PARALLEL: ADC0 and ADC1 work in combined regul
  89:../Firmware/GD32VF103_standard_peripheral/Source/gd32vf103_adc.c ****       \arg        ADC_DAUL_REGULAL_PARALLEL_INSERTED_ROTATION: ADC0 and ADC1 work in combined regul
  90:../Firmware/GD32VF103_standard_peripheral/Source/gd32vf103_adc.c ****       \arg        ADC_DAUL_INSERTED_PARALLEL_REGULAL_FOLLOWUP_FAST: ADC0 and ADC1 work in combined 
  91:../Firmware/GD32VF103_standard_peripheral/Source/gd32vf103_adc.c ****       \arg        ADC_DAUL_INSERTED_PARALLEL_REGULAL_FOLLOWUP_SLOW: ADC0 and ADC1 work in combined 
  92:../Firmware/GD32VF103_standard_peripheral/Source/gd32vf103_adc.c ****       \arg        ADC_DAUL_INSERTED_PARALLEL: ADC0 and ADC1 work in inserted parallel mode only
  93:../Firmware/GD32VF103_standard_peripheral/Source/gd32vf103_adc.c ****       \arg        ADC_DAUL_REGULAL_PARALLEL: ADC0 and ADC1 work in regular parallel mode only
  94:../Firmware/GD32VF103_standard_peripheral/Source/gd32vf103_adc.c ****       \arg        ADC_DAUL_REGULAL_FOLLOWUP_FAST: ADC0 and ADC1 work in follow-up fast mode only
  95:../Firmware/GD32VF103_standard_peripheral/Source/gd32vf103_adc.c ****       \arg        ADC_DAUL_REGULAL_FOLLOWUP_SLOW: ADC0 and ADC1 work in follow-up slow mode only
  96:../Firmware/GD32VF103_standard_peripheral/Source/gd32vf103_adc.c ****       \arg        ADC_DAUL_INSERTED_TRIGGER_ROTATION: ADC0 and ADC1 work in trigger rotation mode o
  97:../Firmware/GD32VF103_standard_peripheral/Source/gd32vf103_adc.c ****     \param[out] none
  98:../Firmware/GD32VF103_standard_peripheral/Source/gd32vf103_adc.c ****     \retval     none
  99:../Firmware/GD32VF103_standard_peripheral/Source/gd32vf103_adc.c **** */
 100:../Firmware/GD32VF103_standard_peripheral/Source/gd32vf103_adc.c **** void adc_mode_config(uint32_t mode)
 101:../Firmware/GD32VF103_standard_peripheral/Source/gd32vf103_adc.c **** {
  95              		.loc 1 101 1 is_stmt 1
  96              		.cfi_startproc
  97              	.LVL7:
 102:../Firmware/GD32VF103_standard_peripheral/Source/gd32vf103_adc.c ****     ADC_CTL0(ADC0) &= ~(ADC_CTL0_SYNCM);
  98              		.loc 1 102 5
  99              		.loc 1 102 20 is_stmt 0
 100 0000 B7270140 		li	a5,1073815552
 101 0004 03A74740 		lw	a4,1028(a5)
 102 0008 B706F1FF 		li	a3,-983040
 103 000c FD16     		addi	a3,a3,-1
 104 000e 758F     		and	a4,a4,a3
 105 0010 23A2E740 		sw	a4,1028(a5)
 103:../Firmware/GD32VF103_standard_peripheral/Source/gd32vf103_adc.c ****     ADC_CTL0(ADC0) |= mode;
 106              		.loc 1 103 5 is_stmt 1
 107              		.loc 1 103 20 is_stmt 0
 108 0014 03A74740 		lw	a4,1028(a5)
 109 0018 498F     		or	a4,a4,a0
 110 001a 23A2E740 		sw	a4,1028(a5)
 104:../Firmware/GD32VF103_standard_peripheral/Source/gd32vf103_adc.c **** }
 111              		.loc 1 104 1
 112 001e 8280     		ret
 113              		.cfi_endproc
GAS LISTING /tmp/ccOz1Rcm.s 			page 5


 114              	.LFE3:
 116              		.section	.text.adc_special_function_config,"ax",@progbits
 117              		.align	1
 118              		.globl	adc_special_function_config
 120              	adc_special_function_config:
 121              	.LFB4:
 105:../Firmware/GD32VF103_standard_peripheral/Source/gd32vf103_adc.c **** 
 106:../Firmware/GD32VF103_standard_peripheral/Source/gd32vf103_adc.c **** /*!
 107:../Firmware/GD32VF103_standard_peripheral/Source/gd32vf103_adc.c ****     \brief      enable or disable ADC special function
 108:../Firmware/GD32VF103_standard_peripheral/Source/gd32vf103_adc.c ****     \param[in]  adc_periph: ADCx, x=0,1
 109:../Firmware/GD32VF103_standard_peripheral/Source/gd32vf103_adc.c ****     \param[in]  function: the function to config
 110:../Firmware/GD32VF103_standard_peripheral/Source/gd32vf103_adc.c ****                 only one parameter can be selected which is shown as below:
 111:../Firmware/GD32VF103_standard_peripheral/Source/gd32vf103_adc.c ****       \arg        ADC_SCAN_MODE: scan mode select
 112:../Firmware/GD32VF103_standard_peripheral/Source/gd32vf103_adc.c ****       \arg        ADC_INSERTED_CHANNEL_AUTO: inserted channel group convert automatically
 113:../Firmware/GD32VF103_standard_peripheral/Source/gd32vf103_adc.c ****       \arg        ADC_CONTINUOUS_MODE: continuous mode select
 114:../Firmware/GD32VF103_standard_peripheral/Source/gd32vf103_adc.c ****     \param[in]  newvalue: ENABLE or DISABLE
 115:../Firmware/GD32VF103_standard_peripheral/Source/gd32vf103_adc.c ****     \param[out] none
 116:../Firmware/GD32VF103_standard_peripheral/Source/gd32vf103_adc.c ****     \retval     none
 117:../Firmware/GD32VF103_standard_peripheral/Source/gd32vf103_adc.c **** */
 118:../Firmware/GD32VF103_standard_peripheral/Source/gd32vf103_adc.c **** void adc_special_function_config(uint32_t adc_periph, uint32_t function, ControlStatus newvalue)
 119:../Firmware/GD32VF103_standard_peripheral/Source/gd32vf103_adc.c **** {
 122              		.loc 1 119 1 is_stmt 1
 123              		.cfi_startproc
 124              	.LVL8:
 120:../Firmware/GD32VF103_standard_peripheral/Source/gd32vf103_adc.c ****     if(newvalue){
 125              		.loc 1 120 5
 121:../Firmware/GD32VF103_standard_peripheral/Source/gd32vf103_adc.c ****         if(0U != (function & ADC_SCAN_MODE)){
 126              		.loc 1 121 28 is_stmt 0
 127 0000 93F70510 		andi	a5,a1,256
 120:../Firmware/GD32VF103_standard_peripheral/Source/gd32vf103_adc.c ****     if(newvalue){
 128              		.loc 1 120 7
 129 0004 05C6     		beq	a2,zero,.L10
 130              		.loc 1 121 9 is_stmt 1
 131              		.loc 1 121 11 is_stmt 0
 132 0006 89C7     		beq	a5,zero,.L11
 122:../Firmware/GD32VF103_standard_peripheral/Source/gd32vf103_adc.c ****             /* enable scan mode */
 123:../Firmware/GD32VF103_standard_peripheral/Source/gd32vf103_adc.c ****             ADC_CTL0(adc_periph) |= ADC_SCAN_MODE;
 133              		.loc 1 123 13 is_stmt 1
 134              		.loc 1 123 34 is_stmt 0
 135 0008 5C41     		lw	a5,4(a0)
 136 000a 93E70710 		ori	a5,a5,256
 137 000e 5CC1     		sw	a5,4(a0)
 138              	.L11:
 124:../Firmware/GD32VF103_standard_peripheral/Source/gd32vf103_adc.c ****         }
 125:../Firmware/GD32VF103_standard_peripheral/Source/gd32vf103_adc.c ****         if(0U != (function & ADC_INSERTED_CHANNEL_AUTO)){
 139              		.loc 1 125 9 is_stmt 1
 140              		.loc 1 125 28 is_stmt 0
 141 0010 93F70540 		andi	a5,a1,1024
 142              		.loc 1 125 11
 143 0014 89C7     		beq	a5,zero,.L12
 126:../Firmware/GD32VF103_standard_peripheral/Source/gd32vf103_adc.c ****             /* enable inserted channel group convert automatically */
 127:../Firmware/GD32VF103_standard_peripheral/Source/gd32vf103_adc.c ****             ADC_CTL0(adc_periph) |= ADC_INSERTED_CHANNEL_AUTO;
 144              		.loc 1 127 13 is_stmt 1
 145              		.loc 1 127 34 is_stmt 0
 146 0016 5C41     		lw	a5,4(a0)
 147 0018 93E70740 		ori	a5,a5,1024
 148 001c 5CC1     		sw	a5,4(a0)
GAS LISTING /tmp/ccOz1Rcm.s 			page 6


 149              	.L12:
 128:../Firmware/GD32VF103_standard_peripheral/Source/gd32vf103_adc.c ****         } 
 129:../Firmware/GD32VF103_standard_peripheral/Source/gd32vf103_adc.c ****         if(0U != (function & ADC_CONTINUOUS_MODE)){
 150              		.loc 1 129 9 is_stmt 1
 151              		.loc 1 129 28 is_stmt 0
 152 001e 8989     		andi	a1,a1,2
 153              	.LVL9:
 154              		.loc 1 129 11
 155 0020 81CD     		beq	a1,zero,.L9
 130:../Firmware/GD32VF103_standard_peripheral/Source/gd32vf103_adc.c ****             /* enable continuous mode */
 131:../Firmware/GD32VF103_standard_peripheral/Source/gd32vf103_adc.c ****             ADC_CTL1(adc_periph) |= ADC_CONTINUOUS_MODE;
 156              		.loc 1 131 13 is_stmt 1
 157              		.loc 1 131 34 is_stmt 0
 158 0022 1C45     		lw	a5,8(a0)
 159 0024 93E72700 		ori	a5,a5,2
 160 0028 1CC5     		sw	a5,8(a0)
 161 002a 8280     		ret
 162              	.LVL10:
 163              	.L10:
 132:../Firmware/GD32VF103_standard_peripheral/Source/gd32vf103_adc.c ****         }        
 133:../Firmware/GD32VF103_standard_peripheral/Source/gd32vf103_adc.c ****     }else{
 134:../Firmware/GD32VF103_standard_peripheral/Source/gd32vf103_adc.c ****         if(0U != (function & ADC_SCAN_MODE)){
 164              		.loc 1 134 9 is_stmt 1
 165              		.loc 1 134 11 is_stmt 0
 166 002c 95E3     		bne	a5,zero,.L33
 135:../Firmware/GD32VF103_standard_peripheral/Source/gd32vf103_adc.c ****             /* disable scan mode */
 136:../Firmware/GD32VF103_standard_peripheral/Source/gd32vf103_adc.c ****             ADC_CTL0(adc_periph) &= ~ADC_SCAN_MODE;
 137:../Firmware/GD32VF103_standard_peripheral/Source/gd32vf103_adc.c ****         }
 138:../Firmware/GD32VF103_standard_peripheral/Source/gd32vf103_adc.c ****         if(0U != (function & ADC_INSERTED_CHANNEL_AUTO)){
 167              		.loc 1 138 9 is_stmt 1
 168              		.loc 1 138 28 is_stmt 0
 169 002e 93F70540 		andi	a5,a1,1024
 170              		.loc 1 138 11
 171 0032 81EB     		bne	a5,zero,.L34
 172              	.L16:
 139:../Firmware/GD32VF103_standard_peripheral/Source/gd32vf103_adc.c ****             /* disable inserted channel group convert automatically */
 140:../Firmware/GD32VF103_standard_peripheral/Source/gd32vf103_adc.c ****             ADC_CTL0(adc_periph) &= ~ADC_INSERTED_CHANNEL_AUTO;
 141:../Firmware/GD32VF103_standard_peripheral/Source/gd32vf103_adc.c ****         } 
 142:../Firmware/GD32VF103_standard_peripheral/Source/gd32vf103_adc.c ****         if(0U != (function & ADC_CONTINUOUS_MODE)){
 173              		.loc 1 142 9 is_stmt 1
 174              		.loc 1 142 28 is_stmt 0
 175 0034 8989     		andi	a1,a1,2
 176              	.LVL11:
 177              		.loc 1 142 11
 178 0036 91E1     		bne	a1,zero,.L35
 179              	.L9:
 143:../Firmware/GD32VF103_standard_peripheral/Source/gd32vf103_adc.c ****             /* disable continuous mode */
 144:../Firmware/GD32VF103_standard_peripheral/Source/gd32vf103_adc.c ****             ADC_CTL1(adc_periph) &= ~ADC_CONTINUOUS_MODE;
 145:../Firmware/GD32VF103_standard_peripheral/Source/gd32vf103_adc.c ****         }       
 146:../Firmware/GD32VF103_standard_peripheral/Source/gd32vf103_adc.c ****     }
 147:../Firmware/GD32VF103_standard_peripheral/Source/gd32vf103_adc.c **** }
 180              		.loc 1 147 1
 181 0038 8280     		ret
 182              	.L35:
 144:../Firmware/GD32VF103_standard_peripheral/Source/gd32vf103_adc.c ****         }       
 183              		.loc 1 144 13 is_stmt 1
 144:../Firmware/GD32VF103_standard_peripheral/Source/gd32vf103_adc.c ****         }       
GAS LISTING /tmp/ccOz1Rcm.s 			page 7


 184              		.loc 1 144 34 is_stmt 0
 185 003a 1C45     		lw	a5,8(a0)
 186 003c F59B     		andi	a5,a5,-3
 187 003e 1CC5     		sw	a5,8(a0)
 188              		.loc 1 147 1
 189 0040 8280     		ret
 190              	.LVL12:
 191              	.L34:
 140:../Firmware/GD32VF103_standard_peripheral/Source/gd32vf103_adc.c ****         } 
 192              		.loc 1 140 13 is_stmt 1
 140:../Firmware/GD32VF103_standard_peripheral/Source/gd32vf103_adc.c ****         } 
 193              		.loc 1 140 34 is_stmt 0
 194 0042 5C41     		lw	a5,4(a0)
 142:../Firmware/GD32VF103_standard_peripheral/Source/gd32vf103_adc.c ****             /* disable continuous mode */
 195              		.loc 1 142 28
 196 0044 8989     		andi	a1,a1,2
 197              	.LVL13:
 140:../Firmware/GD32VF103_standard_peripheral/Source/gd32vf103_adc.c ****         } 
 198              		.loc 1 140 34
 199 0046 93F7F7BF 		andi	a5,a5,-1025
 200 004a 5CC1     		sw	a5,4(a0)
 142:../Firmware/GD32VF103_standard_peripheral/Source/gd32vf103_adc.c ****             /* disable continuous mode */
 201              		.loc 1 142 9 is_stmt 1
 142:../Firmware/GD32VF103_standard_peripheral/Source/gd32vf103_adc.c ****             /* disable continuous mode */
 202              		.loc 1 142 11 is_stmt 0
 203 004c F5D5     		beq	a1,zero,.L9
 204 004e F5B7     		j	.L35
 205              	.LVL14:
 206              	.L33:
 136:../Firmware/GD32VF103_standard_peripheral/Source/gd32vf103_adc.c ****         }
 207              		.loc 1 136 13 is_stmt 1
 136:../Firmware/GD32VF103_standard_peripheral/Source/gd32vf103_adc.c ****         }
 208              		.loc 1 136 34 is_stmt 0
 209 0050 5C41     		lw	a5,4(a0)
 210 0052 93F7F7EF 		andi	a5,a5,-257
 211 0056 5CC1     		sw	a5,4(a0)
 138:../Firmware/GD32VF103_standard_peripheral/Source/gd32vf103_adc.c ****             /* disable inserted channel group convert automatically */
 212              		.loc 1 138 9 is_stmt 1
 138:../Firmware/GD32VF103_standard_peripheral/Source/gd32vf103_adc.c ****             /* disable inserted channel group convert automatically */
 213              		.loc 1 138 28 is_stmt 0
 214 0058 93F70540 		andi	a5,a1,1024
 138:../Firmware/GD32VF103_standard_peripheral/Source/gd32vf103_adc.c ****             /* disable inserted channel group convert automatically */
 215              		.loc 1 138 11
 216 005c E1DF     		beq	a5,zero,.L16
 217 005e D5B7     		j	.L34
 218              		.cfi_endproc
 219              	.LFE4:
 221              		.section	.text.adc_data_alignment_config,"ax",@progbits
 222              		.align	1
 223              		.globl	adc_data_alignment_config
 225              	adc_data_alignment_config:
 226              	.LFB5:
 148:../Firmware/GD32VF103_standard_peripheral/Source/gd32vf103_adc.c **** 
 149:../Firmware/GD32VF103_standard_peripheral/Source/gd32vf103_adc.c **** /*!
 150:../Firmware/GD32VF103_standard_peripheral/Source/gd32vf103_adc.c ****     \brief      configure ADC data alignment 
 151:../Firmware/GD32VF103_standard_peripheral/Source/gd32vf103_adc.c ****     \param[in]  adc_periph: ADCx, x=0,1
 152:../Firmware/GD32VF103_standard_peripheral/Source/gd32vf103_adc.c ****     \param[in]  data_alignment: data alignment select
GAS LISTING /tmp/ccOz1Rcm.s 			page 8


 153:../Firmware/GD32VF103_standard_peripheral/Source/gd32vf103_adc.c ****                 only one parameter can be selected which is shown as below:
 154:../Firmware/GD32VF103_standard_peripheral/Source/gd32vf103_adc.c ****       \arg        ADC_DATAALIGN_RIGHT: LSB alignment
 155:../Firmware/GD32VF103_standard_peripheral/Source/gd32vf103_adc.c ****       \arg        ADC_DATAALIGN_LEFT: MSB alignment
 156:../Firmware/GD32VF103_standard_peripheral/Source/gd32vf103_adc.c ****     \param[out] none
 157:../Firmware/GD32VF103_standard_peripheral/Source/gd32vf103_adc.c ****     \retval     none
 158:../Firmware/GD32VF103_standard_peripheral/Source/gd32vf103_adc.c **** */
 159:../Firmware/GD32VF103_standard_peripheral/Source/gd32vf103_adc.c **** void adc_data_alignment_config(uint32_t adc_periph, uint32_t data_alignment)
 160:../Firmware/GD32VF103_standard_peripheral/Source/gd32vf103_adc.c **** {
 227              		.loc 1 160 1 is_stmt 1
 228              		.cfi_startproc
 229              	.LVL15:
 161:../Firmware/GD32VF103_standard_peripheral/Source/gd32vf103_adc.c ****     if(ADC_DATAALIGN_RIGHT != data_alignment){
 230              		.loc 1 161 5
 162:../Firmware/GD32VF103_standard_peripheral/Source/gd32vf103_adc.c ****         /* MSB alignment */
 163:../Firmware/GD32VF103_standard_peripheral/Source/gd32vf103_adc.c ****         ADC_CTL1(adc_periph) |= ADC_CTL1_DAL;
 231              		.loc 1 163 30 is_stmt 0
 232 0000 1C45     		lw	a5,8(a0)
 161:../Firmware/GD32VF103_standard_peripheral/Source/gd32vf103_adc.c ****     if(ADC_DATAALIGN_RIGHT != data_alignment){
 233              		.loc 1 161 7
 234 0002 99C5     		beq	a1,zero,.L37
 235              		.loc 1 163 9 is_stmt 1
 236              		.loc 1 163 30 is_stmt 0
 237 0004 0567     		li	a4,4096
 238 0006 13070780 		addi	a4,a4,-2048
 239 000a D98F     		or	a5,a5,a4
 240 000c 1CC5     		sw	a5,8(a0)
 241 000e 8280     		ret
 242              	.L37:
 164:../Firmware/GD32VF103_standard_peripheral/Source/gd32vf103_adc.c ****     }else{
 165:../Firmware/GD32VF103_standard_peripheral/Source/gd32vf103_adc.c ****         /* LSB alignment */
 166:../Firmware/GD32VF103_standard_peripheral/Source/gd32vf103_adc.c ****         ADC_CTL1(adc_periph) &= ~((uint32_t)ADC_CTL1_DAL);
 243              		.loc 1 166 9 is_stmt 1
 244              		.loc 1 166 30 is_stmt 0
 245 0010 7D77     		li	a4,-4096
 246 0012 1307F77F 		addi	a4,a4,2047
 247 0016 F98F     		and	a5,a5,a4
 248 0018 1CC5     		sw	a5,8(a0)
 167:../Firmware/GD32VF103_standard_peripheral/Source/gd32vf103_adc.c ****     }
 168:../Firmware/GD32VF103_standard_peripheral/Source/gd32vf103_adc.c **** }
 249              		.loc 1 168 1
 250 001a 8280     		ret
 251              		.cfi_endproc
 252              	.LFE5:
 254              		.section	.text.adc_enable,"ax",@progbits
 255              		.align	1
 256              		.globl	adc_enable
 258              	adc_enable:
 259              	.LFB6:
 169:../Firmware/GD32VF103_standard_peripheral/Source/gd32vf103_adc.c **** 
 170:../Firmware/GD32VF103_standard_peripheral/Source/gd32vf103_adc.c **** /*!
 171:../Firmware/GD32VF103_standard_peripheral/Source/gd32vf103_adc.c ****     \brief      enable ADC interface
 172:../Firmware/GD32VF103_standard_peripheral/Source/gd32vf103_adc.c ****     \param[in]  adc_periph: ADCx, x=0,1
 173:../Firmware/GD32VF103_standard_peripheral/Source/gd32vf103_adc.c ****     \param[out] none
 174:../Firmware/GD32VF103_standard_peripheral/Source/gd32vf103_adc.c ****     \retval     none
 175:../Firmware/GD32VF103_standard_peripheral/Source/gd32vf103_adc.c **** */
 176:../Firmware/GD32VF103_standard_peripheral/Source/gd32vf103_adc.c **** void adc_enable(uint32_t adc_periph)
 177:../Firmware/GD32VF103_standard_peripheral/Source/gd32vf103_adc.c **** {
GAS LISTING /tmp/ccOz1Rcm.s 			page 9


 260              		.loc 1 177 1 is_stmt 1
 261              		.cfi_startproc
 262              	.LVL16:
 178:../Firmware/GD32VF103_standard_peripheral/Source/gd32vf103_adc.c ****     if(RESET == (ADC_CTL1(adc_periph) & ADC_CTL1_ADCON)){
 263              		.loc 1 178 5
 264              		.loc 1 178 18 is_stmt 0
 265 0000 1C45     		lw	a5,8(a0)
 266              		.loc 1 178 39
 267 0002 858B     		andi	a5,a5,1
 268              		.loc 1 178 7
 269 0004 89E7     		bne	a5,zero,.L39
 179:../Firmware/GD32VF103_standard_peripheral/Source/gd32vf103_adc.c ****         /* enable ADC */
 180:../Firmware/GD32VF103_standard_peripheral/Source/gd32vf103_adc.c ****         ADC_CTL1(adc_periph) |= (uint32_t)ADC_CTL1_ADCON;
 270              		.loc 1 180 9 is_stmt 1
 271              		.loc 1 180 30 is_stmt 0
 272 0006 1C45     		lw	a5,8(a0)
 273 0008 93E71700 		ori	a5,a5,1
 274 000c 1CC5     		sw	a5,8(a0)
 275              	.L39:
 181:../Firmware/GD32VF103_standard_peripheral/Source/gd32vf103_adc.c ****     }       
 182:../Firmware/GD32VF103_standard_peripheral/Source/gd32vf103_adc.c **** }
 276              		.loc 1 182 1
 277 000e 8280     		ret
 278              		.cfi_endproc
 279              	.LFE6:
 281              		.section	.text.adc_disable,"ax",@progbits
 282              		.align	1
 283              		.globl	adc_disable
 285              	adc_disable:
 286              	.LFB7:
 183:../Firmware/GD32VF103_standard_peripheral/Source/gd32vf103_adc.c **** 
 184:../Firmware/GD32VF103_standard_peripheral/Source/gd32vf103_adc.c **** /*!
 185:../Firmware/GD32VF103_standard_peripheral/Source/gd32vf103_adc.c ****     \brief      disable ADC interface
 186:../Firmware/GD32VF103_standard_peripheral/Source/gd32vf103_adc.c ****     \param[in]  adc_periph: ADCx, x=0,1
 187:../Firmware/GD32VF103_standard_peripheral/Source/gd32vf103_adc.c ****     \param[out] none
 188:../Firmware/GD32VF103_standard_peripheral/Source/gd32vf103_adc.c ****     \retval     none
 189:../Firmware/GD32VF103_standard_peripheral/Source/gd32vf103_adc.c **** */
 190:../Firmware/GD32VF103_standard_peripheral/Source/gd32vf103_adc.c **** void adc_disable(uint32_t adc_periph)
 191:../Firmware/GD32VF103_standard_peripheral/Source/gd32vf103_adc.c **** {
 287              		.loc 1 191 1 is_stmt 1
 288              		.cfi_startproc
 289              	.LVL17:
 192:../Firmware/GD32VF103_standard_peripheral/Source/gd32vf103_adc.c ****     /* disable ADC */
 193:../Firmware/GD32VF103_standard_peripheral/Source/gd32vf103_adc.c ****     ADC_CTL1(adc_periph) &= ~((uint32_t)ADC_CTL1_ADCON);
 290              		.loc 1 193 5
 291              		.loc 1 193 26 is_stmt 0
 292 0000 1C45     		lw	a5,8(a0)
 293 0002 F99B     		andi	a5,a5,-2
 294 0004 1CC5     		sw	a5,8(a0)
 194:../Firmware/GD32VF103_standard_peripheral/Source/gd32vf103_adc.c **** }
 295              		.loc 1 194 1
 296 0006 8280     		ret
 297              		.cfi_endproc
 298              	.LFE7:
 300              		.section	.text.adc_calibration_enable,"ax",@progbits
 301              		.align	1
 302              		.globl	adc_calibration_enable
GAS LISTING /tmp/ccOz1Rcm.s 			page 10


 304              	adc_calibration_enable:
 305              	.LFB8:
 195:../Firmware/GD32VF103_standard_peripheral/Source/gd32vf103_adc.c **** 
 196:../Firmware/GD32VF103_standard_peripheral/Source/gd32vf103_adc.c **** /*!
 197:../Firmware/GD32VF103_standard_peripheral/Source/gd32vf103_adc.c ****     \brief      ADC calibration and reset calibration
 198:../Firmware/GD32VF103_standard_peripheral/Source/gd32vf103_adc.c ****     \param[in]  adc_periph: ADCx, x=0,1
 199:../Firmware/GD32VF103_standard_peripheral/Source/gd32vf103_adc.c ****     \param[out] none
 200:../Firmware/GD32VF103_standard_peripheral/Source/gd32vf103_adc.c ****     \retval     none
 201:../Firmware/GD32VF103_standard_peripheral/Source/gd32vf103_adc.c **** */
 202:../Firmware/GD32VF103_standard_peripheral/Source/gd32vf103_adc.c **** void adc_calibration_enable(uint32_t adc_periph)
 203:../Firmware/GD32VF103_standard_peripheral/Source/gd32vf103_adc.c **** {
 306              		.loc 1 203 1 is_stmt 1
 307              		.cfi_startproc
 308              	.LVL18:
 204:../Firmware/GD32VF103_standard_peripheral/Source/gd32vf103_adc.c ****     /* reset the selected ADC1 calibration registers */
 205:../Firmware/GD32VF103_standard_peripheral/Source/gd32vf103_adc.c ****     ADC_CTL1(adc_periph) |= (uint32_t) ADC_CTL1_RSTCLB;
 309              		.loc 1 205 5
 310              		.loc 1 205 26 is_stmt 0
 311 0000 1C45     		lw	a5,8(a0)
 312 0002 13078500 		addi	a4,a0,8
 313 0006 93E78700 		ori	a5,a5,8
 314 000a 1CC5     		sw	a5,8(a0)
 206:../Firmware/GD32VF103_standard_peripheral/Source/gd32vf103_adc.c ****     /* check the RSTCLB bit state */
 207:../Firmware/GD32VF103_standard_peripheral/Source/gd32vf103_adc.c ****     while(RESET != (ADC_CTL1(adc_periph) & ADC_CTL1_RSTCLB)){
 315              		.loc 1 207 5 is_stmt 1
 316              	.L43:
 208:../Firmware/GD32VF103_standard_peripheral/Source/gd32vf103_adc.c ****     }
 317              		.loc 1 208 5 discriminator 1
 207:../Firmware/GD32VF103_standard_peripheral/Source/gd32vf103_adc.c ****     }
 318              		.loc 1 207 10 discriminator 1
 207:../Firmware/GD32VF103_standard_peripheral/Source/gd32vf103_adc.c ****     }
 319              		.loc 1 207 21 is_stmt 0 discriminator 1
 320 000c 1C43     		lw	a5,0(a4)
 207:../Firmware/GD32VF103_standard_peripheral/Source/gd32vf103_adc.c ****     }
 321              		.loc 1 207 42 discriminator 1
 322 000e A18B     		andi	a5,a5,8
 207:../Firmware/GD32VF103_standard_peripheral/Source/gd32vf103_adc.c ****     }
 323              		.loc 1 207 10 discriminator 1
 324 0010 F5FF     		bne	a5,zero,.L43
 209:../Firmware/GD32VF103_standard_peripheral/Source/gd32vf103_adc.c ****     /* enable ADC calibration process */
 210:../Firmware/GD32VF103_standard_peripheral/Source/gd32vf103_adc.c ****     ADC_CTL1(adc_periph) |= ADC_CTL1_CLB;
 325              		.loc 1 210 5 is_stmt 1
 326              		.loc 1 210 26 is_stmt 0
 327 0012 1C45     		lw	a5,8(a0)
 328 0014 93E74700 		ori	a5,a5,4
 329 0018 1CC5     		sw	a5,8(a0)
 211:../Firmware/GD32VF103_standard_peripheral/Source/gd32vf103_adc.c ****     /* check the CLB bit state */
 212:../Firmware/GD32VF103_standard_peripheral/Source/gd32vf103_adc.c ****     while(RESET != (ADC_CTL1(adc_periph) & ADC_CTL1_CLB)){
 330              		.loc 1 212 5 is_stmt 1
 331              	.L44:
 213:../Firmware/GD32VF103_standard_peripheral/Source/gd32vf103_adc.c ****     }
 332              		.loc 1 213 5 discriminator 1
 212:../Firmware/GD32VF103_standard_peripheral/Source/gd32vf103_adc.c ****     }
 333              		.loc 1 212 10 discriminator 1
 212:../Firmware/GD32VF103_standard_peripheral/Source/gd32vf103_adc.c ****     }
 334              		.loc 1 212 21 is_stmt 0 discriminator 1
 335 001a 1C43     		lw	a5,0(a4)
GAS LISTING /tmp/ccOz1Rcm.s 			page 11


 212:../Firmware/GD32VF103_standard_peripheral/Source/gd32vf103_adc.c ****     }
 336              		.loc 1 212 42 discriminator 1
 337 001c 918B     		andi	a5,a5,4
 212:../Firmware/GD32VF103_standard_peripheral/Source/gd32vf103_adc.c ****     }
 338              		.loc 1 212 10 discriminator 1
 339 001e F5FF     		bne	a5,zero,.L44
 214:../Firmware/GD32VF103_standard_peripheral/Source/gd32vf103_adc.c **** }
 340              		.loc 1 214 1
 341 0020 8280     		ret
 342              		.cfi_endproc
 343              	.LFE8:
 345              		.section	.text.adc_tempsensor_vrefint_enable,"ax",@progbits
 346              		.align	1
 347              		.globl	adc_tempsensor_vrefint_enable
 349              	adc_tempsensor_vrefint_enable:
 350              	.LFB9:
 215:../Firmware/GD32VF103_standard_peripheral/Source/gd32vf103_adc.c **** 
 216:../Firmware/GD32VF103_standard_peripheral/Source/gd32vf103_adc.c **** /*!
 217:../Firmware/GD32VF103_standard_peripheral/Source/gd32vf103_adc.c ****     \brief      enable the temperature sensor and Vrefint channel
 218:../Firmware/GD32VF103_standard_peripheral/Source/gd32vf103_adc.c ****     \param[in]  none
 219:../Firmware/GD32VF103_standard_peripheral/Source/gd32vf103_adc.c ****     \param[out] none
 220:../Firmware/GD32VF103_standard_peripheral/Source/gd32vf103_adc.c ****     \retval     none
 221:../Firmware/GD32VF103_standard_peripheral/Source/gd32vf103_adc.c **** */
 222:../Firmware/GD32VF103_standard_peripheral/Source/gd32vf103_adc.c **** void adc_tempsensor_vrefint_enable(void)
 223:../Firmware/GD32VF103_standard_peripheral/Source/gd32vf103_adc.c **** {
 351              		.loc 1 223 1 is_stmt 1
 352              		.cfi_startproc
 224:../Firmware/GD32VF103_standard_peripheral/Source/gd32vf103_adc.c ****     /* enable the temperature sensor and Vrefint channel */
 225:../Firmware/GD32VF103_standard_peripheral/Source/gd32vf103_adc.c ****     ADC_CTL1(ADC0) |= ADC_CTL1_TSVREN;
 353              		.loc 1 225 5
 354              		.loc 1 225 20 is_stmt 0
 355 0000 37270140 		li	a4,1073815552
 356 0004 83278740 		lw	a5,1032(a4)
 357 0008 B7068000 		li	a3,8388608
 358 000c D58F     		or	a5,a5,a3
 359 000e 2324F740 		sw	a5,1032(a4)
 226:../Firmware/GD32VF103_standard_peripheral/Source/gd32vf103_adc.c **** }
 360              		.loc 1 226 1
 361 0012 8280     		ret
 362              		.cfi_endproc
 363              	.LFE9:
 365              		.section	.text.adc_tempsensor_vrefint_disable,"ax",@progbits
 366              		.align	1
 367              		.globl	adc_tempsensor_vrefint_disable
 369              	adc_tempsensor_vrefint_disable:
 370              	.LFB10:
 227:../Firmware/GD32VF103_standard_peripheral/Source/gd32vf103_adc.c **** 
 228:../Firmware/GD32VF103_standard_peripheral/Source/gd32vf103_adc.c **** /*!
 229:../Firmware/GD32VF103_standard_peripheral/Source/gd32vf103_adc.c ****     \brief      disable the temperature sensor and Vrefint channel
 230:../Firmware/GD32VF103_standard_peripheral/Source/gd32vf103_adc.c ****     \param[in]  none
 231:../Firmware/GD32VF103_standard_peripheral/Source/gd32vf103_adc.c ****     \param[out] none
 232:../Firmware/GD32VF103_standard_peripheral/Source/gd32vf103_adc.c ****     \retval     none
 233:../Firmware/GD32VF103_standard_peripheral/Source/gd32vf103_adc.c **** */
 234:../Firmware/GD32VF103_standard_peripheral/Source/gd32vf103_adc.c **** void adc_tempsensor_vrefint_disable(void)
 235:../Firmware/GD32VF103_standard_peripheral/Source/gd32vf103_adc.c **** {
 371              		.loc 1 235 1 is_stmt 1
 372              		.cfi_startproc
GAS LISTING /tmp/ccOz1Rcm.s 			page 12


 236:../Firmware/GD32VF103_standard_peripheral/Source/gd32vf103_adc.c ****     /* disable the temperature sensor and Vrefint channel */
 237:../Firmware/GD32VF103_standard_peripheral/Source/gd32vf103_adc.c ****     ADC_CTL1(ADC0) &= ~ADC_CTL1_TSVREN;
 373              		.loc 1 237 5
 374              		.loc 1 237 20 is_stmt 0
 375 0000 B7260140 		li	a3,1073815552
 376 0004 83A78640 		lw	a5,1032(a3)
 377 0008 370780FF 		li	a4,-8388608
 378 000c 7D17     		addi	a4,a4,-1
 379 000e F98F     		and	a5,a5,a4
 380 0010 23A4F640 		sw	a5,1032(a3)
 238:../Firmware/GD32VF103_standard_peripheral/Source/gd32vf103_adc.c **** }
 381              		.loc 1 238 1
 382 0014 8280     		ret
 383              		.cfi_endproc
 384              	.LFE10:
 386              		.section	.text.adc_dma_mode_enable,"ax",@progbits
 387              		.align	1
 388              		.globl	adc_dma_mode_enable
 390              	adc_dma_mode_enable:
 391              	.LFB11:
 239:../Firmware/GD32VF103_standard_peripheral/Source/gd32vf103_adc.c **** 
 240:../Firmware/GD32VF103_standard_peripheral/Source/gd32vf103_adc.c **** /*!
 241:../Firmware/GD32VF103_standard_peripheral/Source/gd32vf103_adc.c ****     \brief      enable DMA request 
 242:../Firmware/GD32VF103_standard_peripheral/Source/gd32vf103_adc.c ****     \param[in]  adc_periph: ADCx, x=0,1
 243:../Firmware/GD32VF103_standard_peripheral/Source/gd32vf103_adc.c ****     \param[out] none
 244:../Firmware/GD32VF103_standard_peripheral/Source/gd32vf103_adc.c ****     \retval     none
 245:../Firmware/GD32VF103_standard_peripheral/Source/gd32vf103_adc.c **** */
 246:../Firmware/GD32VF103_standard_peripheral/Source/gd32vf103_adc.c **** void adc_dma_mode_enable(uint32_t adc_periph)
 247:../Firmware/GD32VF103_standard_peripheral/Source/gd32vf103_adc.c **** {
 392              		.loc 1 247 1 is_stmt 1
 393              		.cfi_startproc
 394              	.LVL19:
 248:../Firmware/GD32VF103_standard_peripheral/Source/gd32vf103_adc.c ****     /* enable DMA request */
 249:../Firmware/GD32VF103_standard_peripheral/Source/gd32vf103_adc.c ****     ADC_CTL1(adc_periph) |= (uint32_t)(ADC_CTL1_DMA);
 395              		.loc 1 249 5
 396              		.loc 1 249 26 is_stmt 0
 397 0000 1C45     		lw	a5,8(a0)
 398 0002 93E70710 		ori	a5,a5,256
 399 0006 1CC5     		sw	a5,8(a0)
 250:../Firmware/GD32VF103_standard_peripheral/Source/gd32vf103_adc.c **** }
 400              		.loc 1 250 1
 401 0008 8280     		ret
 402              		.cfi_endproc
 403              	.LFE11:
 405              		.section	.text.adc_dma_mode_disable,"ax",@progbits
 406              		.align	1
 407              		.globl	adc_dma_mode_disable
 409              	adc_dma_mode_disable:
 410              	.LFB12:
 251:../Firmware/GD32VF103_standard_peripheral/Source/gd32vf103_adc.c **** 
 252:../Firmware/GD32VF103_standard_peripheral/Source/gd32vf103_adc.c **** /*!
 253:../Firmware/GD32VF103_standard_peripheral/Source/gd32vf103_adc.c ****     \brief      disable DMA request 
 254:../Firmware/GD32VF103_standard_peripheral/Source/gd32vf103_adc.c ****     \param[in]  adc_periph: ADCx, x=0,1
 255:../Firmware/GD32VF103_standard_peripheral/Source/gd32vf103_adc.c ****     \param[out] none
 256:../Firmware/GD32VF103_standard_peripheral/Source/gd32vf103_adc.c ****     \retval     none
 257:../Firmware/GD32VF103_standard_peripheral/Source/gd32vf103_adc.c **** */
 258:../Firmware/GD32VF103_standard_peripheral/Source/gd32vf103_adc.c **** void adc_dma_mode_disable(uint32_t adc_periph)
GAS LISTING /tmp/ccOz1Rcm.s 			page 13


 259:../Firmware/GD32VF103_standard_peripheral/Source/gd32vf103_adc.c **** {
 411              		.loc 1 259 1 is_stmt 1
 412              		.cfi_startproc
 413              	.LVL20:
 260:../Firmware/GD32VF103_standard_peripheral/Source/gd32vf103_adc.c ****     /* disable DMA request */
 261:../Firmware/GD32VF103_standard_peripheral/Source/gd32vf103_adc.c ****     ADC_CTL1(adc_periph) &= ~((uint32_t)ADC_CTL1_DMA);
 414              		.loc 1 261 5
 415              		.loc 1 261 26 is_stmt 0
 416 0000 1C45     		lw	a5,8(a0)
 417 0002 93F7F7EF 		andi	a5,a5,-257
 418 0006 1CC5     		sw	a5,8(a0)
 262:../Firmware/GD32VF103_standard_peripheral/Source/gd32vf103_adc.c **** }
 419              		.loc 1 262 1
 420 0008 8280     		ret
 421              		.cfi_endproc
 422              	.LFE12:
 424              		.section	.text.adc_discontinuous_mode_config,"ax",@progbits
 425              		.align	1
 426              		.globl	adc_discontinuous_mode_config
 428              	adc_discontinuous_mode_config:
 429              	.LFB13:
 263:../Firmware/GD32VF103_standard_peripheral/Source/gd32vf103_adc.c **** 
 264:../Firmware/GD32VF103_standard_peripheral/Source/gd32vf103_adc.c **** /*!
 265:../Firmware/GD32VF103_standard_peripheral/Source/gd32vf103_adc.c ****     \brief      configure ADC discontinuous mode 
 266:../Firmware/GD32VF103_standard_peripheral/Source/gd32vf103_adc.c ****     \param[in]  adc_periph: ADCx, x=0,1
 267:../Firmware/GD32VF103_standard_peripheral/Source/gd32vf103_adc.c ****     \param[in]  adc_channel_group: select the channel group
 268:../Firmware/GD32VF103_standard_peripheral/Source/gd32vf103_adc.c ****                 only one parameter can be selected which is shown as below:
 269:../Firmware/GD32VF103_standard_peripheral/Source/gd32vf103_adc.c ****       \arg        ADC_REGULAR_CHANNEL: regular channel group
 270:../Firmware/GD32VF103_standard_peripheral/Source/gd32vf103_adc.c ****       \arg        ADC_INSERTED_CHANNEL: inserted channel group
 271:../Firmware/GD32VF103_standard_peripheral/Source/gd32vf103_adc.c ****       \arg        ADC_CHANNEL_DISCON_DISABLE: disable discontinuous mode of regular & inserted chan
 272:../Firmware/GD32VF103_standard_peripheral/Source/gd32vf103_adc.c ****     \param[in]  length: number of conversions in discontinuous mode,the number can be 1..8
 273:../Firmware/GD32VF103_standard_peripheral/Source/gd32vf103_adc.c ****                         for regular channel, the number has no effect for inserted channel
 274:../Firmware/GD32VF103_standard_peripheral/Source/gd32vf103_adc.c ****     \param[out] none
 275:../Firmware/GD32VF103_standard_peripheral/Source/gd32vf103_adc.c ****     \retval     none
 276:../Firmware/GD32VF103_standard_peripheral/Source/gd32vf103_adc.c **** */
 277:../Firmware/GD32VF103_standard_peripheral/Source/gd32vf103_adc.c **** void adc_discontinuous_mode_config(uint32_t adc_periph, uint8_t adc_channel_group, uint8_t length)
 278:../Firmware/GD32VF103_standard_peripheral/Source/gd32vf103_adc.c **** {
 430              		.loc 1 278 1 is_stmt 1
 431              		.cfi_startproc
 432              	.LVL21:
 279:../Firmware/GD32VF103_standard_peripheral/Source/gd32vf103_adc.c ****     /* disable discontinuous mode of regular & inserted channel */
 280:../Firmware/GD32VF103_standard_peripheral/Source/gd32vf103_adc.c ****     ADC_CTL0(adc_periph) &= ~((uint32_t)(ADC_CTL0_DISRC | ADC_CTL0_DISIC));
 433              		.loc 1 280 5
 434              		.loc 1 280 26 is_stmt 0
 435 0000 5C41     		lw	a5,4(a0)
 436 0002 7977     		li	a4,-8192
 437 0004 1307F77F 		addi	a4,a4,2047
 438 0008 F98F     		and	a5,a5,a4
 439 000a 5CC1     		sw	a5,4(a0)
 281:../Firmware/GD32VF103_standard_peripheral/Source/gd32vf103_adc.c ****     switch(adc_channel_group){
 440              		.loc 1 281 5 is_stmt 1
 441 000c 8547     		li	a5,1
 442 000e 638BF500 		beq	a1,a5,.L52
 443 0012 8947     		li	a5,2
 444 0014 6397F500 		bne	a1,a5,.L55
 282:../Firmware/GD32VF103_standard_peripheral/Source/gd32vf103_adc.c ****     case ADC_REGULAR_CHANNEL:
 283:../Firmware/GD32VF103_standard_peripheral/Source/gd32vf103_adc.c ****         /* config the number of conversions in discontinuous mode */
GAS LISTING /tmp/ccOz1Rcm.s 			page 14


 284:../Firmware/GD32VF103_standard_peripheral/Source/gd32vf103_adc.c ****         ADC_CTL0(adc_periph) &= ~((uint32_t)ADC_CTL0_DISNUM);
 285:../Firmware/GD32VF103_standard_peripheral/Source/gd32vf103_adc.c ****         ADC_CTL0(adc_periph) |= CTL0_DISNUM(((uint32_t)length - ADC_CHANNEL_LENGTH_SUBTRACT_ONE));
 286:../Firmware/GD32VF103_standard_peripheral/Source/gd32vf103_adc.c ****         /* enable regular channel group discontinuous mode */
 287:../Firmware/GD32VF103_standard_peripheral/Source/gd32vf103_adc.c ****         ADC_CTL0(adc_periph) |= (uint32_t)ADC_CTL0_DISRC;
 288:../Firmware/GD32VF103_standard_peripheral/Source/gd32vf103_adc.c ****         break;
 289:../Firmware/GD32VF103_standard_peripheral/Source/gd32vf103_adc.c ****     case ADC_INSERTED_CHANNEL:
 290:../Firmware/GD32VF103_standard_peripheral/Source/gd32vf103_adc.c ****         /* enable inserted channel group discontinuous mode */
 291:../Firmware/GD32VF103_standard_peripheral/Source/gd32vf103_adc.c ****         ADC_CTL0(adc_periph) |= (uint32_t)ADC_CTL0_DISIC;
 445              		.loc 1 291 9
 446              		.loc 1 291 30 is_stmt 0
 447 0018 5C41     		lw	a5,4(a0)
 448 001a 0567     		li	a4,4096
 449 001c D98F     		or	a5,a5,a4
 450 001e 5CC1     		sw	a5,4(a0)
 292:../Firmware/GD32VF103_standard_peripheral/Source/gd32vf103_adc.c ****         break;
 451              		.loc 1 292 9 is_stmt 1
 293:../Firmware/GD32VF103_standard_peripheral/Source/gd32vf103_adc.c ****     case ADC_CHANNEL_DISCON_DISABLE:
 294:../Firmware/GD32VF103_standard_peripheral/Source/gd32vf103_adc.c ****         /* disable discontinuous mode of regular & inserted channel */
 295:../Firmware/GD32VF103_standard_peripheral/Source/gd32vf103_adc.c ****     default:
 296:../Firmware/GD32VF103_standard_peripheral/Source/gd32vf103_adc.c ****         break;
 297:../Firmware/GD32VF103_standard_peripheral/Source/gd32vf103_adc.c ****     }
 298:../Firmware/GD32VF103_standard_peripheral/Source/gd32vf103_adc.c **** }
 452              		.loc 1 298 1 is_stmt 0
 453 0020 8280     		ret
 454              	.L55:
 455 0022 8280     		ret
 456              	.L52:
 284:../Firmware/GD32VF103_standard_peripheral/Source/gd32vf103_adc.c ****         ADC_CTL0(adc_periph) |= CTL0_DISNUM(((uint32_t)length - ADC_CHANNEL_LENGTH_SUBTRACT_ONE));
 457              		.loc 1 284 9 is_stmt 1
 284:../Firmware/GD32VF103_standard_peripheral/Source/gd32vf103_adc.c ****         ADC_CTL0(adc_periph) |= CTL0_DISNUM(((uint32_t)length - ADC_CHANNEL_LENGTH_SUBTRACT_ONE));
 458              		.loc 1 284 30 is_stmt 0
 459 0024 5C41     		lw	a5,4(a0)
 460 0026 4977     		li	a4,-57344
 461 0028 7D17     		addi	a4,a4,-1
 462 002a F98F     		and	a5,a5,a4
 463 002c 5CC1     		sw	a5,4(a0)
 285:../Firmware/GD32VF103_standard_peripheral/Source/gd32vf103_adc.c ****         /* enable regular channel group discontinuous mode */
 464              		.loc 1 285 9 is_stmt 1
 285:../Firmware/GD32VF103_standard_peripheral/Source/gd32vf103_adc.c ****         /* enable regular channel group discontinuous mode */
 465              		.loc 1 285 30 is_stmt 0
 466 002e 5C41     		lw	a5,4(a0)
 285:../Firmware/GD32VF103_standard_peripheral/Source/gd32vf103_adc.c ****         /* enable regular channel group discontinuous mode */
 467              		.loc 1 285 33
 468 0030 7D16     		addi	a2,a2,-1
 469              	.LVL22:
 470 0032 3967     		li	a4,57344
 471 0034 3606     		slli	a2,a2,13
 472 0036 798E     		and	a2,a2,a4
 285:../Firmware/GD32VF103_standard_peripheral/Source/gd32vf103_adc.c ****         /* enable regular channel group discontinuous mode */
 473              		.loc 1 285 30
 474 0038 5D8E     		or	a2,a2,a5
 475 003a 50C1     		sw	a2,4(a0)
 287:../Firmware/GD32VF103_standard_peripheral/Source/gd32vf103_adc.c ****         break;
 476              		.loc 1 287 9 is_stmt 1
 287:../Firmware/GD32VF103_standard_peripheral/Source/gd32vf103_adc.c ****         break;
 477              		.loc 1 287 30 is_stmt 0
 478 003c 5C41     		lw	a5,4(a0)
GAS LISTING /tmp/ccOz1Rcm.s 			page 15


 479 003e 0567     		li	a4,4096
 480 0040 13070780 		addi	a4,a4,-2048
 481 0044 D98F     		or	a5,a5,a4
 482 0046 5CC1     		sw	a5,4(a0)
 288:../Firmware/GD32VF103_standard_peripheral/Source/gd32vf103_adc.c ****     case ADC_INSERTED_CHANNEL:
 483              		.loc 1 288 9 is_stmt 1
 484 0048 8280     		ret
 485              		.cfi_endproc
 486              	.LFE13:
 488              		.section	.text.adc_channel_length_config,"ax",@progbits
 489              		.align	1
 490              		.globl	adc_channel_length_config
 492              	adc_channel_length_config:
 493              	.LFB14:
 299:../Firmware/GD32VF103_standard_peripheral/Source/gd32vf103_adc.c **** 
 300:../Firmware/GD32VF103_standard_peripheral/Source/gd32vf103_adc.c **** /*!
 301:../Firmware/GD32VF103_standard_peripheral/Source/gd32vf103_adc.c ****     \brief      configure the length of regular channel group or inserted channel group
 302:../Firmware/GD32VF103_standard_peripheral/Source/gd32vf103_adc.c ****     \param[in]  adc_periph: ADCx, x=0,1
 303:../Firmware/GD32VF103_standard_peripheral/Source/gd32vf103_adc.c ****     \param[in]  adc_channel_group: select the channel group
 304:../Firmware/GD32VF103_standard_peripheral/Source/gd32vf103_adc.c ****                 only one parameter can be selected which is shown as below:
 305:../Firmware/GD32VF103_standard_peripheral/Source/gd32vf103_adc.c ****       \arg        ADC_REGULAR_CHANNEL: regular channel group
 306:../Firmware/GD32VF103_standard_peripheral/Source/gd32vf103_adc.c ****       \arg        ADC_INSERTED_CHANNEL: inserted channel group
 307:../Firmware/GD32VF103_standard_peripheral/Source/gd32vf103_adc.c ****     \param[in]  length: the length of the channel
 308:../Firmware/GD32VF103_standard_peripheral/Source/gd32vf103_adc.c ****                         regular channel 1-16
 309:../Firmware/GD32VF103_standard_peripheral/Source/gd32vf103_adc.c ****                         inserted channel 1-4
 310:../Firmware/GD32VF103_standard_peripheral/Source/gd32vf103_adc.c ****     \param[out] none
 311:../Firmware/GD32VF103_standard_peripheral/Source/gd32vf103_adc.c ****     \retval     none
 312:../Firmware/GD32VF103_standard_peripheral/Source/gd32vf103_adc.c **** */
 313:../Firmware/GD32VF103_standard_peripheral/Source/gd32vf103_adc.c **** void adc_channel_length_config(uint32_t adc_periph, uint8_t adc_channel_group, uint32_t length)
 314:../Firmware/GD32VF103_standard_peripheral/Source/gd32vf103_adc.c **** {
 494              		.loc 1 314 1
 495              		.cfi_startproc
 496              	.LVL23:
 315:../Firmware/GD32VF103_standard_peripheral/Source/gd32vf103_adc.c ****     switch(adc_channel_group){
 497              		.loc 1 315 5
 498 0000 8547     		li	a5,1
 499 0002 6385F502 		beq	a1,a5,.L57
 500 0006 8947     		li	a5,2
 501 0008 6391F502 		bne	a1,a5,.L60
 316:../Firmware/GD32VF103_standard_peripheral/Source/gd32vf103_adc.c ****     case ADC_REGULAR_CHANNEL:
 317:../Firmware/GD32VF103_standard_peripheral/Source/gd32vf103_adc.c ****         /* configure the length of regular channel group */
 318:../Firmware/GD32VF103_standard_peripheral/Source/gd32vf103_adc.c ****         ADC_RSQ0(adc_periph) &= ~((uint32_t)ADC_RSQ0_RL);
 319:../Firmware/GD32VF103_standard_peripheral/Source/gd32vf103_adc.c ****         ADC_RSQ0(adc_periph) |= RSQ0_RL((uint32_t)(length-ADC_CHANNEL_LENGTH_SUBTRACT_ONE));
 320:../Firmware/GD32VF103_standard_peripheral/Source/gd32vf103_adc.c ****         break;
 321:../Firmware/GD32VF103_standard_peripheral/Source/gd32vf103_adc.c ****     case ADC_INSERTED_CHANNEL:
 322:../Firmware/GD32VF103_standard_peripheral/Source/gd32vf103_adc.c ****         /* configure the length of inserted channel group */
 323:../Firmware/GD32VF103_standard_peripheral/Source/gd32vf103_adc.c ****         ADC_ISQ(adc_periph) &= ~((uint32_t)ADC_ISQ_IL);
 502              		.loc 1 323 9
 503              		.loc 1 323 29 is_stmt 0
 504 000c 1C5D     		lw	a5,56(a0)
 505 000e 3707D0FF 		li	a4,-3145728
 506 0012 7D17     		addi	a4,a4,-1
 507 0014 F98F     		and	a5,a5,a4
 508 0016 1CDD     		sw	a5,56(a0)
 324:../Firmware/GD32VF103_standard_peripheral/Source/gd32vf103_adc.c ****         ADC_ISQ(adc_periph) |= ISQ_IL((uint32_t)(length-ADC_CHANNEL_LENGTH_SUBTRACT_ONE));
 509              		.loc 1 324 9 is_stmt 1
 510              		.loc 1 324 29 is_stmt 0
GAS LISTING /tmp/ccOz1Rcm.s 			page 16


 511 0018 1C5D     		lw	a5,56(a0)
 512              		.loc 1 324 32
 513 001a 7D16     		addi	a2,a2,-1
 514              	.LVL24:
 515 001c 5206     		slli	a2,a2,20
 516              	.LVL25:
 517 001e 37073000 		li	a4,3145728
 518 0022 798E     		and	a2,a2,a4
 519              		.loc 1 324 29
 520 0024 5D8E     		or	a2,a2,a5
 521 0026 10DD     		sw	a2,56(a0)
 325:../Firmware/GD32VF103_standard_peripheral/Source/gd32vf103_adc.c ****         break;
 522              		.loc 1 325 9 is_stmt 1
 326:../Firmware/GD32VF103_standard_peripheral/Source/gd32vf103_adc.c ****     default:
 327:../Firmware/GD32VF103_standard_peripheral/Source/gd32vf103_adc.c ****         break;
 328:../Firmware/GD32VF103_standard_peripheral/Source/gd32vf103_adc.c ****     }
 329:../Firmware/GD32VF103_standard_peripheral/Source/gd32vf103_adc.c **** }
 523              		.loc 1 329 1 is_stmt 0
 524 0028 8280     		ret
 525              	.LVL26:
 526              	.L60:
 527 002a 8280     		ret
 528              	.L57:
 318:../Firmware/GD32VF103_standard_peripheral/Source/gd32vf103_adc.c ****         ADC_RSQ0(adc_periph) |= RSQ0_RL((uint32_t)(length-ADC_CHANNEL_LENGTH_SUBTRACT_ONE));
 529              		.loc 1 318 9 is_stmt 1
 318:../Firmware/GD32VF103_standard_peripheral/Source/gd32vf103_adc.c ****         ADC_RSQ0(adc_periph) |= RSQ0_RL((uint32_t)(length-ADC_CHANNEL_LENGTH_SUBTRACT_ONE));
 530              		.loc 1 318 30 is_stmt 0
 531 002c 5C55     		lw	a5,44(a0)
 532 002e 370710FF 		li	a4,-15728640
 533 0032 7D17     		addi	a4,a4,-1
 534 0034 F98F     		and	a5,a5,a4
 535 0036 5CD5     		sw	a5,44(a0)
 319:../Firmware/GD32VF103_standard_peripheral/Source/gd32vf103_adc.c ****         break;
 536              		.loc 1 319 9 is_stmt 1
 319:../Firmware/GD32VF103_standard_peripheral/Source/gd32vf103_adc.c ****         break;
 537              		.loc 1 319 30 is_stmt 0
 538 0038 5C55     		lw	a5,44(a0)
 319:../Firmware/GD32VF103_standard_peripheral/Source/gd32vf103_adc.c ****         break;
 539              		.loc 1 319 33
 540 003a 7D16     		addi	a2,a2,-1
 541              	.LVL27:
 542 003c 5206     		slli	a2,a2,20
 543              	.LVL28:
 544 003e 3707F000 		li	a4,15728640
 545 0042 798E     		and	a2,a2,a4
 319:../Firmware/GD32VF103_standard_peripheral/Source/gd32vf103_adc.c ****         break;
 546              		.loc 1 319 30
 547 0044 5D8E     		or	a2,a2,a5
 548 0046 50D5     		sw	a2,44(a0)
 320:../Firmware/GD32VF103_standard_peripheral/Source/gd32vf103_adc.c ****     case ADC_INSERTED_CHANNEL:
 549              		.loc 1 320 9 is_stmt 1
 550 0048 8280     		ret
 551              		.cfi_endproc
 552              	.LFE14:
 554              		.section	.text.adc_regular_channel_config,"ax",@progbits
 555              		.align	1
 556              		.globl	adc_regular_channel_config
GAS LISTING /tmp/ccOz1Rcm.s 			page 17


 558              	adc_regular_channel_config:
 559              	.LFB15:
 330:../Firmware/GD32VF103_standard_peripheral/Source/gd32vf103_adc.c **** 
 331:../Firmware/GD32VF103_standard_peripheral/Source/gd32vf103_adc.c **** /*!
 332:../Firmware/GD32VF103_standard_peripheral/Source/gd32vf103_adc.c ****     \brief      configure ADC regular channel 
 333:../Firmware/GD32VF103_standard_peripheral/Source/gd32vf103_adc.c ****     \param[in]  adc_periph: ADCx, x=0,1
 334:../Firmware/GD32VF103_standard_peripheral/Source/gd32vf103_adc.c ****     \param[in]  rank: the regular group sequence rank,this parameter must be between 0 to 15
 335:../Firmware/GD32VF103_standard_peripheral/Source/gd32vf103_adc.c ****     \param[in]  adc_channel: the selected ADC channel
 336:../Firmware/GD32VF103_standard_peripheral/Source/gd32vf103_adc.c ****                 only one parameter can be selected which is shown as below:
 337:../Firmware/GD32VF103_standard_peripheral/Source/gd32vf103_adc.c ****       \arg        ADC_CHANNEL_x(x=0..17)(x=16 and x=17 are only for ADC0): ADC Channelx 
 338:../Firmware/GD32VF103_standard_peripheral/Source/gd32vf103_adc.c ****     \param[in]  sample_time: the sample time value
 339:../Firmware/GD32VF103_standard_peripheral/Source/gd32vf103_adc.c ****                 only one parameter can be selected which is shown as below:
 340:../Firmware/GD32VF103_standard_peripheral/Source/gd32vf103_adc.c ****       \arg        ADC_SAMPLETIME_1POINT5: 1.5 cycles
 341:../Firmware/GD32VF103_standard_peripheral/Source/gd32vf103_adc.c ****       \arg        ADC_SAMPLETIME_7POINT5: 7.5 cycles
 342:../Firmware/GD32VF103_standard_peripheral/Source/gd32vf103_adc.c ****       \arg        ADC_SAMPLETIME_13POINT5: 13.5 cycles
 343:../Firmware/GD32VF103_standard_peripheral/Source/gd32vf103_adc.c ****       \arg        ADC_SAMPLETIME_28POINT5: 28.5 cycles
 344:../Firmware/GD32VF103_standard_peripheral/Source/gd32vf103_adc.c ****       \arg        ADC_SAMPLETIME_41POINT5: 41.5 cycles
 345:../Firmware/GD32VF103_standard_peripheral/Source/gd32vf103_adc.c ****       \arg        ADC_SAMPLETIME_55POINT5: 55.5 cycles
 346:../Firmware/GD32VF103_standard_peripheral/Source/gd32vf103_adc.c ****       \arg        ADC_SAMPLETIME_71POINT5: 71.5 cycles
 347:../Firmware/GD32VF103_standard_peripheral/Source/gd32vf103_adc.c ****       \arg        ADC_SAMPLETIME_239POINT5: 239.5 cycles
 348:../Firmware/GD32VF103_standard_peripheral/Source/gd32vf103_adc.c ****     \param[out] none
 349:../Firmware/GD32VF103_standard_peripheral/Source/gd32vf103_adc.c ****     \retval     none
 350:../Firmware/GD32VF103_standard_peripheral/Source/gd32vf103_adc.c **** */
 351:../Firmware/GD32VF103_standard_peripheral/Source/gd32vf103_adc.c **** void adc_regular_channel_config(uint32_t adc_periph, uint8_t rank, uint8_t adc_channel, uint32_t sa
 352:../Firmware/GD32VF103_standard_peripheral/Source/gd32vf103_adc.c **** {
 560              		.loc 1 352 1
 561              		.cfi_startproc
 562              	.LVL29:
 353:../Firmware/GD32VF103_standard_peripheral/Source/gd32vf103_adc.c ****     uint32_t rsq,sampt;
 563              		.loc 1 353 5
 354:../Firmware/GD32VF103_standard_peripheral/Source/gd32vf103_adc.c ****     
 355:../Firmware/GD32VF103_standard_peripheral/Source/gd32vf103_adc.c ****     /* ADC regular sequence config */
 356:../Firmware/GD32VF103_standard_peripheral/Source/gd32vf103_adc.c ****     if(rank < ADC_REGULAR_CHANNEL_RANK_SIX){
 564              		.loc 1 356 5
 565              		.loc 1 356 7 is_stmt 0
 566 0000 9547     		li	a5,5
 567 0002 63E2B704 		bgtu	a1,a5,.L62
 357:../Firmware/GD32VF103_standard_peripheral/Source/gd32vf103_adc.c ****         /* the regular group sequence rank is smaller than six */
 358:../Firmware/GD32VF103_standard_peripheral/Source/gd32vf103_adc.c ****         rsq = ADC_RSQ2(adc_periph);
 568              		.loc 1 358 9 is_stmt 1
 359:../Firmware/GD32VF103_standard_peripheral/Source/gd32vf103_adc.c ****         rsq &=  ~((uint32_t)(ADC_RSQX_RSQN << (ADC_REGULAR_CHANNEL_RANK_LENGTH*rank)));
 569              		.loc 1 359 79 is_stmt 0
 570 0006 93972500 		slli	a5,a1,2
 571 000a BE95     		add	a1,a5,a1
 572              	.LVL30:
 358:../Firmware/GD32VF103_standard_peripheral/Source/gd32vf103_adc.c ****         rsq &=  ~((uint32_t)(ADC_RSQX_RSQN << (ADC_REGULAR_CHANNEL_RANK_LENGTH*rank)));
 573              		.loc 1 358 13
 574 000c 5859     		lw	a4,52(a0)
 575              	.LVL31:
 576              		.loc 1 359 9 is_stmt 1
 577              		.loc 1 359 19 is_stmt 0
 578 000e FD47     		li	a5,31
 579 0010 B397B700 		sll	a5,a5,a1
 580              		.loc 1 359 17
 581 0014 93C7F7FF 		not	a5,a5
 582              		.loc 1 359 13
 583 0018 F98F     		and	a5,a5,a4
GAS LISTING /tmp/ccOz1Rcm.s 			page 18


 584              	.LVL32:
 360:../Firmware/GD32VF103_standard_peripheral/Source/gd32vf103_adc.c ****         /* the channel number is written to these bits to select a channel as the nth conversion in
 361:../Firmware/GD32VF103_standard_peripheral/Source/gd32vf103_adc.c ****         rsq |= ((uint32_t)adc_channel << (ADC_REGULAR_CHANNEL_RANK_LENGTH*rank));
 585              		.loc 1 361 9 is_stmt 1
 586              		.loc 1 361 39 is_stmt 0
 587 001a B315B600 		sll	a1,a2,a1
 588              		.loc 1 361 13
 589 001e DD8D     		or	a1,a1,a5
 590              	.LVL33:
 362:../Firmware/GD32VF103_standard_peripheral/Source/gd32vf103_adc.c ****         ADC_RSQ2(adc_periph) = rsq;
 591              		.loc 1 362 9 is_stmt 1
 592              		.loc 1 362 30 is_stmt 0
 593 0020 4CD9     		sw	a1,52(a0)
 594              	.LVL34:
 595              	.L63:
 363:../Firmware/GD32VF103_standard_peripheral/Source/gd32vf103_adc.c ****     }else if(rank < ADC_REGULAR_CHANNEL_RANK_TWELVE){
 364:../Firmware/GD32VF103_standard_peripheral/Source/gd32vf103_adc.c ****         /* the regular group sequence rank is smaller than twelve */
 365:../Firmware/GD32VF103_standard_peripheral/Source/gd32vf103_adc.c ****         rsq = ADC_RSQ1(adc_periph);
 366:../Firmware/GD32VF103_standard_peripheral/Source/gd32vf103_adc.c ****         rsq &= ~((uint32_t)(ADC_RSQX_RSQN << (ADC_REGULAR_CHANNEL_RANK_LENGTH*(rank-ADC_REGULAR_CHA
 367:../Firmware/GD32VF103_standard_peripheral/Source/gd32vf103_adc.c ****         /* the channel number is written to these bits to select a channel as the nth conversion in
 368:../Firmware/GD32VF103_standard_peripheral/Source/gd32vf103_adc.c ****         rsq |= ((uint32_t)adc_channel << (ADC_REGULAR_CHANNEL_RANK_LENGTH*(rank-ADC_REGULAR_CHANNEL
 369:../Firmware/GD32VF103_standard_peripheral/Source/gd32vf103_adc.c ****         ADC_RSQ1(adc_periph) = rsq;
 370:../Firmware/GD32VF103_standard_peripheral/Source/gd32vf103_adc.c ****     }else if(rank < ADC_REGULAR_CHANNEL_RANK_SIXTEEN){
 371:../Firmware/GD32VF103_standard_peripheral/Source/gd32vf103_adc.c ****         /* the regular group sequence rank is smaller than sixteen */
 372:../Firmware/GD32VF103_standard_peripheral/Source/gd32vf103_adc.c ****         rsq = ADC_RSQ0(adc_periph);
 373:../Firmware/GD32VF103_standard_peripheral/Source/gd32vf103_adc.c ****         rsq &= ~((uint32_t)(ADC_RSQX_RSQN << (ADC_REGULAR_CHANNEL_RANK_LENGTH*(rank-ADC_REGULAR_CHA
 374:../Firmware/GD32VF103_standard_peripheral/Source/gd32vf103_adc.c ****         /* the channel number is written to these bits to select a channel as the nth conversion in
 375:../Firmware/GD32VF103_standard_peripheral/Source/gd32vf103_adc.c ****         rsq |= ((uint32_t)adc_channel << (ADC_REGULAR_CHANNEL_RANK_LENGTH*(rank-ADC_REGULAR_CHANNEL
 376:../Firmware/GD32VF103_standard_peripheral/Source/gd32vf103_adc.c ****         ADC_RSQ0(adc_periph) = rsq;
 377:../Firmware/GD32VF103_standard_peripheral/Source/gd32vf103_adc.c ****     }else{
 378:../Firmware/GD32VF103_standard_peripheral/Source/gd32vf103_adc.c ****     }
 596              		.loc 1 378 5 is_stmt 1
 379:../Firmware/GD32VF103_standard_peripheral/Source/gd32vf103_adc.c ****     
 380:../Firmware/GD32VF103_standard_peripheral/Source/gd32vf103_adc.c ****     /* ADC sampling time config */
 381:../Firmware/GD32VF103_standard_peripheral/Source/gd32vf103_adc.c ****     if(adc_channel < ADC_CHANNEL_SAMPLE_TEN){
 597              		.loc 1 381 5
 598              		.loc 1 381 7 is_stmt 0
 599 0022 A547     		li	a5,9
 600 0024 63E6C704 		bgtu	a2,a5,.L65
 601              	.L67:
 382:../Firmware/GD32VF103_standard_peripheral/Source/gd32vf103_adc.c ****         /* the regular group sequence rank is smaller than ten */
 383:../Firmware/GD32VF103_standard_peripheral/Source/gd32vf103_adc.c ****         sampt = ADC_SAMPT1(adc_periph);
 602              		.loc 1 383 9 is_stmt 1
 384:../Firmware/GD32VF103_standard_peripheral/Source/gd32vf103_adc.c ****         sampt &= ~((uint32_t)(ADC_SAMPTX_SPTN << (ADC_CHANNEL_SAMPLE_LENGTH*adc_channel)));
 603              		.loc 1 384 76 is_stmt 0
 604 0028 93171600 		slli	a5,a2,1
 605 002c 3E96     		add	a2,a5,a2
 606              	.LVL35:
 383:../Firmware/GD32VF103_standard_peripheral/Source/gd32vf103_adc.c ****         sampt &= ~((uint32_t)(ADC_SAMPTX_SPTN << (ADC_CHANNEL_SAMPLE_LENGTH*adc_channel)));
 607              		.loc 1 383 15
 608 002e 1849     		lw	a4,16(a0)
 609              	.LVL36:
 610              		.loc 1 384 9 is_stmt 1
 611              		.loc 1 384 20 is_stmt 0
 612 0030 9D47     		li	a5,7
 613 0032 B397C700 		sll	a5,a5,a2
 614              		.loc 1 384 18
GAS LISTING /tmp/ccOz1Rcm.s 			page 19


 615 0036 93C7F7FF 		not	a5,a5
 616              		.loc 1 384 15
 617 003a F98F     		and	a5,a5,a4
 618              	.LVL37:
 385:../Firmware/GD32VF103_standard_peripheral/Source/gd32vf103_adc.c ****         /* channel sample time set*/
 386:../Firmware/GD32VF103_standard_peripheral/Source/gd32vf103_adc.c ****         sampt |= (uint32_t)(sample_time << (ADC_CHANNEL_SAMPLE_LENGTH*adc_channel));
 619              		.loc 1 386 9 is_stmt 1
 620              		.loc 1 386 41 is_stmt 0
 621 003c 3396C600 		sll	a2,a3,a2
 622              		.loc 1 386 15
 623 0040 5D8E     		or	a2,a2,a5
 624              	.LVL38:
 387:../Firmware/GD32VF103_standard_peripheral/Source/gd32vf103_adc.c ****         ADC_SAMPT1(adc_periph) = sampt;
 625              		.loc 1 387 9 is_stmt 1
 626              		.loc 1 387 32 is_stmt 0
 627 0042 10C9     		sw	a2,16(a0)
 628 0044 8280     		ret
 629              	.LVL39:
 630              	.L62:
 363:../Firmware/GD32VF103_standard_peripheral/Source/gd32vf103_adc.c ****         /* the regular group sequence rank is smaller than twelve */
 631              		.loc 1 363 11 is_stmt 1
 363:../Firmware/GD32VF103_standard_peripheral/Source/gd32vf103_adc.c ****         /* the regular group sequence rank is smaller than twelve */
 632              		.loc 1 363 13 is_stmt 0
 633 0046 AD47     		li	a5,11
 634 0048 63E7B704 		bgtu	a1,a5,.L64
 365:../Firmware/GD32VF103_standard_peripheral/Source/gd32vf103_adc.c ****         rsq &= ~((uint32_t)(ADC_RSQX_RSQN << (ADC_REGULAR_CHANNEL_RANK_LENGTH*(rank-ADC_REGULAR_CHA
 635              		.loc 1 365 9 is_stmt 1
 366:../Firmware/GD32VF103_standard_peripheral/Source/gd32vf103_adc.c ****         /* the channel number is written to these bits to select a channel as the nth conversion in
 636              		.loc 1 366 84 is_stmt 0
 637 004c E915     		addi	a1,a1,-6
 638              	.LVL40:
 366:../Firmware/GD32VF103_standard_peripheral/Source/gd32vf103_adc.c ****         /* the channel number is written to these bits to select a channel as the nth conversion in
 639              		.loc 1 366 78
 640 004e 93972500 		slli	a5,a1,2
 641 0052 BE95     		add	a1,a5,a1
 365:../Firmware/GD32VF103_standard_peripheral/Source/gd32vf103_adc.c ****         rsq &= ~((uint32_t)(ADC_RSQX_RSQN << (ADC_REGULAR_CHANNEL_RANK_LENGTH*(rank-ADC_REGULAR_CHA
 642              		.loc 1 365 13
 643 0054 1859     		lw	a4,48(a0)
 644              	.LVL41:
 366:../Firmware/GD32VF103_standard_peripheral/Source/gd32vf103_adc.c ****         /* the channel number is written to these bits to select a channel as the nth conversion in
 645              		.loc 1 366 9 is_stmt 1
 366:../Firmware/GD32VF103_standard_peripheral/Source/gd32vf103_adc.c ****         /* the channel number is written to these bits to select a channel as the nth conversion in
 646              		.loc 1 366 18 is_stmt 0
 647 0056 FD47     		li	a5,31
 648 0058 B397B700 		sll	a5,a5,a1
 366:../Firmware/GD32VF103_standard_peripheral/Source/gd32vf103_adc.c ****         /* the channel number is written to these bits to select a channel as the nth conversion in
 649              		.loc 1 366 16
 650 005c 93C7F7FF 		not	a5,a5
 366:../Firmware/GD32VF103_standard_peripheral/Source/gd32vf103_adc.c ****         /* the channel number is written to these bits to select a channel as the nth conversion in
 651              		.loc 1 366 13
 652 0060 F98F     		and	a5,a5,a4
 653              	.LVL42:
 368:../Firmware/GD32VF103_standard_peripheral/Source/gd32vf103_adc.c ****         ADC_RSQ1(adc_periph) = rsq;
 654              		.loc 1 368 9 is_stmt 1
 368:../Firmware/GD32VF103_standard_peripheral/Source/gd32vf103_adc.c ****         ADC_RSQ1(adc_periph) = rsq;
 655              		.loc 1 368 39 is_stmt 0
 656 0062 B315B600 		sll	a1,a2,a1
GAS LISTING /tmp/ccOz1Rcm.s 			page 20


 368:../Firmware/GD32VF103_standard_peripheral/Source/gd32vf103_adc.c ****         ADC_RSQ1(adc_periph) = rsq;
 657              		.loc 1 368 13
 658 0066 DD8D     		or	a1,a1,a5
 659              	.LVL43:
 369:../Firmware/GD32VF103_standard_peripheral/Source/gd32vf103_adc.c ****     }else if(rank < ADC_REGULAR_CHANNEL_RANK_SIXTEEN){
 660              		.loc 1 369 9 is_stmt 1
 369:../Firmware/GD32VF103_standard_peripheral/Source/gd32vf103_adc.c ****     }else if(rank < ADC_REGULAR_CHANNEL_RANK_SIXTEEN){
 661              		.loc 1 369 30 is_stmt 0
 662 0068 0CD9     		sw	a1,48(a0)
 378:../Firmware/GD32VF103_standard_peripheral/Source/gd32vf103_adc.c ****     
 663              		.loc 1 378 5 is_stmt 1
 381:../Firmware/GD32VF103_standard_peripheral/Source/gd32vf103_adc.c ****         /* the regular group sequence rank is smaller than ten */
 664              		.loc 1 381 5
 381:../Firmware/GD32VF103_standard_peripheral/Source/gd32vf103_adc.c ****         /* the regular group sequence rank is smaller than ten */
 665              		.loc 1 381 7 is_stmt 0
 666 006a A547     		li	a5,9
 667 006c E3FEC7FA 		bleu	a2,a5,.L67
 668              	.LVL44:
 669              	.L65:
 388:../Firmware/GD32VF103_standard_peripheral/Source/gd32vf103_adc.c ****     }else if(adc_channel < ADC_CHANNEL_SAMPLE_EIGHTEEN){
 670              		.loc 1 388 11 is_stmt 1
 671              		.loc 1 388 13 is_stmt 0
 672 0070 C547     		li	a5,17
 673 0072 63E1C702 		bgtu	a2,a5,.L61
 389:../Firmware/GD32VF103_standard_peripheral/Source/gd32vf103_adc.c ****         /* the regular group sequence rank is smaller than eighteen */
 390:../Firmware/GD32VF103_standard_peripheral/Source/gd32vf103_adc.c ****         sampt = ADC_SAMPT0(adc_periph);
 674              		.loc 1 390 9 is_stmt 1
 391:../Firmware/GD32VF103_standard_peripheral/Source/gd32vf103_adc.c ****         sampt &= ~((uint32_t)(ADC_SAMPTX_SPTN << (ADC_CHANNEL_SAMPLE_LENGTH*(adc_channel-ADC_CHANNE
 675              		.loc 1 391 89 is_stmt 0
 676 0076 5916     		addi	a2,a2,-10
 677              	.LVL45:
 678              		.loc 1 391 76
 679 0078 13171600 		slli	a4,a2,1
 390:../Firmware/GD32VF103_standard_peripheral/Source/gd32vf103_adc.c ****         sampt &= ~((uint32_t)(ADC_SAMPTX_SPTN << (ADC_CHANNEL_SAMPLE_LENGTH*(adc_channel-ADC_CHANNE
 680              		.loc 1 390 15
 681 007c 4C45     		lw	a1,12(a0)
 682              	.LVL46:
 683              		.loc 1 391 9 is_stmt 1
 684              		.loc 1 391 76 is_stmt 0
 685 007e 3A96     		add	a2,a4,a2
 686              		.loc 1 391 20
 687 0080 9D47     		li	a5,7
 688 0082 B397C700 		sll	a5,a5,a2
 689              		.loc 1 391 18
 690 0086 93C7F7FF 		not	a5,a5
 691              		.loc 1 391 15
 692 008a ED8F     		and	a5,a5,a1
 693              	.LVL47:
 392:../Firmware/GD32VF103_standard_peripheral/Source/gd32vf103_adc.c ****         /* channel sample time set*/
 393:../Firmware/GD32VF103_standard_peripheral/Source/gd32vf103_adc.c ****         sampt |= (uint32_t)(sample_time << (ADC_CHANNEL_SAMPLE_LENGTH*(adc_channel-ADC_CHANNEL_SAMP
 694              		.loc 1 393 9 is_stmt 1
 695              		.loc 1 393 41 is_stmt 0
 696 008c B396C600 		sll	a3,a3,a2
 697              	.LVL48:
 698              		.loc 1 393 15
 699 0090 DD8E     		or	a3,a3,a5
 700              	.LVL49:
GAS LISTING /tmp/ccOz1Rcm.s 			page 21


 394:../Firmware/GD32VF103_standard_peripheral/Source/gd32vf103_adc.c ****         ADC_SAMPT0(adc_periph) = sampt;
 701              		.loc 1 394 9 is_stmt 1
 702              		.loc 1 394 32 is_stmt 0
 703 0092 54C5     		sw	a3,12(a0)
 395:../Firmware/GD32VF103_standard_peripheral/Source/gd32vf103_adc.c ****     }else{
 396:../Firmware/GD32VF103_standard_peripheral/Source/gd32vf103_adc.c ****     }
 704              		.loc 1 396 5 is_stmt 1
 705              	.LVL50:
 706              	.L61:
 397:../Firmware/GD32VF103_standard_peripheral/Source/gd32vf103_adc.c **** }
 707              		.loc 1 397 1 is_stmt 0
 708 0094 8280     		ret
 709              	.LVL51:
 710              	.L64:
 370:../Firmware/GD32VF103_standard_peripheral/Source/gd32vf103_adc.c ****         /* the regular group sequence rank is smaller than sixteen */
 711              		.loc 1 370 11 is_stmt 1
 370:../Firmware/GD32VF103_standard_peripheral/Source/gd32vf103_adc.c ****         /* the regular group sequence rank is smaller than sixteen */
 712              		.loc 1 370 13 is_stmt 0
 713 0096 BD47     		li	a5,15
 714 0098 E3E5B7F8 		bgtu	a1,a5,.L63
 372:../Firmware/GD32VF103_standard_peripheral/Source/gd32vf103_adc.c ****         rsq &= ~((uint32_t)(ADC_RSQX_RSQN << (ADC_REGULAR_CHANNEL_RANK_LENGTH*(rank-ADC_REGULAR_CHA
 715              		.loc 1 372 9 is_stmt 1
 373:../Firmware/GD32VF103_standard_peripheral/Source/gd32vf103_adc.c ****         /* the channel number is written to these bits to select a channel as the nth conversion in
 716              		.loc 1 373 84 is_stmt 0
 717 009c D115     		addi	a1,a1,-12
 718              	.LVL52:
 373:../Firmware/GD32VF103_standard_peripheral/Source/gd32vf103_adc.c ****         /* the channel number is written to these bits to select a channel as the nth conversion in
 719              		.loc 1 373 78
 720 009e 93972500 		slli	a5,a1,2
 721 00a2 BE95     		add	a1,a5,a1
 372:../Firmware/GD32VF103_standard_peripheral/Source/gd32vf103_adc.c ****         rsq &= ~((uint32_t)(ADC_RSQX_RSQN << (ADC_REGULAR_CHANNEL_RANK_LENGTH*(rank-ADC_REGULAR_CHA
 722              		.loc 1 372 13
 723 00a4 5855     		lw	a4,44(a0)
 724              	.LVL53:
 373:../Firmware/GD32VF103_standard_peripheral/Source/gd32vf103_adc.c ****         /* the channel number is written to these bits to select a channel as the nth conversion in
 725              		.loc 1 373 9 is_stmt 1
 373:../Firmware/GD32VF103_standard_peripheral/Source/gd32vf103_adc.c ****         /* the channel number is written to these bits to select a channel as the nth conversion in
 726              		.loc 1 373 18 is_stmt 0
 727 00a6 FD47     		li	a5,31
 728 00a8 B397B700 		sll	a5,a5,a1
 373:../Firmware/GD32VF103_standard_peripheral/Source/gd32vf103_adc.c ****         /* the channel number is written to these bits to select a channel as the nth conversion in
 729              		.loc 1 373 16
 730 00ac 93C7F7FF 		not	a5,a5
 373:../Firmware/GD32VF103_standard_peripheral/Source/gd32vf103_adc.c ****         /* the channel number is written to these bits to select a channel as the nth conversion in
 731              		.loc 1 373 13
 732 00b0 F98F     		and	a5,a5,a4
 733              	.LVL54:
 375:../Firmware/GD32VF103_standard_peripheral/Source/gd32vf103_adc.c ****         ADC_RSQ0(adc_periph) = rsq;
 734              		.loc 1 375 9 is_stmt 1
 375:../Firmware/GD32VF103_standard_peripheral/Source/gd32vf103_adc.c ****         ADC_RSQ0(adc_periph) = rsq;
 735              		.loc 1 375 39 is_stmt 0
 736 00b2 B315B600 		sll	a1,a2,a1
 375:../Firmware/GD32VF103_standard_peripheral/Source/gd32vf103_adc.c ****         ADC_RSQ0(adc_periph) = rsq;
 737              		.loc 1 375 13
 738 00b6 DD8D     		or	a1,a1,a5
 739              	.LVL55:
 376:../Firmware/GD32VF103_standard_peripheral/Source/gd32vf103_adc.c ****     }else{
GAS LISTING /tmp/ccOz1Rcm.s 			page 22


 740              		.loc 1 376 9 is_stmt 1
 376:../Firmware/GD32VF103_standard_peripheral/Source/gd32vf103_adc.c ****     }else{
 741              		.loc 1 376 30 is_stmt 0
 742 00b8 4CD5     		sw	a1,44(a0)
 743 00ba A5B7     		j	.L63
 744              		.cfi_endproc
 745              	.LFE15:
 747              		.section	.text.adc_inserted_channel_config,"ax",@progbits
 748              		.align	1
 749              		.globl	adc_inserted_channel_config
 751              	adc_inserted_channel_config:
 752              	.LFB16:
 398:../Firmware/GD32VF103_standard_peripheral/Source/gd32vf103_adc.c **** 
 399:../Firmware/GD32VF103_standard_peripheral/Source/gd32vf103_adc.c **** /*!
 400:../Firmware/GD32VF103_standard_peripheral/Source/gd32vf103_adc.c ****     \brief      configure ADC inserted channel 
 401:../Firmware/GD32VF103_standard_peripheral/Source/gd32vf103_adc.c ****     \param[in]  adc_periph: ADCx, x=0,1
 402:../Firmware/GD32VF103_standard_peripheral/Source/gd32vf103_adc.c ****     \param[in]  rank: the inserted group sequencer rank,this parameter must be between 0 to 3
 403:../Firmware/GD32VF103_standard_peripheral/Source/gd32vf103_adc.c ****     \param[in]  adc_channel: the selected ADC channel
 404:../Firmware/GD32VF103_standard_peripheral/Source/gd32vf103_adc.c ****                 only one parameter can be selected which is shown as below:
 405:../Firmware/GD32VF103_standard_peripheral/Source/gd32vf103_adc.c ****       \arg        ADC_CHANNEL_x(x=0..17)(x=16 and x=17 are only for ADC0): ADC Channelx
 406:../Firmware/GD32VF103_standard_peripheral/Source/gd32vf103_adc.c ****     \param[in]  sample_time: The sample time value
 407:../Firmware/GD32VF103_standard_peripheral/Source/gd32vf103_adc.c ****                 only one parameter can be selected which is shown as below:
 408:../Firmware/GD32VF103_standard_peripheral/Source/gd32vf103_adc.c ****       \arg        ADC_SAMPLETIME_1POINT5: 1.5 cycles
 409:../Firmware/GD32VF103_standard_peripheral/Source/gd32vf103_adc.c ****       \arg        ADC_SAMPLETIME_7POINT5: 7.5 cycles
 410:../Firmware/GD32VF103_standard_peripheral/Source/gd32vf103_adc.c ****       \arg        ADC_SAMPLETIME_13POINT5: 13.5 cycles
 411:../Firmware/GD32VF103_standard_peripheral/Source/gd32vf103_adc.c ****       \arg        ADC_SAMPLETIME_28POINT5: 28.5 cycles
 412:../Firmware/GD32VF103_standard_peripheral/Source/gd32vf103_adc.c ****       \arg        ADC_SAMPLETIME_41POINT5: 41.5 cycles
 413:../Firmware/GD32VF103_standard_peripheral/Source/gd32vf103_adc.c ****       \arg        ADC_SAMPLETIME_55POINT5: 55.5 cycles
 414:../Firmware/GD32VF103_standard_peripheral/Source/gd32vf103_adc.c ****       \arg        ADC_SAMPLETIME_71POINT5: 71.5 cycles
 415:../Firmware/GD32VF103_standard_peripheral/Source/gd32vf103_adc.c ****       \arg        ADC_SAMPLETIME_239POINT5: 239.5 cycles
 416:../Firmware/GD32VF103_standard_peripheral/Source/gd32vf103_adc.c ****     \param[out] none
 417:../Firmware/GD32VF103_standard_peripheral/Source/gd32vf103_adc.c ****     \retval     none
 418:../Firmware/GD32VF103_standard_peripheral/Source/gd32vf103_adc.c **** */
 419:../Firmware/GD32VF103_standard_peripheral/Source/gd32vf103_adc.c **** void adc_inserted_channel_config(uint32_t adc_periph, uint8_t rank, uint8_t adc_channel, uint32_t s
 420:../Firmware/GD32VF103_standard_peripheral/Source/gd32vf103_adc.c **** {
 753              		.loc 1 420 1 is_stmt 1
 754              		.cfi_startproc
 755              	.LVL56:
 421:../Firmware/GD32VF103_standard_peripheral/Source/gd32vf103_adc.c ****     uint8_t inserted_length;
 756              		.loc 1 421 5
 422:../Firmware/GD32VF103_standard_peripheral/Source/gd32vf103_adc.c ****     uint32_t isq,sampt;
 757              		.loc 1 422 5
 423:../Firmware/GD32VF103_standard_peripheral/Source/gd32vf103_adc.c ****     /* get inserted channel group length */
 424:../Firmware/GD32VF103_standard_peripheral/Source/gd32vf103_adc.c ****     inserted_length = (uint8_t)GET_BITS(ADC_ISQ(adc_periph) , 20U , 21U);
 758              		.loc 1 424 5
 759              		.loc 1 424 32 is_stmt 0
 760 0000 185D     		lw	a4,56(a0)
 761              	.LVL57:
 425:../Firmware/GD32VF103_standard_peripheral/Source/gd32vf103_adc.c ****     /* the channel number is written to these bits to select a channel as the nth conversion in the
 426:../Firmware/GD32VF103_standard_peripheral/Source/gd32vf103_adc.c ****     isq = ADC_ISQ(adc_periph);
 762              		.loc 1 426 5 is_stmt 1
 763              		.loc 1 426 9 is_stmt 0
 764 0002 03288503 		lw	a6,56(a0)
 765              	.LVL58:
 427:../Firmware/GD32VF103_standard_peripheral/Source/gd32vf103_adc.c ****     isq &= ~((uint32_t)(ADC_ISQ_ISQN << (ADC_INSERTED_CHANNEL_SHIFT_LENGTH-(inserted_length-rank)*A
 766              		.loc 1 427 5 is_stmt 1
 424:../Firmware/GD32VF103_standard_peripheral/Source/gd32vf103_adc.c ****     /* the channel number is written to these bits to select a channel as the nth conversion in the
GAS LISTING /tmp/ccOz1Rcm.s 			page 23


 767              		.loc 1 424 32 is_stmt 0
 768 0006 5183     		srli	a4,a4,20
 769              	.LVL59:
 770              		.loc 1 427 92
 771 0008 93773700 		andi	a5,a4,3
 772 000c B385B740 		sub	a1,a5,a1
 773              	.LVL60:
 774              		.loc 1 427 98
 775 0010 93972500 		slli	a5,a1,2
 776 0014 AE97     		add	a5,a5,a1
 777 0016 B307F040 		neg	a5,a5
 778              		.loc 1 427 75
 779 001a BD07     		addi	a5,a5,15
 780              		.loc 1 427 14
 781 001c 7D47     		li	a4,31
 782 001e 3317F700 		sll	a4,a4,a5
 783              		.loc 1 427 12
 784 0022 1347F7FF 		not	a4,a4
 785              		.loc 1 427 9
 786 0026 33770701 		and	a4,a4,a6
 787              	.LVL61:
 428:../Firmware/GD32VF103_standard_peripheral/Source/gd32vf103_adc.c ****     isq |= ((uint32_t)adc_channel << (ADC_INSERTED_CHANNEL_SHIFT_LENGTH-(inserted_length-rank)*ADC_
 788              		.loc 1 428 5 is_stmt 1
 789              		.loc 1 428 35 is_stmt 0
 790 002a B317F600 		sll	a5,a2,a5
 791              		.loc 1 428 9
 792 002e D98F     		or	a5,a5,a4
 793              	.LVL62:
 429:../Firmware/GD32VF103_standard_peripheral/Source/gd32vf103_adc.c ****     ADC_ISQ(adc_periph) = isq;
 794              		.loc 1 429 5 is_stmt 1
 795              		.loc 1 429 25 is_stmt 0
 796 0030 1CDD     		sw	a5,56(a0)
 430:../Firmware/GD32VF103_standard_peripheral/Source/gd32vf103_adc.c **** 
 431:../Firmware/GD32VF103_standard_peripheral/Source/gd32vf103_adc.c ****     /* ADC sampling time config */  
 432:../Firmware/GD32VF103_standard_peripheral/Source/gd32vf103_adc.c ****     if(adc_channel < ADC_CHANNEL_SAMPLE_TEN){
 797              		.loc 1 432 5 is_stmt 1
 798              		.loc 1 432 7 is_stmt 0
 799 0032 A547     		li	a5,9
 800              	.LVL63:
 801 0034 63E1C702 		bgtu	a2,a5,.L69
 433:../Firmware/GD32VF103_standard_peripheral/Source/gd32vf103_adc.c ****         /* the inserted group sequence rank is smaller than ten */
 434:../Firmware/GD32VF103_standard_peripheral/Source/gd32vf103_adc.c ****         sampt = ADC_SAMPT1(adc_periph);
 802              		.loc 1 434 9 is_stmt 1
 435:../Firmware/GD32VF103_standard_peripheral/Source/gd32vf103_adc.c ****         sampt &= ~((uint32_t)(ADC_SAMPTX_SPTN << (ADC_CHANNEL_SAMPLE_LENGTH*adc_channel)));
 803              		.loc 1 435 76 is_stmt 0
 804 0038 13171600 		slli	a4,a2,1
 434:../Firmware/GD32VF103_standard_peripheral/Source/gd32vf103_adc.c ****         sampt &= ~((uint32_t)(ADC_SAMPTX_SPTN << (ADC_CHANNEL_SAMPLE_LENGTH*adc_channel)));
 805              		.loc 1 434 15
 806 003c 0C49     		lw	a1,16(a0)
 807              	.LVL64:
 808              		.loc 1 435 9 is_stmt 1
 809              		.loc 1 435 76 is_stmt 0
 810 003e 3A96     		add	a2,a4,a2
 811              	.LVL65:
 812              		.loc 1 435 20
 813 0040 9D47     		li	a5,7
 814 0042 B397C700 		sll	a5,a5,a2
GAS LISTING /tmp/ccOz1Rcm.s 			page 24


 815              		.loc 1 435 18
 816 0046 93C7F7FF 		not	a5,a5
 817              		.loc 1 435 15
 818 004a ED8F     		and	a5,a5,a1
 819              	.LVL66:
 436:../Firmware/GD32VF103_standard_peripheral/Source/gd32vf103_adc.c ****         /* channel sample time set*/
 437:../Firmware/GD32VF103_standard_peripheral/Source/gd32vf103_adc.c ****         sampt |= (uint32_t) sample_time << (ADC_CHANNEL_SAMPLE_LENGTH*adc_channel);
 820              		.loc 1 437 9 is_stmt 1
 821              		.loc 1 437 41 is_stmt 0
 822 004c B396C600 		sll	a3,a3,a2
 823              	.LVL67:
 824              		.loc 1 437 15
 825 0050 DD8E     		or	a3,a3,a5
 826              	.LVL68:
 438:../Firmware/GD32VF103_standard_peripheral/Source/gd32vf103_adc.c ****         ADC_SAMPT1(adc_periph) = sampt;
 827              		.loc 1 438 9 is_stmt 1
 828              		.loc 1 438 32 is_stmt 0
 829 0052 14C9     		sw	a3,16(a0)
 830              	.LVL69:
 831 0054 8280     		ret
 832              	.LVL70:
 833              	.L69:
 439:../Firmware/GD32VF103_standard_peripheral/Source/gd32vf103_adc.c ****     }else if(adc_channel < ADC_CHANNEL_SAMPLE_EIGHTEEN){
 834              		.loc 1 439 11 is_stmt 1
 835              		.loc 1 439 13 is_stmt 0
 836 0056 C547     		li	a5,17
 837 0058 63E1C702 		bgtu	a2,a5,.L68
 440:../Firmware/GD32VF103_standard_peripheral/Source/gd32vf103_adc.c ****         /* the inserted group sequence rank is smaller than eighteen */
 441:../Firmware/GD32VF103_standard_peripheral/Source/gd32vf103_adc.c ****         sampt = ADC_SAMPT0(adc_periph);
 838              		.loc 1 441 9 is_stmt 1
 442:../Firmware/GD32VF103_standard_peripheral/Source/gd32vf103_adc.c ****         sampt &= ~((uint32_t)(ADC_SAMPTX_SPTN << (ADC_CHANNEL_SAMPLE_LENGTH*(adc_channel-ADC_CHANNE
 839              		.loc 1 442 89 is_stmt 0
 840 005c 5916     		addi	a2,a2,-10
 841              	.LVL71:
 842              		.loc 1 442 76
 843 005e 13171600 		slli	a4,a2,1
 441:../Firmware/GD32VF103_standard_peripheral/Source/gd32vf103_adc.c ****         sampt &= ~((uint32_t)(ADC_SAMPTX_SPTN << (ADC_CHANNEL_SAMPLE_LENGTH*(adc_channel-ADC_CHANNE
 844              		.loc 1 441 15
 845 0062 4C45     		lw	a1,12(a0)
 846              	.LVL72:
 847              		.loc 1 442 9 is_stmt 1
 848              		.loc 1 442 76 is_stmt 0
 849 0064 3A96     		add	a2,a4,a2
 850              		.loc 1 442 20
 851 0066 9D47     		li	a5,7
 852 0068 B397C700 		sll	a5,a5,a2
 853              		.loc 1 442 18
 854 006c 93C7F7FF 		not	a5,a5
 855              		.loc 1 442 15
 856 0070 ED8F     		and	a5,a5,a1
 857              	.LVL73:
 443:../Firmware/GD32VF103_standard_peripheral/Source/gd32vf103_adc.c ****         /* channel sample time set*/
 444:../Firmware/GD32VF103_standard_peripheral/Source/gd32vf103_adc.c ****         sampt |= ((uint32_t)sample_time << (ADC_CHANNEL_SAMPLE_LENGTH*(adc_channel-ADC_CHANNEL_SAMP
 858              		.loc 1 444 9 is_stmt 1
 859              		.loc 1 444 41 is_stmt 0
 860 0072 B396C600 		sll	a3,a3,a2
 861              	.LVL74:
GAS LISTING /tmp/ccOz1Rcm.s 			page 25


 862              		.loc 1 444 15
 863 0076 DD8E     		or	a3,a3,a5
 864              	.LVL75:
 445:../Firmware/GD32VF103_standard_peripheral/Source/gd32vf103_adc.c ****         ADC_SAMPT0(adc_periph) = sampt;
 865              		.loc 1 445 9 is_stmt 1
 866              		.loc 1 445 32 is_stmt 0
 867 0078 54C5     		sw	a3,12(a0)
 868              	.LVL76:
 446:../Firmware/GD32VF103_standard_peripheral/Source/gd32vf103_adc.c ****     }else{
 447:../Firmware/GD32VF103_standard_peripheral/Source/gd32vf103_adc.c ****     }
 869              		.loc 1 447 5 is_stmt 1
 870              	.L68:
 448:../Firmware/GD32VF103_standard_peripheral/Source/gd32vf103_adc.c **** }
 871              		.loc 1 448 1 is_stmt 0
 872 007a 8280     		ret
 873              		.cfi_endproc
 874              	.LFE16:
 876              		.section	.text.adc_inserted_channel_offset_config,"ax",@progbits
 877              		.align	1
 878              		.globl	adc_inserted_channel_offset_config
 880              	adc_inserted_channel_offset_config:
 881              	.LFB17:
 449:../Firmware/GD32VF103_standard_peripheral/Source/gd32vf103_adc.c **** 
 450:../Firmware/GD32VF103_standard_peripheral/Source/gd32vf103_adc.c **** /*!
 451:../Firmware/GD32VF103_standard_peripheral/Source/gd32vf103_adc.c ****     \brief      configure ADC inserted channel offset 
 452:../Firmware/GD32VF103_standard_peripheral/Source/gd32vf103_adc.c ****     \param[in]  adc_periph: ADCx, x=0,1
 453:../Firmware/GD32VF103_standard_peripheral/Source/gd32vf103_adc.c ****     \param[in]  inserted_channel: insert channel select
 454:../Firmware/GD32VF103_standard_peripheral/Source/gd32vf103_adc.c ****                 only one parameter can be selected
 455:../Firmware/GD32VF103_standard_peripheral/Source/gd32vf103_adc.c ****       \arg        ADC_INSERTED_CHANNEL_0: inserted channel0
 456:../Firmware/GD32VF103_standard_peripheral/Source/gd32vf103_adc.c ****       \arg        ADC_INSERTED_CHANNEL_1: inserted channel1
 457:../Firmware/GD32VF103_standard_peripheral/Source/gd32vf103_adc.c ****       \arg        ADC_INSERTED_CHANNEL_2: inserted channel2
 458:../Firmware/GD32VF103_standard_peripheral/Source/gd32vf103_adc.c ****       \arg        ADC_INSERTED_CHANNEL_3: inserted channel3
 459:../Firmware/GD32VF103_standard_peripheral/Source/gd32vf103_adc.c ****     \param[in]  offset: the offset data
 460:../Firmware/GD32VF103_standard_peripheral/Source/gd32vf103_adc.c ****     \param[out] none
 461:../Firmware/GD32VF103_standard_peripheral/Source/gd32vf103_adc.c ****     \retval     none
 462:../Firmware/GD32VF103_standard_peripheral/Source/gd32vf103_adc.c **** */
 463:../Firmware/GD32VF103_standard_peripheral/Source/gd32vf103_adc.c **** void adc_inserted_channel_offset_config(uint32_t adc_periph, uint8_t inserted_channel, uint16_t off
 464:../Firmware/GD32VF103_standard_peripheral/Source/gd32vf103_adc.c **** {
 882              		.loc 1 464 1 is_stmt 1
 883              		.cfi_startproc
 884              	.LVL77:
 465:../Firmware/GD32VF103_standard_peripheral/Source/gd32vf103_adc.c ****     uint8_t inserted_length;
 885              		.loc 1 465 5
 466:../Firmware/GD32VF103_standard_peripheral/Source/gd32vf103_adc.c ****     uint32_t num = 0U;
 886              		.loc 1 466 5
 467:../Firmware/GD32VF103_standard_peripheral/Source/gd32vf103_adc.c **** 
 468:../Firmware/GD32VF103_standard_peripheral/Source/gd32vf103_adc.c ****     inserted_length = (uint8_t)GET_BITS(ADC_ISQ(adc_periph) , 20U , 21U);
 887              		.loc 1 468 5
 888              		.loc 1 468 32 is_stmt 0
 889 0000 1C5D     		lw	a5,56(a0)
 890              	.LVL78:
 469:../Firmware/GD32VF103_standard_peripheral/Source/gd32vf103_adc.c ****     num = ((uint32_t)ADC_OFFSET_LENGTH - ((uint32_t)inserted_length - (uint32_t)inserted_channel));
 891              		.loc 1 469 5 is_stmt 1
 892              		.loc 1 469 9 is_stmt 0
 893 0002 8D05     		addi	a1,a1,3
 894              	.LVL79:
 468:../Firmware/GD32VF103_standard_peripheral/Source/gd32vf103_adc.c ****     num = ((uint32_t)ADC_OFFSET_LENGTH - ((uint32_t)inserted_length - (uint32_t)inserted_channel));
GAS LISTING /tmp/ccOz1Rcm.s 			page 26


 895              		.loc 1 468 32
 896 0004 D183     		srli	a5,a5,20
 897              	.LVL80:
 898              		.loc 1 469 43
 899 0006 8D8B     		andi	a5,a5,3
 900              		.loc 1 469 9
 901 0008 9D8D     		sub	a1,a1,a5
 902              	.LVL81:
 470:../Firmware/GD32VF103_standard_peripheral/Source/gd32vf103_adc.c ****     
 471:../Firmware/GD32VF103_standard_peripheral/Source/gd32vf103_adc.c ****     if(num <= ADC_OFFSET_LENGTH){
 903              		.loc 1 471 5 is_stmt 1
 904              		.loc 1 471 7 is_stmt 0
 905 000a 8D47     		li	a5,3
 906 000c 63E8B700 		bgtu	a1,a5,.L71
 472:../Firmware/GD32VF103_standard_peripheral/Source/gd32vf103_adc.c ****         /* calculate the offset of the register */
 473:../Firmware/GD32VF103_standard_peripheral/Source/gd32vf103_adc.c ****         num = num * ADC_OFFSET_SHIFT_LENGTH;
 907              		.loc 1 473 9 is_stmt 1
 908              	.LVL82:
 474:../Firmware/GD32VF103_standard_peripheral/Source/gd32vf103_adc.c ****         /* config the offset of the selected channels */
 475:../Firmware/GD32VF103_standard_peripheral/Source/gd32vf103_adc.c ****         REG32((adc_periph) + 0x14U + num) = IOFFX_IOFF((uint32_t)offset);
 909              		.loc 1 475 9
 473:../Firmware/GD32VF103_standard_peripheral/Source/gd32vf103_adc.c ****         /* config the offset of the selected channels */
 910              		.loc 1 473 13 is_stmt 0
 911 0010 8A05     		slli	a1,a1,2
 912              	.LVL83:
 913              		.loc 1 475 9
 914 0012 5105     		addi	a0,a0,20
 915              	.LVL84:
 916              		.loc 1 475 45
 917 0014 5206     		slli	a2,a2,20
 918              	.LVL85:
 919              		.loc 1 475 9
 920 0016 AA95     		add	a1,a1,a0
 921              	.LVL86:
 922              		.loc 1 475 45
 923 0018 5182     		srli	a2,a2,20
 924              		.loc 1 475 43
 925 001a 90C1     		sw	a2,0(a1)
 926              	.LVL87:
 927              	.L71:
 476:../Firmware/GD32VF103_standard_peripheral/Source/gd32vf103_adc.c ****     }  
 477:../Firmware/GD32VF103_standard_peripheral/Source/gd32vf103_adc.c **** }
 928              		.loc 1 477 1
 929 001c 8280     		ret
 930              		.cfi_endproc
 931              	.LFE17:
 933              		.section	.text.adc_external_trigger_source_config,"ax",@progbits
 934              		.align	1
 935              		.globl	adc_external_trigger_source_config
 937              	adc_external_trigger_source_config:
 938              	.LFB18:
 478:../Firmware/GD32VF103_standard_peripheral/Source/gd32vf103_adc.c **** 
 479:../Firmware/GD32VF103_standard_peripheral/Source/gd32vf103_adc.c **** /*!
 480:../Firmware/GD32VF103_standard_peripheral/Source/gd32vf103_adc.c ****     \brief      configure ADC external trigger source 
 481:../Firmware/GD32VF103_standard_peripheral/Source/gd32vf103_adc.c ****     \param[in]  adc_periph: ADCx, x=0,1
 482:../Firmware/GD32VF103_standard_peripheral/Source/gd32vf103_adc.c ****     \param[in]  adc_channel_group: select the channel group
 483:../Firmware/GD32VF103_standard_peripheral/Source/gd32vf103_adc.c ****                 only one parameter can be selected which is shown as below:
GAS LISTING /tmp/ccOz1Rcm.s 			page 27


 484:../Firmware/GD32VF103_standard_peripheral/Source/gd32vf103_adc.c ****       \arg        ADC_REGULAR_CHANNEL: regular channel group
 485:../Firmware/GD32VF103_standard_peripheral/Source/gd32vf103_adc.c ****       \arg        ADC_INSERTED_CHANNEL: inserted channel group
 486:../Firmware/GD32VF103_standard_peripheral/Source/gd32vf103_adc.c ****     \param[in]  external_trigger_source: regular or inserted group trigger source
 487:../Firmware/GD32VF103_standard_peripheral/Source/gd32vf103_adc.c ****                 only one parameter can be selected
 488:../Firmware/GD32VF103_standard_peripheral/Source/gd32vf103_adc.c ****                 for regular channel:
 489:../Firmware/GD32VF103_standard_peripheral/Source/gd32vf103_adc.c ****       \arg        ADC0_1_EXTTRIG_REGULAR_T0_CH0: TIMER0 CH0 event select 
 490:../Firmware/GD32VF103_standard_peripheral/Source/gd32vf103_adc.c ****       \arg        ADC0_1_EXTTRIG_REGULAR_T0_CH1: TIMER0 CH1 event select 
 491:../Firmware/GD32VF103_standard_peripheral/Source/gd32vf103_adc.c ****       \arg        ADC0_1_EXTTRIG_REGULAR_T0_CH2: TIMER0 CH2 event select 
 492:../Firmware/GD32VF103_standard_peripheral/Source/gd32vf103_adc.c ****       \arg        ADC0_1_EXTTRIG_REGULAR_T1_CH1: TIMER1 CH1 event select 
 493:../Firmware/GD32VF103_standard_peripheral/Source/gd32vf103_adc.c ****       \arg        ADC0_1_EXTTRIG_REGULAR_T2_TRGO: TIMER2 TRGO event select 
 494:../Firmware/GD32VF103_standard_peripheral/Source/gd32vf103_adc.c ****       \arg        ADC0_1_EXTTRIG_REGULAR_T3_CH3: TIMER3 CH3 event select 
 495:../Firmware/GD32VF103_standard_peripheral/Source/gd32vf103_adc.c ****       \arg        ADC0_1_EXTTRIG_REGULAR_EXTI_11: external interrupt line 11 
 496:../Firmware/GD32VF103_standard_peripheral/Source/gd32vf103_adc.c ****       \arg        ADC0_1_EXTTRIG_REGULAR_NONE: software trigger
 497:../Firmware/GD32VF103_standard_peripheral/Source/gd32vf103_adc.c ****                 for inserted channel:
 498:../Firmware/GD32VF103_standard_peripheral/Source/gd32vf103_adc.c ****       \arg        ADC0_1_EXTTRIG_INSERTED_T0_TRGO: TIMER0 TRGO event select 
 499:../Firmware/GD32VF103_standard_peripheral/Source/gd32vf103_adc.c ****       \arg        ADC0_1_EXTTRIG_INSERTED_T0_CH3: TIMER0 CH3 event select 
 500:../Firmware/GD32VF103_standard_peripheral/Source/gd32vf103_adc.c ****       \arg        ADC0_1_EXTTRIG_INSERTED_T1_TRGO: TIMER1 TRGO event select 
 501:../Firmware/GD32VF103_standard_peripheral/Source/gd32vf103_adc.c ****       \arg        ADC0_1_EXTTRIG_INSERTED_T1_CH0: TIMER1 CH0 event select 
 502:../Firmware/GD32VF103_standard_peripheral/Source/gd32vf103_adc.c ****       \arg        ADC0_1_EXTTRIG_INSERTED_T2_CH3: TIMER2 CH3 event select 
 503:../Firmware/GD32VF103_standard_peripheral/Source/gd32vf103_adc.c ****       \arg        ADC0_1_EXTTRIG_INSERTED_T3_TRGO: TIMER3 TRGO event select 
 504:../Firmware/GD32VF103_standard_peripheral/Source/gd32vf103_adc.c ****       \arg        ADC0_1_EXTTRIG_INSERTED_EXTI_15: external interrupt line 15 
 505:../Firmware/GD32VF103_standard_peripheral/Source/gd32vf103_adc.c ****       \arg        ADC0_1_EXTTRIG_INSERTED_NONE: software trigger
 506:../Firmware/GD32VF103_standard_peripheral/Source/gd32vf103_adc.c ****     \param[out] none
 507:../Firmware/GD32VF103_standard_peripheral/Source/gd32vf103_adc.c ****     \retval     none
 508:../Firmware/GD32VF103_standard_peripheral/Source/gd32vf103_adc.c **** */
 509:../Firmware/GD32VF103_standard_peripheral/Source/gd32vf103_adc.c **** void adc_external_trigger_source_config(uint32_t adc_periph, uint8_t adc_channel_group, uint32_t ex
 510:../Firmware/GD32VF103_standard_peripheral/Source/gd32vf103_adc.c **** {   
 939              		.loc 1 510 1 is_stmt 1
 940              		.cfi_startproc
 941              	.LVL88:
 511:../Firmware/GD32VF103_standard_peripheral/Source/gd32vf103_adc.c ****     switch(adc_channel_group){
 942              		.loc 1 511 5
 943 0000 8547     		li	a5,1
 944 0002 638FF500 		beq	a1,a5,.L74
 945 0006 8947     		li	a5,2
 946 0008 639BF500 		bne	a1,a5,.L78
 512:../Firmware/GD32VF103_standard_peripheral/Source/gd32vf103_adc.c ****     case ADC_REGULAR_CHANNEL:
 513:../Firmware/GD32VF103_standard_peripheral/Source/gd32vf103_adc.c ****         /* configure ADC regular group external trigger source */
 514:../Firmware/GD32VF103_standard_peripheral/Source/gd32vf103_adc.c ****         ADC_CTL1(adc_periph) &= ~((uint32_t)ADC_CTL1_ETSRC);
 515:../Firmware/GD32VF103_standard_peripheral/Source/gd32vf103_adc.c ****         ADC_CTL1(adc_periph) |= (uint32_t)external_trigger_source;
 516:../Firmware/GD32VF103_standard_peripheral/Source/gd32vf103_adc.c ****         break;
 517:../Firmware/GD32VF103_standard_peripheral/Source/gd32vf103_adc.c ****     case ADC_INSERTED_CHANNEL:
 518:../Firmware/GD32VF103_standard_peripheral/Source/gd32vf103_adc.c ****         /* configure ADC inserted group external trigger source */
 519:../Firmware/GD32VF103_standard_peripheral/Source/gd32vf103_adc.c ****         ADC_CTL1(adc_periph) &= ~((uint32_t)ADC_CTL1_ETSIC);
 947              		.loc 1 519 9
 948              		.loc 1 519 30 is_stmt 0
 949 000c 1C45     		lw	a5,8(a0)
 950 000e 6577     		li	a4,-28672
 951 0010 7D17     		addi	a4,a4,-1
 952 0012 F98F     		and	a5,a5,a4
 953 0014 1CC5     		sw	a5,8(a0)
 520:../Firmware/GD32VF103_standard_peripheral/Source/gd32vf103_adc.c ****         ADC_CTL1(adc_periph) |= (uint32_t)external_trigger_source;
 954              		.loc 1 520 9 is_stmt 1
 955              		.loc 1 520 30 is_stmt 0
 956 0016 1C45     		lw	a5,8(a0)
 957 0018 5D8E     		or	a2,a5,a2
 958              	.LVL89:
GAS LISTING /tmp/ccOz1Rcm.s 			page 28


 959 001a 10C5     		sw	a2,8(a0)
 521:../Firmware/GD32VF103_standard_peripheral/Source/gd32vf103_adc.c ****         break;
 960              		.loc 1 521 9 is_stmt 1
 522:../Firmware/GD32VF103_standard_peripheral/Source/gd32vf103_adc.c ****     default:
 523:../Firmware/GD32VF103_standard_peripheral/Source/gd32vf103_adc.c ****         break;
 524:../Firmware/GD32VF103_standard_peripheral/Source/gd32vf103_adc.c ****     }
 525:../Firmware/GD32VF103_standard_peripheral/Source/gd32vf103_adc.c **** }
 961              		.loc 1 525 1 is_stmt 0
 962 001c 8280     		ret
 963              	.LVL90:
 964              	.L78:
 965 001e 8280     		ret
 966              	.L74:
 514:../Firmware/GD32VF103_standard_peripheral/Source/gd32vf103_adc.c ****         ADC_CTL1(adc_periph) |= (uint32_t)external_trigger_source;
 967              		.loc 1 514 9 is_stmt 1
 514:../Firmware/GD32VF103_standard_peripheral/Source/gd32vf103_adc.c ****         ADC_CTL1(adc_periph) |= (uint32_t)external_trigger_source;
 968              		.loc 1 514 30 is_stmt 0
 969 0020 1C45     		lw	a5,8(a0)
 970 0022 3707F2FF 		li	a4,-917504
 519:../Firmware/GD32VF103_standard_peripheral/Source/gd32vf103_adc.c ****         ADC_CTL1(adc_periph) |= (uint32_t)external_trigger_source;
 971              		.loc 1 519 30
 972 0026 7D17     		addi	a4,a4,-1
 973 0028 F98F     		and	a5,a5,a4
 974 002a 1CC5     		sw	a5,8(a0)
 520:../Firmware/GD32VF103_standard_peripheral/Source/gd32vf103_adc.c ****         break;
 975              		.loc 1 520 9 is_stmt 1
 520:../Firmware/GD32VF103_standard_peripheral/Source/gd32vf103_adc.c ****         break;
 976              		.loc 1 520 30 is_stmt 0
 977 002c 1C45     		lw	a5,8(a0)
 978 002e 5D8E     		or	a2,a5,a2
 979              	.LVL91:
 980 0030 10C5     		sw	a2,8(a0)
 521:../Firmware/GD32VF103_standard_peripheral/Source/gd32vf103_adc.c ****     default:
 981              		.loc 1 521 9 is_stmt 1
 982              		.loc 1 525 1 is_stmt 0
 983 0032 8280     		ret
 984              		.cfi_endproc
 985              	.LFE18:
 987              		.section	.text.adc_external_trigger_config,"ax",@progbits
 988              		.align	1
 989              		.globl	adc_external_trigger_config
 991              	adc_external_trigger_config:
 992              	.LFB19:
 526:../Firmware/GD32VF103_standard_peripheral/Source/gd32vf103_adc.c **** 
 527:../Firmware/GD32VF103_standard_peripheral/Source/gd32vf103_adc.c **** /*!
 528:../Firmware/GD32VF103_standard_peripheral/Source/gd32vf103_adc.c ****     \brief      configure ADC external trigger 
 529:../Firmware/GD32VF103_standard_peripheral/Source/gd32vf103_adc.c ****     \param[in]  adc_periph: ADCx, x=0,1
 530:../Firmware/GD32VF103_standard_peripheral/Source/gd32vf103_adc.c ****     \param[in]  adc_channel_group: select the channel group
 531:../Firmware/GD32VF103_standard_peripheral/Source/gd32vf103_adc.c ****                 one or more parameters can be selected which are shown as below:
 532:../Firmware/GD32VF103_standard_peripheral/Source/gd32vf103_adc.c ****       \arg        ADC_REGULAR_CHANNEL: regular channel group
 533:../Firmware/GD32VF103_standard_peripheral/Source/gd32vf103_adc.c ****       \arg        ADC_INSERTED_CHANNEL: inserted channel group
 534:../Firmware/GD32VF103_standard_peripheral/Source/gd32vf103_adc.c ****     \param[in]  newvalue: ENABLE or DISABLE
 535:../Firmware/GD32VF103_standard_peripheral/Source/gd32vf103_adc.c ****     \param[out] none
 536:../Firmware/GD32VF103_standard_peripheral/Source/gd32vf103_adc.c ****     \retval     none
 537:../Firmware/GD32VF103_standard_peripheral/Source/gd32vf103_adc.c **** */
 538:../Firmware/GD32VF103_standard_peripheral/Source/gd32vf103_adc.c **** void adc_external_trigger_config(uint32_t adc_periph, uint8_t adc_channel_group, ControlStatus newv
 539:../Firmware/GD32VF103_standard_peripheral/Source/gd32vf103_adc.c **** {
GAS LISTING /tmp/ccOz1Rcm.s 			page 29


 993              		.loc 1 539 1 is_stmt 1
 994              		.cfi_startproc
 995              	.LVL92:
 540:../Firmware/GD32VF103_standard_peripheral/Source/gd32vf103_adc.c ****     if(newvalue){
 996              		.loc 1 540 5
 997 0000 93F71500 		andi	a5,a1,1
 998              		.loc 1 540 7 is_stmt 0
 999 0004 11CE     		beq	a2,zero,.L80
 541:../Firmware/GD32VF103_standard_peripheral/Source/gd32vf103_adc.c ****         if(0U != (adc_channel_group & ADC_REGULAR_CHANNEL)){
 1000              		.loc 1 541 9 is_stmt 1
 1001              		.loc 1 541 11 is_stmt 0
 1002 0006 91C7     		beq	a5,zero,.L81
 542:../Firmware/GD32VF103_standard_peripheral/Source/gd32vf103_adc.c ****             /* enable ADC regular channel group external trigger */
 543:../Firmware/GD32VF103_standard_peripheral/Source/gd32vf103_adc.c ****             ADC_CTL1(adc_periph) |= ADC_CTL1_ETERC;
 1003              		.loc 1 543 13 is_stmt 1
 1004              		.loc 1 543 34 is_stmt 0
 1005 0008 1C45     		lw	a5,8(a0)
 1006 000a 37071000 		li	a4,1048576
 1007 000e D98F     		or	a5,a5,a4
 1008 0010 1CC5     		sw	a5,8(a0)
 1009              	.L81:
 544:../Firmware/GD32VF103_standard_peripheral/Source/gd32vf103_adc.c ****         }
 545:../Firmware/GD32VF103_standard_peripheral/Source/gd32vf103_adc.c ****         if(0U != (adc_channel_group & ADC_INSERTED_CHANNEL)){
 1010              		.loc 1 545 9 is_stmt 1
 1011              		.loc 1 545 11 is_stmt 0
 1012 0012 8989     		andi	a1,a1,2
 1013              	.LVL93:
 1014 0014 89C9     		beq	a1,zero,.L79
 546:../Firmware/GD32VF103_standard_peripheral/Source/gd32vf103_adc.c ****             /* enable ADC inserted channel group external trigger */
 547:../Firmware/GD32VF103_standard_peripheral/Source/gd32vf103_adc.c ****             ADC_CTL1(adc_periph) |= ADC_CTL1_ETEIC;
 1015              		.loc 1 547 13 is_stmt 1
 1016              		.loc 1 547 34 is_stmt 0
 1017 0016 1C45     		lw	a5,8(a0)
 1018 0018 2167     		li	a4,32768
 1019 001a D98F     		or	a5,a5,a4
 1020 001c 1CC5     		sw	a5,8(a0)
 1021 001e 8280     		ret
 1022              	.LVL94:
 1023              	.L80:
 548:../Firmware/GD32VF103_standard_peripheral/Source/gd32vf103_adc.c ****         }        
 549:../Firmware/GD32VF103_standard_peripheral/Source/gd32vf103_adc.c ****     }else{
 550:../Firmware/GD32VF103_standard_peripheral/Source/gd32vf103_adc.c ****         if(0U != (adc_channel_group & ADC_REGULAR_CHANNEL)){
 1024              		.loc 1 550 9 is_stmt 1
 1025              		.loc 1 550 11 is_stmt 0
 1026 0020 91EB     		bne	a5,zero,.L95
 551:../Firmware/GD32VF103_standard_peripheral/Source/gd32vf103_adc.c ****             /* disable ADC regular channel group external trigger */
 552:../Firmware/GD32VF103_standard_peripheral/Source/gd32vf103_adc.c ****             ADC_CTL1(adc_periph) &= ~ADC_CTL1_ETERC;
 553:../Firmware/GD32VF103_standard_peripheral/Source/gd32vf103_adc.c ****         }
 554:../Firmware/GD32VF103_standard_peripheral/Source/gd32vf103_adc.c ****         if(0U != (adc_channel_group & ADC_INSERTED_CHANNEL)){
 1027              		.loc 1 554 9 is_stmt 1
 1028              		.loc 1 554 11 is_stmt 0
 1029 0022 8989     		andi	a1,a1,2
 1030              	.LVL95:
 1031 0024 91E1     		bne	a1,zero,.L96
 1032              	.L79:
 555:../Firmware/GD32VF103_standard_peripheral/Source/gd32vf103_adc.c ****             /* disable ADC regular channel group external trigger */
 556:../Firmware/GD32VF103_standard_peripheral/Source/gd32vf103_adc.c ****             ADC_CTL1(adc_periph) &= ~ADC_CTL1_ETEIC;
GAS LISTING /tmp/ccOz1Rcm.s 			page 30


 557:../Firmware/GD32VF103_standard_peripheral/Source/gd32vf103_adc.c ****         }      
 558:../Firmware/GD32VF103_standard_peripheral/Source/gd32vf103_adc.c ****     }
 559:../Firmware/GD32VF103_standard_peripheral/Source/gd32vf103_adc.c **** }
 1033              		.loc 1 559 1
 1034 0026 8280     		ret
 1035              	.L96:
 556:../Firmware/GD32VF103_standard_peripheral/Source/gd32vf103_adc.c ****         }      
 1036              		.loc 1 556 13 is_stmt 1
 556:../Firmware/GD32VF103_standard_peripheral/Source/gd32vf103_adc.c ****         }      
 1037              		.loc 1 556 34 is_stmt 0
 1038 0028 1C45     		lw	a5,8(a0)
 1039 002a 6177     		li	a4,-32768
 1040 002c 7D17     		addi	a4,a4,-1
 1041 002e F98F     		and	a5,a5,a4
 1042 0030 1CC5     		sw	a5,8(a0)
 1043              		.loc 1 559 1
 1044 0032 8280     		ret
 1045              	.LVL96:
 1046              	.L95:
 552:../Firmware/GD32VF103_standard_peripheral/Source/gd32vf103_adc.c ****         }
 1047              		.loc 1 552 13 is_stmt 1
 552:../Firmware/GD32VF103_standard_peripheral/Source/gd32vf103_adc.c ****         }
 1048              		.loc 1 552 34 is_stmt 0
 1049 0034 1C45     		lw	a5,8(a0)
 1050 0036 3707F0FF 		li	a4,-1048576
 1051 003a 7D17     		addi	a4,a4,-1
 1052 003c F98F     		and	a5,a5,a4
 1053 003e 1CC5     		sw	a5,8(a0)
 554:../Firmware/GD32VF103_standard_peripheral/Source/gd32vf103_adc.c ****             /* disable ADC regular channel group external trigger */
 1054              		.loc 1 554 9 is_stmt 1
 554:../Firmware/GD32VF103_standard_peripheral/Source/gd32vf103_adc.c ****             /* disable ADC regular channel group external trigger */
 1055              		.loc 1 554 11 is_stmt 0
 1056 0040 8989     		andi	a1,a1,2
 1057              	.LVL97:
 1058 0042 F5D1     		beq	a1,zero,.L79
 1059 0044 D5B7     		j	.L96
 1060              		.cfi_endproc
 1061              	.LFE19:
 1063              		.section	.text.adc_software_trigger_enable,"ax",@progbits
 1064              		.align	1
 1065              		.globl	adc_software_trigger_enable
 1067              	adc_software_trigger_enable:
 1068              	.LFB20:
 560:../Firmware/GD32VF103_standard_peripheral/Source/gd32vf103_adc.c **** 
 561:../Firmware/GD32VF103_standard_peripheral/Source/gd32vf103_adc.c **** /*!
 562:../Firmware/GD32VF103_standard_peripheral/Source/gd32vf103_adc.c ****     \brief      enable ADC software trigger 
 563:../Firmware/GD32VF103_standard_peripheral/Source/gd32vf103_adc.c ****     \param[in]  adc_periph: ADCx, x=0,1
 564:../Firmware/GD32VF103_standard_peripheral/Source/gd32vf103_adc.c ****     \param[in]  adc_channel_group: select the channel group
 565:../Firmware/GD32VF103_standard_peripheral/Source/gd32vf103_adc.c ****                 one or more parameters can be selected which are shown as below:
 566:../Firmware/GD32VF103_standard_peripheral/Source/gd32vf103_adc.c ****       \arg        ADC_REGULAR_CHANNEL: regular channel group
 567:../Firmware/GD32VF103_standard_peripheral/Source/gd32vf103_adc.c ****       \arg        ADC_INSERTED_CHANNEL: inserted channel group
 568:../Firmware/GD32VF103_standard_peripheral/Source/gd32vf103_adc.c ****     \param[out] none
 569:../Firmware/GD32VF103_standard_peripheral/Source/gd32vf103_adc.c ****     \retval     none
 570:../Firmware/GD32VF103_standard_peripheral/Source/gd32vf103_adc.c **** */
 571:../Firmware/GD32VF103_standard_peripheral/Source/gd32vf103_adc.c **** void adc_software_trigger_enable(uint32_t adc_periph, uint8_t adc_channel_group)
 572:../Firmware/GD32VF103_standard_peripheral/Source/gd32vf103_adc.c **** {
 1069              		.loc 1 572 1 is_stmt 1
GAS LISTING /tmp/ccOz1Rcm.s 			page 31


 1070              		.cfi_startproc
 1071              	.LVL98:
 573:../Firmware/GD32VF103_standard_peripheral/Source/gd32vf103_adc.c ****     if(0U != (adc_channel_group & ADC_REGULAR_CHANNEL)){
 1072              		.loc 1 573 5
 1073              		.loc 1 573 7 is_stmt 0
 1074 0000 93F71500 		andi	a5,a1,1
 1075 0004 91C7     		beq	a5,zero,.L98
 574:../Firmware/GD32VF103_standard_peripheral/Source/gd32vf103_adc.c ****         /* enable ADC regular channel group software trigger */
 575:../Firmware/GD32VF103_standard_peripheral/Source/gd32vf103_adc.c ****         ADC_CTL1(adc_periph) |= ADC_CTL1_SWRCST;
 1076              		.loc 1 575 9 is_stmt 1
 1077              		.loc 1 575 30 is_stmt 0
 1078 0006 1C45     		lw	a5,8(a0)
 1079 0008 37074000 		li	a4,4194304
 1080 000c D98F     		or	a5,a5,a4
 1081 000e 1CC5     		sw	a5,8(a0)
 1082              	.L98:
 576:../Firmware/GD32VF103_standard_peripheral/Source/gd32vf103_adc.c ****     }
 577:../Firmware/GD32VF103_standard_peripheral/Source/gd32vf103_adc.c ****     if(0U != (adc_channel_group & ADC_INSERTED_CHANNEL)){
 1083              		.loc 1 577 5 is_stmt 1
 1084              		.loc 1 577 7 is_stmt 0
 1085 0010 8989     		andi	a1,a1,2
 1086              	.LVL99:
 1087 0012 91C5     		beq	a1,zero,.L97
 578:../Firmware/GD32VF103_standard_peripheral/Source/gd32vf103_adc.c ****         /* enable ADC inserted channel group software trigger */
 579:../Firmware/GD32VF103_standard_peripheral/Source/gd32vf103_adc.c ****         ADC_CTL1(adc_periph) |= ADC_CTL1_SWICST;
 1088              		.loc 1 579 9 is_stmt 1
 1089              		.loc 1 579 30 is_stmt 0
 1090 0014 1C45     		lw	a5,8(a0)
 1091 0016 37072000 		li	a4,2097152
 1092 001a D98F     		or	a5,a5,a4
 1093 001c 1CC5     		sw	a5,8(a0)
 1094              	.L97:
 580:../Firmware/GD32VF103_standard_peripheral/Source/gd32vf103_adc.c ****     }
 581:../Firmware/GD32VF103_standard_peripheral/Source/gd32vf103_adc.c **** }
 1095              		.loc 1 581 1
 1096 001e 8280     		ret
 1097              		.cfi_endproc
 1098              	.LFE20:
 1100              		.section	.text.adc_regular_data_read,"ax",@progbits
 1101              		.align	1
 1102              		.globl	adc_regular_data_read
 1104              	adc_regular_data_read:
 1105              	.LFB21:
 582:../Firmware/GD32VF103_standard_peripheral/Source/gd32vf103_adc.c **** 
 583:../Firmware/GD32VF103_standard_peripheral/Source/gd32vf103_adc.c **** /*!
 584:../Firmware/GD32VF103_standard_peripheral/Source/gd32vf103_adc.c ****     \brief      read ADC regular group data register 
 585:../Firmware/GD32VF103_standard_peripheral/Source/gd32vf103_adc.c ****     \param[in]  adc_periph: ADCx, x=0,1
 586:../Firmware/GD32VF103_standard_peripheral/Source/gd32vf103_adc.c ****     \param[in]  none
 587:../Firmware/GD32VF103_standard_peripheral/Source/gd32vf103_adc.c ****     \param[out] none
 588:../Firmware/GD32VF103_standard_peripheral/Source/gd32vf103_adc.c ****     \retval     the conversion value
 589:../Firmware/GD32VF103_standard_peripheral/Source/gd32vf103_adc.c **** */
 590:../Firmware/GD32VF103_standard_peripheral/Source/gd32vf103_adc.c **** uint16_t adc_regular_data_read(uint32_t adc_periph)
 591:../Firmware/GD32VF103_standard_peripheral/Source/gd32vf103_adc.c **** {
 1106              		.loc 1 591 1 is_stmt 1
 1107              		.cfi_startproc
 1108              	.LVL100:
 592:../Firmware/GD32VF103_standard_peripheral/Source/gd32vf103_adc.c ****     return (uint16_t)(ADC_RDATA(adc_periph));
GAS LISTING /tmp/ccOz1Rcm.s 			page 32


 1109              		.loc 1 592 5
 1110              		.loc 1 592 23 is_stmt 0
 1111 0000 6845     		lw	a0,76(a0)
 1112              	.LVL101:
 593:../Firmware/GD32VF103_standard_peripheral/Source/gd32vf103_adc.c **** }
 1113              		.loc 1 593 1
 1114 0002 4205     		slli	a0,a0,16
 1115 0004 4181     		srli	a0,a0,16
 1116 0006 8280     		ret
 1117              		.cfi_endproc
 1118              	.LFE21:
 1120              		.section	.text.adc_inserted_data_read,"ax",@progbits
 1121              		.align	1
 1122              		.globl	adc_inserted_data_read
 1124              	adc_inserted_data_read:
 1125              	.LFB22:
 594:../Firmware/GD32VF103_standard_peripheral/Source/gd32vf103_adc.c **** 
 595:../Firmware/GD32VF103_standard_peripheral/Source/gd32vf103_adc.c **** /*!
 596:../Firmware/GD32VF103_standard_peripheral/Source/gd32vf103_adc.c ****     \brief      read ADC inserted group data register 
 597:../Firmware/GD32VF103_standard_peripheral/Source/gd32vf103_adc.c ****     \param[in]  adc_periph: ADCx, x=0,1
 598:../Firmware/GD32VF103_standard_peripheral/Source/gd32vf103_adc.c ****     \param[in]  inserted_channel: insert channel select
 599:../Firmware/GD32VF103_standard_peripheral/Source/gd32vf103_adc.c ****                 only one parameter can be selected
 600:../Firmware/GD32VF103_standard_peripheral/Source/gd32vf103_adc.c ****       \arg        ADC_INSERTED_CHANNEL_0: inserted Channel0
 601:../Firmware/GD32VF103_standard_peripheral/Source/gd32vf103_adc.c ****       \arg        ADC_INSERTED_CHANNEL_1: inserted channel1
 602:../Firmware/GD32VF103_standard_peripheral/Source/gd32vf103_adc.c ****       \arg        ADC_INSERTED_CHANNEL_2: inserted Channel2
 603:../Firmware/GD32VF103_standard_peripheral/Source/gd32vf103_adc.c ****       \arg        ADC_INSERTED_CHANNEL_3: inserted Channel3
 604:../Firmware/GD32VF103_standard_peripheral/Source/gd32vf103_adc.c ****     \param[out] none
 605:../Firmware/GD32VF103_standard_peripheral/Source/gd32vf103_adc.c ****     \retval     the conversion value
 606:../Firmware/GD32VF103_standard_peripheral/Source/gd32vf103_adc.c **** */
 607:../Firmware/GD32VF103_standard_peripheral/Source/gd32vf103_adc.c **** uint16_t adc_inserted_data_read(uint32_t adc_periph, uint8_t inserted_channel)
 608:../Firmware/GD32VF103_standard_peripheral/Source/gd32vf103_adc.c **** {
 1126              		.loc 1 608 1 is_stmt 1
 1127              		.cfi_startproc
 1128              	.LVL102:
 609:../Firmware/GD32VF103_standard_peripheral/Source/gd32vf103_adc.c ****     uint32_t idata;
 1129              		.loc 1 609 5
 610:../Firmware/GD32VF103_standard_peripheral/Source/gd32vf103_adc.c ****     /* read the data of the selected channel */
 611:../Firmware/GD32VF103_standard_peripheral/Source/gd32vf103_adc.c ****     switch(inserted_channel){
 1130              		.loc 1 611 5
 1131 0000 8947     		li	a5,2
 1132 0002 6386F502 		beq	a1,a5,.L108
 1133 0006 63E7B700 		bgtu	a1,a5,.L109
 1134 000a 91CD     		beq	a1,zero,.L115
 612:../Firmware/GD32VF103_standard_peripheral/Source/gd32vf103_adc.c ****     case ADC_INSERTED_CHANNEL_0:
 613:../Firmware/GD32VF103_standard_peripheral/Source/gd32vf103_adc.c ****         /* read the data of channel 0 */
 614:../Firmware/GD32VF103_standard_peripheral/Source/gd32vf103_adc.c ****         idata = ADC_IDATA0(adc_periph);
 615:../Firmware/GD32VF103_standard_peripheral/Source/gd32vf103_adc.c ****         break;
 616:../Firmware/GD32VF103_standard_peripheral/Source/gd32vf103_adc.c ****     case ADC_INSERTED_CHANNEL_1:
 617:../Firmware/GD32VF103_standard_peripheral/Source/gd32vf103_adc.c ****         /* read the data of channel 1 */
 618:../Firmware/GD32VF103_standard_peripheral/Source/gd32vf103_adc.c ****         idata = ADC_IDATA1(adc_periph);
 1135              		.loc 1 618 9
 1136              		.loc 1 618 15 is_stmt 0
 1137 000c 2841     		lw	a0,64(a0)
 1138              	.LVL103:
 619:../Firmware/GD32VF103_standard_peripheral/Source/gd32vf103_adc.c ****         break;
 1139              		.loc 1 619 9 is_stmt 1
 620:../Firmware/GD32VF103_standard_peripheral/Source/gd32vf103_adc.c ****     case ADC_INSERTED_CHANNEL_2:
GAS LISTING /tmp/ccOz1Rcm.s 			page 33


 621:../Firmware/GD32VF103_standard_peripheral/Source/gd32vf103_adc.c ****         /* read the data of channel 2 */
 622:../Firmware/GD32VF103_standard_peripheral/Source/gd32vf103_adc.c ****         idata = ADC_IDATA2(adc_periph);
 623:../Firmware/GD32VF103_standard_peripheral/Source/gd32vf103_adc.c ****         break;
 624:../Firmware/GD32VF103_standard_peripheral/Source/gd32vf103_adc.c ****     case ADC_INSERTED_CHANNEL_3:
 625:../Firmware/GD32VF103_standard_peripheral/Source/gd32vf103_adc.c ****         /* read the data of channel 3 */
 626:../Firmware/GD32VF103_standard_peripheral/Source/gd32vf103_adc.c ****         idata = ADC_IDATA3(adc_periph);
 627:../Firmware/GD32VF103_standard_peripheral/Source/gd32vf103_adc.c ****         break;
 628:../Firmware/GD32VF103_standard_peripheral/Source/gd32vf103_adc.c ****     default:
 629:../Firmware/GD32VF103_standard_peripheral/Source/gd32vf103_adc.c ****         idata = 0U;
 630:../Firmware/GD32VF103_standard_peripheral/Source/gd32vf103_adc.c ****         break;
 631:../Firmware/GD32VF103_standard_peripheral/Source/gd32vf103_adc.c ****     }
 632:../Firmware/GD32VF103_standard_peripheral/Source/gd32vf103_adc.c ****     return (uint16_t)idata;
 1140              		.loc 1 632 12 is_stmt 0
 1141 000e 4205     		slli	a0,a0,16
 1142              	.LVL104:
 1143 0010 4181     		srli	a0,a0,16
 619:../Firmware/GD32VF103_standard_peripheral/Source/gd32vf103_adc.c ****         break;
 1144              		.loc 1 619 9
 1145 0012 8280     		ret
 1146              	.LVL105:
 1147              	.L109:
 611:../Firmware/GD32VF103_standard_peripheral/Source/gd32vf103_adc.c ****     case ADC_INSERTED_CHANNEL_0:
 1148              		.loc 1 611 5
 1149 0014 8D47     		li	a5,3
 1150 0016 6396F500 		bne	a1,a5,.L116
 626:../Firmware/GD32VF103_standard_peripheral/Source/gd32vf103_adc.c ****         break;
 1151              		.loc 1 626 9 is_stmt 1
 626:../Firmware/GD32VF103_standard_peripheral/Source/gd32vf103_adc.c ****         break;
 1152              		.loc 1 626 15 is_stmt 0
 1153 001a 2845     		lw	a0,72(a0)
 1154              	.LVL106:
 627:../Firmware/GD32VF103_standard_peripheral/Source/gd32vf103_adc.c ****     default:
 1155              		.loc 1 627 9 is_stmt 1
 1156              		.loc 1 632 12 is_stmt 0
 1157 001c 4205     		slli	a0,a0,16
 1158              	.LVL107:
 1159 001e 4181     		srli	a0,a0,16
 1160              		.loc 1 632 5 is_stmt 1
 633:../Firmware/GD32VF103_standard_peripheral/Source/gd32vf103_adc.c **** }
 1161              		.loc 1 633 1 is_stmt 0
 1162 0020 8280     		ret
 1163              	.LVL108:
 1164              	.L116:
 611:../Firmware/GD32VF103_standard_peripheral/Source/gd32vf103_adc.c ****     case ADC_INSERTED_CHANNEL_0:
 1165              		.loc 1 611 5
 1166 0022 0145     		li	a0,0
 1167              	.LVL109:
 1168 0024 8280     		ret
 1169              	.LVL110:
 1170              	.L115:
 614:../Firmware/GD32VF103_standard_peripheral/Source/gd32vf103_adc.c ****         break;
 1171              		.loc 1 614 9 is_stmt 1
 614:../Firmware/GD32VF103_standard_peripheral/Source/gd32vf103_adc.c ****         break;
 1172              		.loc 1 614 15 is_stmt 0
 1173 0026 485D     		lw	a0,60(a0)
 1174              	.LVL111:
 615:../Firmware/GD32VF103_standard_peripheral/Source/gd32vf103_adc.c ****     case ADC_INSERTED_CHANNEL_1:
GAS LISTING /tmp/ccOz1Rcm.s 			page 34


 1175              		.loc 1 615 9 is_stmt 1
 632:../Firmware/GD32VF103_standard_peripheral/Source/gd32vf103_adc.c **** }
 1176              		.loc 1 632 12 is_stmt 0
 1177 0028 4205     		slli	a0,a0,16
 1178              	.LVL112:
 1179 002a 4181     		srli	a0,a0,16
 615:../Firmware/GD32VF103_standard_peripheral/Source/gd32vf103_adc.c ****     case ADC_INSERTED_CHANNEL_1:
 1180              		.loc 1 615 9
 1181 002c 8280     		ret
 1182              	.LVL113:
 1183              	.L108:
 622:../Firmware/GD32VF103_standard_peripheral/Source/gd32vf103_adc.c ****         break;
 1184              		.loc 1 622 9 is_stmt 1
 622:../Firmware/GD32VF103_standard_peripheral/Source/gd32vf103_adc.c ****         break;
 1185              		.loc 1 622 15 is_stmt 0
 1186 002e 6841     		lw	a0,68(a0)
 1187              	.LVL114:
 623:../Firmware/GD32VF103_standard_peripheral/Source/gd32vf103_adc.c ****     case ADC_INSERTED_CHANNEL_3:
 1188              		.loc 1 623 9 is_stmt 1
 632:../Firmware/GD32VF103_standard_peripheral/Source/gd32vf103_adc.c **** }
 1189              		.loc 1 632 12 is_stmt 0
 1190 0030 4205     		slli	a0,a0,16
 1191              	.LVL115:
 1192 0032 4181     		srli	a0,a0,16
 623:../Firmware/GD32VF103_standard_peripheral/Source/gd32vf103_adc.c ****     case ADC_INSERTED_CHANNEL_3:
 1193              		.loc 1 623 9
 1194 0034 8280     		ret
 1195              		.cfi_endproc
 1196              	.LFE22:
 1198              		.section	.text.adc_sync_mode_convert_value_read,"ax",@progbits
 1199              		.align	1
 1200              		.globl	adc_sync_mode_convert_value_read
 1202              	adc_sync_mode_convert_value_read:
 1203              	.LFB23:
 634:../Firmware/GD32VF103_standard_peripheral/Source/gd32vf103_adc.c **** 
 635:../Firmware/GD32VF103_standard_peripheral/Source/gd32vf103_adc.c **** /*!
 636:../Firmware/GD32VF103_standard_peripheral/Source/gd32vf103_adc.c ****     \brief      read the last ADC0 and ADC1 conversion result data in sync mode
 637:../Firmware/GD32VF103_standard_peripheral/Source/gd32vf103_adc.c ****     \param[in]  none
 638:../Firmware/GD32VF103_standard_peripheral/Source/gd32vf103_adc.c ****     \param[out] none
 639:../Firmware/GD32VF103_standard_peripheral/Source/gd32vf103_adc.c ****     \retval     the conversion value
 640:../Firmware/GD32VF103_standard_peripheral/Source/gd32vf103_adc.c **** */
 641:../Firmware/GD32VF103_standard_peripheral/Source/gd32vf103_adc.c **** uint32_t adc_sync_mode_convert_value_read(void)
 642:../Firmware/GD32VF103_standard_peripheral/Source/gd32vf103_adc.c **** {
 1204              		.loc 1 642 1 is_stmt 1
 1205              		.cfi_startproc
 643:../Firmware/GD32VF103_standard_peripheral/Source/gd32vf103_adc.c ****     /* return conversion value */
 644:../Firmware/GD32VF103_standard_peripheral/Source/gd32vf103_adc.c ****     return ADC_RDATA(ADC0);
 1206              		.loc 1 644 5
 1207              		.loc 1 644 12 is_stmt 0
 1208 0000 B7270140 		li	a5,1073815552
 1209 0004 03A5C744 		lw	a0,1100(a5)
 645:../Firmware/GD32VF103_standard_peripheral/Source/gd32vf103_adc.c **** }
 1210              		.loc 1 645 1
 1211 0008 8280     		ret
 1212              		.cfi_endproc
 1213              	.LFE23:
 1215              		.section	.text.adc_watchdog_single_channel_enable,"ax",@progbits
GAS LISTING /tmp/ccOz1Rcm.s 			page 35


 1216              		.align	1
 1217              		.globl	adc_watchdog_single_channel_enable
 1219              	adc_watchdog_single_channel_enable:
 1220              	.LFB24:
 646:../Firmware/GD32VF103_standard_peripheral/Source/gd32vf103_adc.c **** 
 647:../Firmware/GD32VF103_standard_peripheral/Source/gd32vf103_adc.c **** 
 648:../Firmware/GD32VF103_standard_peripheral/Source/gd32vf103_adc.c **** /*!
 649:../Firmware/GD32VF103_standard_peripheral/Source/gd32vf103_adc.c ****     \brief      configure ADC analog watchdog single channel 
 650:../Firmware/GD32VF103_standard_peripheral/Source/gd32vf103_adc.c ****     \param[in]  adc_periph: ADCx, x=0,1
 651:../Firmware/GD32VF103_standard_peripheral/Source/gd32vf103_adc.c ****     \param[in]  adc_channel: the selected ADC channel
 652:../Firmware/GD32VF103_standard_peripheral/Source/gd32vf103_adc.c ****                 only one parameter can be selected which is shown as below:
 653:../Firmware/GD32VF103_standard_peripheral/Source/gd32vf103_adc.c ****       \arg        ADC_CHANNEL_x: ADC Channelx(x=0..17)(x=16 and x=17 are only for ADC0)
 654:../Firmware/GD32VF103_standard_peripheral/Source/gd32vf103_adc.c ****     \param[out] none
 655:../Firmware/GD32VF103_standard_peripheral/Source/gd32vf103_adc.c ****     \retval     none
 656:../Firmware/GD32VF103_standard_peripheral/Source/gd32vf103_adc.c **** */
 657:../Firmware/GD32VF103_standard_peripheral/Source/gd32vf103_adc.c **** void adc_watchdog_single_channel_enable(uint32_t adc_periph, uint8_t adc_channel)
 658:../Firmware/GD32VF103_standard_peripheral/Source/gd32vf103_adc.c **** {
 1221              		.loc 1 658 1 is_stmt 1
 1222              		.cfi_startproc
 1223              	.LVL116:
 659:../Firmware/GD32VF103_standard_peripheral/Source/gd32vf103_adc.c ****     ADC_CTL0(adc_periph) &= (uint32_t)~(ADC_CTL0_RWDEN | ADC_CTL0_IWDEN | ADC_CTL0_WDSC | ADC_CTL0_
 1224              		.loc 1 659 5
 1225              		.loc 1 659 26 is_stmt 0
 1226 0000 5C41     		lw	a5,4(a0)
 1227 0002 370740FF 		li	a4,-12582912
 1228 0006 130707DE 		addi	a4,a4,-544
 1229 000a F98F     		and	a5,a5,a4
 1230 000c 5CC1     		sw	a5,4(a0)
 660:../Firmware/GD32VF103_standard_peripheral/Source/gd32vf103_adc.c ****     /* analog watchdog channel select */
 661:../Firmware/GD32VF103_standard_peripheral/Source/gd32vf103_adc.c ****     ADC_CTL0(adc_periph) |= (uint32_t)adc_channel;
 1231              		.loc 1 661 5 is_stmt 1
 1232              		.loc 1 661 26 is_stmt 0
 1233 000e 5C41     		lw	a5,4(a0)
 662:../Firmware/GD32VF103_standard_peripheral/Source/gd32vf103_adc.c ****     ADC_CTL0(adc_periph) |= (uint32_t)(ADC_CTL0_RWDEN | ADC_CTL0_IWDEN | ADC_CTL0_WDSC);
 1234              		.loc 1 662 26
 1235 0010 3707C000 		li	a4,12582912
 1236 0014 13070720 		addi	a4,a4,512
 661:../Firmware/GD32VF103_standard_peripheral/Source/gd32vf103_adc.c ****     ADC_CTL0(adc_periph) |= (uint32_t)(ADC_CTL0_RWDEN | ADC_CTL0_IWDEN | ADC_CTL0_WDSC);
 1237              		.loc 1 661 26
 1238 0018 DD8D     		or	a1,a1,a5
 1239              	.LVL117:
 1240 001a 4CC1     		sw	a1,4(a0)
 1241              		.loc 1 662 5 is_stmt 1
 1242              		.loc 1 662 26 is_stmt 0
 1243 001c 5C41     		lw	a5,4(a0)
 1244 001e D98F     		or	a5,a5,a4
 1245 0020 5CC1     		sw	a5,4(a0)
 663:../Firmware/GD32VF103_standard_peripheral/Source/gd32vf103_adc.c **** }
 1246              		.loc 1 663 1
 1247 0022 8280     		ret
 1248              		.cfi_endproc
 1249              	.LFE24:
 1251              		.section	.text.adc_watchdog_group_channel_enable,"ax",@progbits
 1252              		.align	1
 1253              		.globl	adc_watchdog_group_channel_enable
 1255              	adc_watchdog_group_channel_enable:
 1256              	.LFB25:
GAS LISTING /tmp/ccOz1Rcm.s 			page 36


 664:../Firmware/GD32VF103_standard_peripheral/Source/gd32vf103_adc.c **** 
 665:../Firmware/GD32VF103_standard_peripheral/Source/gd32vf103_adc.c **** /*!
 666:../Firmware/GD32VF103_standard_peripheral/Source/gd32vf103_adc.c ****     \brief      configure ADC analog watchdog group channel 
 667:../Firmware/GD32VF103_standard_peripheral/Source/gd32vf103_adc.c ****     \param[in]  adc_periph: ADCx, x=0,1
 668:../Firmware/GD32VF103_standard_peripheral/Source/gd32vf103_adc.c ****     \param[in]  adc_channel_group: the channel group use analog watchdog
 669:../Firmware/GD32VF103_standard_peripheral/Source/gd32vf103_adc.c ****                 only one parameter can be selected which is shown as below: 
 670:../Firmware/GD32VF103_standard_peripheral/Source/gd32vf103_adc.c ****       \arg        ADC_REGULAR_CHANNEL: regular channel group
 671:../Firmware/GD32VF103_standard_peripheral/Source/gd32vf103_adc.c ****       \arg        ADC_INSERTED_CHANNEL: inserted channel group
 672:../Firmware/GD32VF103_standard_peripheral/Source/gd32vf103_adc.c ****       \arg        ADC_REGULAR_INSERTED_CHANNEL: both regular and inserted group
 673:../Firmware/GD32VF103_standard_peripheral/Source/gd32vf103_adc.c ****     \param[out] none
 674:../Firmware/GD32VF103_standard_peripheral/Source/gd32vf103_adc.c ****     \retval     none
 675:../Firmware/GD32VF103_standard_peripheral/Source/gd32vf103_adc.c **** */
 676:../Firmware/GD32VF103_standard_peripheral/Source/gd32vf103_adc.c **** void adc_watchdog_group_channel_enable(uint32_t adc_periph, uint8_t adc_channel_group)
 677:../Firmware/GD32VF103_standard_peripheral/Source/gd32vf103_adc.c **** {
 1257              		.loc 1 677 1 is_stmt 1
 1258              		.cfi_startproc
 1259              	.LVL118:
 678:../Firmware/GD32VF103_standard_peripheral/Source/gd32vf103_adc.c ****     ADC_CTL0(adc_periph) &= (uint32_t)~(ADC_CTL0_RWDEN | ADC_CTL0_IWDEN | ADC_CTL0_WDSC);
 1260              		.loc 1 678 5
 1261              		.loc 1 678 26 is_stmt 0
 1262 0000 5C41     		lw	a5,4(a0)
 1263 0002 370740FF 		li	a4,-12582912
 1264 0006 1307F7DF 		addi	a4,a4,-513
 1265 000a F98F     		and	a5,a5,a4
 1266 000c 5CC1     		sw	a5,4(a0)
 679:../Firmware/GD32VF103_standard_peripheral/Source/gd32vf103_adc.c ****     /* select the group */
 680:../Firmware/GD32VF103_standard_peripheral/Source/gd32vf103_adc.c ****     switch(adc_channel_group){
 1267              		.loc 1 680 5 is_stmt 1
 1268 000e 8947     		li	a5,2
 1269 0010 6385F502 		beq	a1,a5,.L120
 1270 0014 8D47     		li	a5,3
 1271 0016 638CF500 		beq	a1,a5,.L121
 1272 001a 8547     		li	a5,1
 1273 001c 6383F500 		beq	a1,a5,.L123
 681:../Firmware/GD32VF103_standard_peripheral/Source/gd32vf103_adc.c ****     case ADC_REGULAR_CHANNEL:
 682:../Firmware/GD32VF103_standard_peripheral/Source/gd32vf103_adc.c ****         /* regular channel analog watchdog enable */
 683:../Firmware/GD32VF103_standard_peripheral/Source/gd32vf103_adc.c ****         ADC_CTL0(adc_periph) |= (uint32_t) ADC_CTL0_RWDEN;
 684:../Firmware/GD32VF103_standard_peripheral/Source/gd32vf103_adc.c ****         break;
 685:../Firmware/GD32VF103_standard_peripheral/Source/gd32vf103_adc.c ****     case ADC_INSERTED_CHANNEL:
 686:../Firmware/GD32VF103_standard_peripheral/Source/gd32vf103_adc.c ****         /* inserted channel analog watchdog enable */
 687:../Firmware/GD32VF103_standard_peripheral/Source/gd32vf103_adc.c ****         ADC_CTL0(adc_periph) |= (uint32_t) ADC_CTL0_IWDEN;
 688:../Firmware/GD32VF103_standard_peripheral/Source/gd32vf103_adc.c ****         break;
 689:../Firmware/GD32VF103_standard_peripheral/Source/gd32vf103_adc.c ****     case ADC_REGULAR_INSERTED_CHANNEL:
 690:../Firmware/GD32VF103_standard_peripheral/Source/gd32vf103_adc.c ****         /* regular and inserted channel analog watchdog enable */
 691:../Firmware/GD32VF103_standard_peripheral/Source/gd32vf103_adc.c ****         ADC_CTL0(adc_periph) |= (uint32_t)(ADC_CTL0_RWDEN | ADC_CTL0_IWDEN);
 692:../Firmware/GD32VF103_standard_peripheral/Source/gd32vf103_adc.c ****         break;
 693:../Firmware/GD32VF103_standard_peripheral/Source/gd32vf103_adc.c ****     default:
 694:../Firmware/GD32VF103_standard_peripheral/Source/gd32vf103_adc.c ****         break;
 695:../Firmware/GD32VF103_standard_peripheral/Source/gd32vf103_adc.c ****     }
 696:../Firmware/GD32VF103_standard_peripheral/Source/gd32vf103_adc.c **** }
 1274              		.loc 1 696 1 is_stmt 0
 1275 0020 8280     		ret
 1276              	.L123:
 683:../Firmware/GD32VF103_standard_peripheral/Source/gd32vf103_adc.c ****         break;
 1277              		.loc 1 683 9 is_stmt 1
 683:../Firmware/GD32VF103_standard_peripheral/Source/gd32vf103_adc.c ****         break;
 1278              		.loc 1 683 30 is_stmt 0
GAS LISTING /tmp/ccOz1Rcm.s 			page 37


 1279 0022 5C41     		lw	a5,4(a0)
 1280 0024 37078000 		li	a4,8388608
 1281 0028 D98F     		or	a5,a5,a4
 1282 002a 5CC1     		sw	a5,4(a0)
 684:../Firmware/GD32VF103_standard_peripheral/Source/gd32vf103_adc.c ****     case ADC_INSERTED_CHANNEL:
 1283              		.loc 1 684 9 is_stmt 1
 1284 002c 8280     		ret
 1285              	.L121:
 691:../Firmware/GD32VF103_standard_peripheral/Source/gd32vf103_adc.c ****         break;
 1286              		.loc 1 691 9
 691:../Firmware/GD32VF103_standard_peripheral/Source/gd32vf103_adc.c ****         break;
 1287              		.loc 1 691 30 is_stmt 0
 1288 002e 5C41     		lw	a5,4(a0)
 1289 0030 3707C000 		li	a4,12582912
 1290 0034 D98F     		or	a5,a5,a4
 1291 0036 5CC1     		sw	a5,4(a0)
 692:../Firmware/GD32VF103_standard_peripheral/Source/gd32vf103_adc.c ****     default:
 1292              		.loc 1 692 9 is_stmt 1
 1293              		.loc 1 696 1 is_stmt 0
 1294 0038 8280     		ret
 1295              	.L120:
 687:../Firmware/GD32VF103_standard_peripheral/Source/gd32vf103_adc.c ****         break;
 1296              		.loc 1 687 9 is_stmt 1
 687:../Firmware/GD32VF103_standard_peripheral/Source/gd32vf103_adc.c ****         break;
 1297              		.loc 1 687 30 is_stmt 0
 1298 003a 5C41     		lw	a5,4(a0)
 1299 003c 37074000 		li	a4,4194304
 1300 0040 D98F     		or	a5,a5,a4
 1301 0042 5CC1     		sw	a5,4(a0)
 688:../Firmware/GD32VF103_standard_peripheral/Source/gd32vf103_adc.c ****     case ADC_REGULAR_INSERTED_CHANNEL:
 1302              		.loc 1 688 9 is_stmt 1
 1303 0044 8280     		ret
 1304              		.cfi_endproc
 1305              	.LFE25:
 1307              		.section	.text.adc_watchdog_disable,"ax",@progbits
 1308              		.align	1
 1309              		.globl	adc_watchdog_disable
 1311              	adc_watchdog_disable:
 1312              	.LFB26:
 697:../Firmware/GD32VF103_standard_peripheral/Source/gd32vf103_adc.c **** 
 698:../Firmware/GD32VF103_standard_peripheral/Source/gd32vf103_adc.c **** /*!
 699:../Firmware/GD32VF103_standard_peripheral/Source/gd32vf103_adc.c ****     \brief      disable ADC analog watchdog 
 700:../Firmware/GD32VF103_standard_peripheral/Source/gd32vf103_adc.c ****     \param[in]  adc_periph: ADCx, x=0,1
 701:../Firmware/GD32VF103_standard_peripheral/Source/gd32vf103_adc.c ****     \param[out] none
 702:../Firmware/GD32VF103_standard_peripheral/Source/gd32vf103_adc.c ****     \retval     none
 703:../Firmware/GD32VF103_standard_peripheral/Source/gd32vf103_adc.c **** */
 704:../Firmware/GD32VF103_standard_peripheral/Source/gd32vf103_adc.c **** void adc_watchdog_disable(uint32_t adc_periph)
 705:../Firmware/GD32VF103_standard_peripheral/Source/gd32vf103_adc.c **** {
 1313              		.loc 1 705 1
 1314              		.cfi_startproc
 1315              	.LVL119:
 706:../Firmware/GD32VF103_standard_peripheral/Source/gd32vf103_adc.c ****     ADC_CTL0(adc_periph) &= (uint32_t)~(ADC_CTL0_RWDEN | ADC_CTL0_IWDEN | ADC_CTL0_WDSC | ADC_CTL0_
 1316              		.loc 1 706 5
 1317              		.loc 1 706 26 is_stmt 0
 1318 0000 5C41     		lw	a5,4(a0)
 1319 0002 370740FF 		li	a4,-12582912
 1320 0006 130707DE 		addi	a4,a4,-544
GAS LISTING /tmp/ccOz1Rcm.s 			page 38


 1321 000a F98F     		and	a5,a5,a4
 1322 000c 5CC1     		sw	a5,4(a0)
 707:../Firmware/GD32VF103_standard_peripheral/Source/gd32vf103_adc.c **** }
 1323              		.loc 1 707 1
 1324 000e 8280     		ret
 1325              		.cfi_endproc
 1326              	.LFE26:
 1328              		.section	.text.adc_watchdog_threshold_config,"ax",@progbits
 1329              		.align	1
 1330              		.globl	adc_watchdog_threshold_config
 1332              	adc_watchdog_threshold_config:
 1333              	.LFB27:
 708:../Firmware/GD32VF103_standard_peripheral/Source/gd32vf103_adc.c **** 
 709:../Firmware/GD32VF103_standard_peripheral/Source/gd32vf103_adc.c **** /*!
 710:../Firmware/GD32VF103_standard_peripheral/Source/gd32vf103_adc.c ****     \brief      configure ADC analog watchdog threshold 
 711:../Firmware/GD32VF103_standard_peripheral/Source/gd32vf103_adc.c ****     \param[in]  adc_periph: ADCx, x=0,1
 712:../Firmware/GD32VF103_standard_peripheral/Source/gd32vf103_adc.c ****     \param[in]  low_threshold: analog watchdog low threshold, 0..4095
 713:../Firmware/GD32VF103_standard_peripheral/Source/gd32vf103_adc.c ****     \param[in]  high_threshold: analog watchdog high threshold, 0..4095
 714:../Firmware/GD32VF103_standard_peripheral/Source/gd32vf103_adc.c ****     \param[out] none
 715:../Firmware/GD32VF103_standard_peripheral/Source/gd32vf103_adc.c ****     \retval     none
 716:../Firmware/GD32VF103_standard_peripheral/Source/gd32vf103_adc.c **** */
 717:../Firmware/GD32VF103_standard_peripheral/Source/gd32vf103_adc.c **** void adc_watchdog_threshold_config(uint32_t adc_periph, uint16_t low_threshold, uint16_t high_thres
 718:../Firmware/GD32VF103_standard_peripheral/Source/gd32vf103_adc.c **** {
 1334              		.loc 1 718 1 is_stmt 1
 1335              		.cfi_startproc
 1336              	.LVL120:
 719:../Firmware/GD32VF103_standard_peripheral/Source/gd32vf103_adc.c ****     ADC_WDLT(adc_periph) = (uint32_t)WDLT_WDLT(low_threshold);
 1337              		.loc 1 719 5
 1338              		.loc 1 719 28 is_stmt 0
 1339 0000 8567     		li	a5,4096
 1340 0002 FD17     		addi	a5,a5,-1
 1341 0004 FD8D     		and	a1,a1,a5
 1342              	.LVL121:
 1343              		.loc 1 719 26
 1344 0006 0CD5     		sw	a1,40(a0)
 720:../Firmware/GD32VF103_standard_peripheral/Source/gd32vf103_adc.c ****     ADC_WDHT(adc_periph) = (uint32_t)WDHT_WDHT(high_threshold);
 1345              		.loc 1 720 5 is_stmt 1
 1346              		.loc 1 720 28 is_stmt 0
 1347 0008 7D8E     		and	a2,a2,a5
 1348              	.LVL122:
 1349              		.loc 1 720 26
 1350 000a 50D1     		sw	a2,36(a0)
 721:../Firmware/GD32VF103_standard_peripheral/Source/gd32vf103_adc.c **** }
 1351              		.loc 1 721 1
 1352 000c 8280     		ret
 1353              		.cfi_endproc
 1354              	.LFE27:
 1356              		.section	.text.adc_flag_get,"ax",@progbits
 1357              		.align	1
 1358              		.globl	adc_flag_get
 1360              	adc_flag_get:
 1361              	.LFB28:
 722:../Firmware/GD32VF103_standard_peripheral/Source/gd32vf103_adc.c **** 
 723:../Firmware/GD32VF103_standard_peripheral/Source/gd32vf103_adc.c **** /*!
 724:../Firmware/GD32VF103_standard_peripheral/Source/gd32vf103_adc.c ****     \brief      get the ADC flag bits
 725:../Firmware/GD32VF103_standard_peripheral/Source/gd32vf103_adc.c ****     \param[in]  adc_periph: ADCx, x=0,1
 726:../Firmware/GD32VF103_standard_peripheral/Source/gd32vf103_adc.c ****     \param[in]  adc_flag: the adc flag bits
GAS LISTING /tmp/ccOz1Rcm.s 			page 39


 727:../Firmware/GD32VF103_standard_peripheral/Source/gd32vf103_adc.c ****                 only one parameter can be selected which is shown as below:
 728:../Firmware/GD32VF103_standard_peripheral/Source/gd32vf103_adc.c ****       \arg        ADC_FLAG_WDE: analog watchdog event flag
 729:../Firmware/GD32VF103_standard_peripheral/Source/gd32vf103_adc.c ****       \arg        ADC_FLAG_EOC: end of group conversion flag
 730:../Firmware/GD32VF103_standard_peripheral/Source/gd32vf103_adc.c ****       \arg        ADC_FLAG_EOIC: end of inserted group conversion flag
 731:../Firmware/GD32VF103_standard_peripheral/Source/gd32vf103_adc.c ****       \arg        ADC_FLAG_STIC: start flag of inserted channel group
 732:../Firmware/GD32VF103_standard_peripheral/Source/gd32vf103_adc.c ****       \arg        ADC_FLAG_STRC: start flag of regular channel group
 733:../Firmware/GD32VF103_standard_peripheral/Source/gd32vf103_adc.c ****     \param[out] none
 734:../Firmware/GD32VF103_standard_peripheral/Source/gd32vf103_adc.c ****     \retval     FlagStatus: SET or RESET
 735:../Firmware/GD32VF103_standard_peripheral/Source/gd32vf103_adc.c **** */
 736:../Firmware/GD32VF103_standard_peripheral/Source/gd32vf103_adc.c **** FlagStatus adc_flag_get(uint32_t adc_periph, uint32_t adc_flag)
 737:../Firmware/GD32VF103_standard_peripheral/Source/gd32vf103_adc.c **** {
 1362              		.loc 1 737 1 is_stmt 1
 1363              		.cfi_startproc
 1364              	.LVL123:
 738:../Firmware/GD32VF103_standard_peripheral/Source/gd32vf103_adc.c ****     FlagStatus reval = RESET;
 1365              		.loc 1 738 5
 739:../Firmware/GD32VF103_standard_peripheral/Source/gd32vf103_adc.c ****     if(ADC_STAT(adc_periph) & adc_flag){
 1366              		.loc 1 739 5
 1367              		.loc 1 739 8 is_stmt 0
 1368 0000 0841     		lw	a0,0(a0)
 1369              	.LVL124:
 740:../Firmware/GD32VF103_standard_peripheral/Source/gd32vf103_adc.c ****         reval = SET;
 741:../Firmware/GD32VF103_standard_peripheral/Source/gd32vf103_adc.c ****     }
 742:../Firmware/GD32VF103_standard_peripheral/Source/gd32vf103_adc.c ****     return reval;
 1370              		.loc 1 742 5 is_stmt 1
 739:../Firmware/GD32VF103_standard_peripheral/Source/gd32vf103_adc.c ****     if(ADC_STAT(adc_periph) & adc_flag){
 1371              		.loc 1 739 29 is_stmt 0
 1372 0002 6D8D     		and	a0,a0,a1
 1373              	.LVL125:
 743:../Firmware/GD32VF103_standard_peripheral/Source/gd32vf103_adc.c **** }
 1374              		.loc 1 743 1
 1375 0004 3335A000 		snez	a0,a0
 1376 0008 8280     		ret
 1377              		.cfi_endproc
 1378              	.LFE28:
 1380              		.section	.text.adc_flag_clear,"ax",@progbits
 1381              		.align	1
 1382              		.globl	adc_flag_clear
 1384              	adc_flag_clear:
 1385              	.LFB29:
 744:../Firmware/GD32VF103_standard_peripheral/Source/gd32vf103_adc.c **** 
 745:../Firmware/GD32VF103_standard_peripheral/Source/gd32vf103_adc.c **** /*!
 746:../Firmware/GD32VF103_standard_peripheral/Source/gd32vf103_adc.c ****     \brief      clear the ADC flag bits
 747:../Firmware/GD32VF103_standard_peripheral/Source/gd32vf103_adc.c ****     \param[in]  adc_periph: ADCx, x=0,1
 748:../Firmware/GD32VF103_standard_peripheral/Source/gd32vf103_adc.c ****     \param[in]  adc_flag: the adc flag bits
 749:../Firmware/GD32VF103_standard_peripheral/Source/gd32vf103_adc.c ****                 one or more parameters can be selected which are shown as below:
 750:../Firmware/GD32VF103_standard_peripheral/Source/gd32vf103_adc.c ****       \arg        ADC_FLAG_WDE: analog watchdog event flag
 751:../Firmware/GD32VF103_standard_peripheral/Source/gd32vf103_adc.c ****       \arg        ADC_FLAG_EOC: end of group conversion flag
 752:../Firmware/GD32VF103_standard_peripheral/Source/gd32vf103_adc.c ****       \arg        ADC_FLAG_EOIC: end of inserted group conversion flag
 753:../Firmware/GD32VF103_standard_peripheral/Source/gd32vf103_adc.c ****       \arg        ADC_FLAG_STIC: start flag of inserted channel group
 754:../Firmware/GD32VF103_standard_peripheral/Source/gd32vf103_adc.c ****       \arg        ADC_FLAG_STRC: start flag of regular channel group
 755:../Firmware/GD32VF103_standard_peripheral/Source/gd32vf103_adc.c ****     \param[out] none
 756:../Firmware/GD32VF103_standard_peripheral/Source/gd32vf103_adc.c ****     \retval     none
 757:../Firmware/GD32VF103_standard_peripheral/Source/gd32vf103_adc.c **** */
 758:../Firmware/GD32VF103_standard_peripheral/Source/gd32vf103_adc.c **** void adc_flag_clear(uint32_t adc_periph, uint32_t adc_flag)
 759:../Firmware/GD32VF103_standard_peripheral/Source/gd32vf103_adc.c **** {
 1386              		.loc 1 759 1 is_stmt 1
GAS LISTING /tmp/ccOz1Rcm.s 			page 40


 1387              		.cfi_startproc
 1388              	.LVL126:
 760:../Firmware/GD32VF103_standard_peripheral/Source/gd32vf103_adc.c ****     ADC_STAT(adc_periph) &= ~((uint32_t)adc_flag);
 1389              		.loc 1 760 5
 1390              		.loc 1 760 26 is_stmt 0
 1391 0000 1C41     		lw	a5,0(a0)
 1392              		.loc 1 760 29
 1393 0002 93C5F5FF 		not	a1,a1
 1394              	.LVL127:
 1395              		.loc 1 760 26
 1396 0006 FD8D     		and	a1,a1,a5
 1397              	.LVL128:
 1398 0008 0CC1     		sw	a1,0(a0)
 761:../Firmware/GD32VF103_standard_peripheral/Source/gd32vf103_adc.c **** }
 1399              		.loc 1 761 1
 1400 000a 8280     		ret
 1401              		.cfi_endproc
 1402              	.LFE29:
 1404              		.section	.text.adc_regular_software_startconv_flag_get,"ax",@progbits
 1405              		.align	1
 1406              		.globl	adc_regular_software_startconv_flag_get
 1408              	adc_regular_software_startconv_flag_get:
 1409              	.LFB30:
 762:../Firmware/GD32VF103_standard_peripheral/Source/gd32vf103_adc.c **** 
 763:../Firmware/GD32VF103_standard_peripheral/Source/gd32vf103_adc.c **** /*!
 764:../Firmware/GD32VF103_standard_peripheral/Source/gd32vf103_adc.c ****     \brief      get the bit state of ADCx software start conversion
 765:../Firmware/GD32VF103_standard_peripheral/Source/gd32vf103_adc.c ****     \param[in]  adc_periph: ADCx, x=0,1
 766:../Firmware/GD32VF103_standard_peripheral/Source/gd32vf103_adc.c ****     \param[in]  none
 767:../Firmware/GD32VF103_standard_peripheral/Source/gd32vf103_adc.c ****     \param[out] none
 768:../Firmware/GD32VF103_standard_peripheral/Source/gd32vf103_adc.c ****     \retval     FlagStatus: SET or RESET
 769:../Firmware/GD32VF103_standard_peripheral/Source/gd32vf103_adc.c **** */
 770:../Firmware/GD32VF103_standard_peripheral/Source/gd32vf103_adc.c **** FlagStatus adc_regular_software_startconv_flag_get(uint32_t adc_periph)
 771:../Firmware/GD32VF103_standard_peripheral/Source/gd32vf103_adc.c **** {
 1410              		.loc 1 771 1 is_stmt 1
 1411              		.cfi_startproc
 1412              	.LVL129:
 772:../Firmware/GD32VF103_standard_peripheral/Source/gd32vf103_adc.c ****     FlagStatus reval = RESET;
 1413              		.loc 1 772 5
 773:../Firmware/GD32VF103_standard_peripheral/Source/gd32vf103_adc.c ****     if((uint32_t)RESET != (ADC_CTL1(adc_periph) & ADC_CTL1_SWRCST)){
 1414              		.loc 1 773 5
 1415              		.loc 1 773 28 is_stmt 0
 1416 0000 0845     		lw	a0,8(a0)
 1417              	.LVL130:
 774:../Firmware/GD32VF103_standard_peripheral/Source/gd32vf103_adc.c ****         reval = SET;
 775:../Firmware/GD32VF103_standard_peripheral/Source/gd32vf103_adc.c ****     }
 776:../Firmware/GD32VF103_standard_peripheral/Source/gd32vf103_adc.c ****     return reval;
 1418              		.loc 1 776 5 is_stmt 1
 773:../Firmware/GD32VF103_standard_peripheral/Source/gd32vf103_adc.c ****     if((uint32_t)RESET != (ADC_CTL1(adc_periph) & ADC_CTL1_SWRCST)){
 1419              		.loc 1 773 7 is_stmt 0
 1420 0002 5981     		srli	a0,a0,22
 1421              	.LVL131:
 777:../Firmware/GD32VF103_standard_peripheral/Source/gd32vf103_adc.c **** }
 1422              		.loc 1 777 1
 1423 0004 0589     		andi	a0,a0,1
 1424 0006 8280     		ret
 1425              		.cfi_endproc
 1426              	.LFE30:
GAS LISTING /tmp/ccOz1Rcm.s 			page 41


 1428              		.section	.text.adc_inserted_software_startconv_flag_get,"ax",@progbits
 1429              		.align	1
 1430              		.globl	adc_inserted_software_startconv_flag_get
 1432              	adc_inserted_software_startconv_flag_get:
 1433              	.LFB31:
 778:../Firmware/GD32VF103_standard_peripheral/Source/gd32vf103_adc.c **** 
 779:../Firmware/GD32VF103_standard_peripheral/Source/gd32vf103_adc.c **** /*!
 780:../Firmware/GD32VF103_standard_peripheral/Source/gd32vf103_adc.c ****     \brief      get the bit state of ADCx software inserted channel start conversion
 781:../Firmware/GD32VF103_standard_peripheral/Source/gd32vf103_adc.c ****     \param[in]  adc_periph: ADCx, x=0,1
 782:../Firmware/GD32VF103_standard_peripheral/Source/gd32vf103_adc.c ****     \param[in]  none
 783:../Firmware/GD32VF103_standard_peripheral/Source/gd32vf103_adc.c ****     \param[out] none
 784:../Firmware/GD32VF103_standard_peripheral/Source/gd32vf103_adc.c ****     \retval     FlagStatus: SET or RESET
 785:../Firmware/GD32VF103_standard_peripheral/Source/gd32vf103_adc.c **** */
 786:../Firmware/GD32VF103_standard_peripheral/Source/gd32vf103_adc.c **** FlagStatus adc_inserted_software_startconv_flag_get(uint32_t adc_periph)
 787:../Firmware/GD32VF103_standard_peripheral/Source/gd32vf103_adc.c **** {
 1434              		.loc 1 787 1 is_stmt 1
 1435              		.cfi_startproc
 1436              	.LVL132:
 788:../Firmware/GD32VF103_standard_peripheral/Source/gd32vf103_adc.c ****     FlagStatus reval = RESET;
 1437              		.loc 1 788 5
 789:../Firmware/GD32VF103_standard_peripheral/Source/gd32vf103_adc.c ****     if((uint32_t)RESET != (ADC_CTL1(adc_periph) & ADC_CTL1_SWICST)){
 1438              		.loc 1 789 5
 1439              		.loc 1 789 28 is_stmt 0
 1440 0000 0845     		lw	a0,8(a0)
 1441              	.LVL133:
 790:../Firmware/GD32VF103_standard_peripheral/Source/gd32vf103_adc.c ****         reval = SET;
 791:../Firmware/GD32VF103_standard_peripheral/Source/gd32vf103_adc.c ****     }
 792:../Firmware/GD32VF103_standard_peripheral/Source/gd32vf103_adc.c ****     return reval;
 1442              		.loc 1 792 5 is_stmt 1
 789:../Firmware/GD32VF103_standard_peripheral/Source/gd32vf103_adc.c ****     if((uint32_t)RESET != (ADC_CTL1(adc_periph) & ADC_CTL1_SWICST)){
 1443              		.loc 1 789 7 is_stmt 0
 1444 0002 5581     		srli	a0,a0,21
 1445              	.LVL134:
 793:../Firmware/GD32VF103_standard_peripheral/Source/gd32vf103_adc.c **** }
 1446              		.loc 1 793 1
 1447 0004 0589     		andi	a0,a0,1
 1448 0006 8280     		ret
 1449              		.cfi_endproc
 1450              	.LFE31:
 1452              		.section	.text.adc_interrupt_flag_get,"ax",@progbits
 1453              		.align	1
 1454              		.globl	adc_interrupt_flag_get
 1456              	adc_interrupt_flag_get:
 1457              	.LFB32:
 794:../Firmware/GD32VF103_standard_peripheral/Source/gd32vf103_adc.c **** 
 795:../Firmware/GD32VF103_standard_peripheral/Source/gd32vf103_adc.c **** /*!
 796:../Firmware/GD32VF103_standard_peripheral/Source/gd32vf103_adc.c ****     \brief      get the ADC interrupt bits
 797:../Firmware/GD32VF103_standard_peripheral/Source/gd32vf103_adc.c ****     \param[in]  adc_periph: ADCx, x=0,1
 798:../Firmware/GD32VF103_standard_peripheral/Source/gd32vf103_adc.c ****     \param[in]  adc_interrupt: the adc interrupt bits
 799:../Firmware/GD32VF103_standard_peripheral/Source/gd32vf103_adc.c ****                 only one parameter can be selected which is shown as below:
 800:../Firmware/GD32VF103_standard_peripheral/Source/gd32vf103_adc.c ****       \arg        ADC_INT_FLAG_WDE: analog watchdog interrupt
 801:../Firmware/GD32VF103_standard_peripheral/Source/gd32vf103_adc.c ****       \arg        ADC_INT_FLAG_EOC: end of group conversion interrupt
 802:../Firmware/GD32VF103_standard_peripheral/Source/gd32vf103_adc.c ****       \arg        ADC_INT_FLAG_EOIC: end of inserted group conversion interrupt
 803:../Firmware/GD32VF103_standard_peripheral/Source/gd32vf103_adc.c ****     \param[out] none
 804:../Firmware/GD32VF103_standard_peripheral/Source/gd32vf103_adc.c ****     \retval     FlagStatus: SET or RESET
 805:../Firmware/GD32VF103_standard_peripheral/Source/gd32vf103_adc.c **** */
 806:../Firmware/GD32VF103_standard_peripheral/Source/gd32vf103_adc.c **** FlagStatus adc_interrupt_flag_get(uint32_t adc_periph, uint32_t adc_interrupt)
GAS LISTING /tmp/ccOz1Rcm.s 			page 42


 807:../Firmware/GD32VF103_standard_peripheral/Source/gd32vf103_adc.c **** {
 1458              		.loc 1 807 1 is_stmt 1
 1459              		.cfi_startproc
 1460              	.LVL135:
 808:../Firmware/GD32VF103_standard_peripheral/Source/gd32vf103_adc.c ****     FlagStatus interrupt_flag = RESET;
 1461              		.loc 1 808 5
 809:../Firmware/GD32VF103_standard_peripheral/Source/gd32vf103_adc.c ****     uint32_t state;
 1462              		.loc 1 809 5
 810:../Firmware/GD32VF103_standard_peripheral/Source/gd32vf103_adc.c ****     /* check the interrupt bits */
 811:../Firmware/GD32VF103_standard_peripheral/Source/gd32vf103_adc.c ****     switch(adc_interrupt){
 1463              		.loc 1 811 5
 1464 0000 0947     		li	a4,2
 807:../Firmware/GD32VF103_standard_peripheral/Source/gd32vf103_adc.c ****     FlagStatus interrupt_flag = RESET;
 1465              		.loc 1 807 1 is_stmt 0
 1466 0002 AA87     		mv	a5,a0
 1467              		.loc 1 811 5
 1468 0004 638BE502 		beq	a1,a4,.L131
 1469 0008 1147     		li	a4,4
 1470 000a 638FE500 		beq	a1,a4,.L132
 1471 000e 0547     		li	a4,1
 1472 0010 0145     		li	a0,0
 1473              	.LVL136:
 1474 0012 6383E500 		beq	a1,a4,.L144
 1475              	.L130:
 812:../Firmware/GD32VF103_standard_peripheral/Source/gd32vf103_adc.c ****     case ADC_INT_FLAG_WDE:
 813:../Firmware/GD32VF103_standard_peripheral/Source/gd32vf103_adc.c ****         /* get the ADC analog watchdog interrupt bits */
 814:../Firmware/GD32VF103_standard_peripheral/Source/gd32vf103_adc.c ****         state = ADC_STAT(adc_periph) & ADC_STAT_WDE;
 815:../Firmware/GD32VF103_standard_peripheral/Source/gd32vf103_adc.c ****         if((ADC_CTL0(adc_periph) & ADC_CTL0_WDEIE) && state){
 816:../Firmware/GD32VF103_standard_peripheral/Source/gd32vf103_adc.c ****           interrupt_flag = SET;
 817:../Firmware/GD32VF103_standard_peripheral/Source/gd32vf103_adc.c ****         }
 818:../Firmware/GD32VF103_standard_peripheral/Source/gd32vf103_adc.c ****         break;
 819:../Firmware/GD32VF103_standard_peripheral/Source/gd32vf103_adc.c ****     case ADC_INT_FLAG_EOC:
 820:../Firmware/GD32VF103_standard_peripheral/Source/gd32vf103_adc.c ****         /* get the ADC end of group conversion interrupt bits */
 821:../Firmware/GD32VF103_standard_peripheral/Source/gd32vf103_adc.c ****         state = ADC_STAT(adc_periph) & ADC_STAT_EOC;
 822:../Firmware/GD32VF103_standard_peripheral/Source/gd32vf103_adc.c ****           if((ADC_CTL0(adc_periph) & ADC_CTL0_EOCIE) && state){
 823:../Firmware/GD32VF103_standard_peripheral/Source/gd32vf103_adc.c ****             interrupt_flag = SET;
 824:../Firmware/GD32VF103_standard_peripheral/Source/gd32vf103_adc.c ****           }
 825:../Firmware/GD32VF103_standard_peripheral/Source/gd32vf103_adc.c ****         break;
 826:../Firmware/GD32VF103_standard_peripheral/Source/gd32vf103_adc.c ****     case ADC_INT_FLAG_EOIC:
 827:../Firmware/GD32VF103_standard_peripheral/Source/gd32vf103_adc.c ****         /* get the ADC end of inserted group conversion interrupt bits */
 828:../Firmware/GD32VF103_standard_peripheral/Source/gd32vf103_adc.c ****         state = ADC_STAT(adc_periph) & ADC_STAT_EOIC;
 829:../Firmware/GD32VF103_standard_peripheral/Source/gd32vf103_adc.c ****         if((ADC_CTL0(adc_periph) & ADC_CTL0_EOICIE) && state){
 830:../Firmware/GD32VF103_standard_peripheral/Source/gd32vf103_adc.c ****             interrupt_flag = SET;
 831:../Firmware/GD32VF103_standard_peripheral/Source/gd32vf103_adc.c ****         }
 832:../Firmware/GD32VF103_standard_peripheral/Source/gd32vf103_adc.c ****         break;
 833:../Firmware/GD32VF103_standard_peripheral/Source/gd32vf103_adc.c ****     default:
 834:../Firmware/GD32VF103_standard_peripheral/Source/gd32vf103_adc.c ****         break;
 835:../Firmware/GD32VF103_standard_peripheral/Source/gd32vf103_adc.c ****     }
 836:../Firmware/GD32VF103_standard_peripheral/Source/gd32vf103_adc.c ****     return interrupt_flag;
 837:../Firmware/GD32VF103_standard_peripheral/Source/gd32vf103_adc.c **** }
 1476              		.loc 1 837 1
 1477 0016 8280     		ret
 1478              	.L144:
 814:../Firmware/GD32VF103_standard_peripheral/Source/gd32vf103_adc.c ****         if((ADC_CTL0(adc_periph) & ADC_CTL0_WDEIE) && state){
 1479              		.loc 1 814 9 is_stmt 1
 814:../Firmware/GD32VF103_standard_peripheral/Source/gd32vf103_adc.c ****         if((ADC_CTL0(adc_periph) & ADC_CTL0_WDEIE) && state){
 1480              		.loc 1 814 17 is_stmt 0
GAS LISTING /tmp/ccOz1Rcm.s 			page 43


 1481 0018 9843     		lw	a4,0(a5)
 1482              	.LVL137:
 815:../Firmware/GD32VF103_standard_peripheral/Source/gd32vf103_adc.c ****           interrupt_flag = SET;
 1483              		.loc 1 815 9 is_stmt 1
 815:../Firmware/GD32VF103_standard_peripheral/Source/gd32vf103_adc.c ****           interrupt_flag = SET;
 1484              		.loc 1 815 13 is_stmt 0
 1485 001a C843     		lw	a0,4(a5)
 815:../Firmware/GD32VF103_standard_peripheral/Source/gd32vf103_adc.c ****           interrupt_flag = SET;
 1486              		.loc 1 815 34
 1487 001c 13750504 		andi	a0,a0,64
 815:../Firmware/GD32VF103_standard_peripheral/Source/gd32vf103_adc.c ****           interrupt_flag = SET;
 1488              		.loc 1 815 11
 1489 0020 7DD9     		beq	a0,zero,.L130
 814:../Firmware/GD32VF103_standard_peripheral/Source/gd32vf103_adc.c ****         if((ADC_CTL0(adc_periph) & ADC_CTL0_WDEIE) && state){
 1490              		.loc 1 814 15 discriminator 1
 1491 0022 13751700 		andi	a0,a4,1
 1492              	.LVL138:
 1493 0026 8280     		ret
 1494              	.LVL139:
 1495              	.L132:
 828:../Firmware/GD32VF103_standard_peripheral/Source/gd32vf103_adc.c ****         if((ADC_CTL0(adc_periph) & ADC_CTL0_EOICIE) && state){
 1496              		.loc 1 828 9 is_stmt 1
 828:../Firmware/GD32VF103_standard_peripheral/Source/gd32vf103_adc.c ****         if((ADC_CTL0(adc_periph) & ADC_CTL0_EOICIE) && state){
 1497              		.loc 1 828 17 is_stmt 0
 1498 0028 1841     		lw	a4,0(a0)
 1499              	.LVL140:
 829:../Firmware/GD32VF103_standard_peripheral/Source/gd32vf103_adc.c ****             interrupt_flag = SET;
 1500              		.loc 1 829 9 is_stmt 1
 829:../Firmware/GD32VF103_standard_peripheral/Source/gd32vf103_adc.c ****             interrupt_flag = SET;
 1501              		.loc 1 829 13 is_stmt 0
 1502 002a 4841     		lw	a0,4(a0)
 1503              	.LVL141:
 829:../Firmware/GD32VF103_standard_peripheral/Source/gd32vf103_adc.c ****             interrupt_flag = SET;
 1504              		.loc 1 829 34
 1505 002c 13750508 		andi	a0,a0,128
 829:../Firmware/GD32VF103_standard_peripheral/Source/gd32vf103_adc.c ****             interrupt_flag = SET;
 1506              		.loc 1 829 11
 1507 0030 7DD1     		beq	a0,zero,.L130
 829:../Firmware/GD32VF103_standard_peripheral/Source/gd32vf103_adc.c ****             interrupt_flag = SET;
 1508              		.loc 1 829 53 discriminator 1
 1509 0032 13552700 		srli	a0,a4,2
 1510 0036 0589     		andi	a0,a0,1
 1511              		.loc 1 837 1 discriminator 1
 1512 0038 8280     		ret
 1513              	.LVL142:
 1514              	.L131:
 821:../Firmware/GD32VF103_standard_peripheral/Source/gd32vf103_adc.c ****           if((ADC_CTL0(adc_periph) & ADC_CTL0_EOCIE) && state){
 1515              		.loc 1 821 9 is_stmt 1
 821:../Firmware/GD32VF103_standard_peripheral/Source/gd32vf103_adc.c ****           if((ADC_CTL0(adc_periph) & ADC_CTL0_EOCIE) && state){
 1516              		.loc 1 821 17 is_stmt 0
 1517 003a 1841     		lw	a4,0(a0)
 1518              	.LVL143:
 822:../Firmware/GD32VF103_standard_peripheral/Source/gd32vf103_adc.c ****             interrupt_flag = SET;
 1519              		.loc 1 822 11 is_stmt 1
 822:../Firmware/GD32VF103_standard_peripheral/Source/gd32vf103_adc.c ****             interrupt_flag = SET;
 1520              		.loc 1 822 15 is_stmt 0
 1521 003c 4841     		lw	a0,4(a0)
GAS LISTING /tmp/ccOz1Rcm.s 			page 44


 1522              	.LVL144:
 822:../Firmware/GD32VF103_standard_peripheral/Source/gd32vf103_adc.c ****             interrupt_flag = SET;
 1523              		.loc 1 822 36
 1524 003e 13750502 		andi	a0,a0,32
 822:../Firmware/GD32VF103_standard_peripheral/Source/gd32vf103_adc.c ****             interrupt_flag = SET;
 1525              		.loc 1 822 13
 1526 0042 71D9     		beq	a0,zero,.L130
 822:../Firmware/GD32VF103_standard_peripheral/Source/gd32vf103_adc.c ****             interrupt_flag = SET;
 1527              		.loc 1 822 54 discriminator 1
 1528 0044 13551700 		srli	a0,a4,1
 1529 0048 0589     		andi	a0,a0,1
 1530 004a 8280     		ret
 1531              		.cfi_endproc
 1532              	.LFE32:
 1534              		.section	.text.adc_interrupt_flag_clear,"ax",@progbits
 1535              		.align	1
 1536              		.globl	adc_interrupt_flag_clear
 1538              	adc_interrupt_flag_clear:
 1539              	.LFB41:
 1540              		.cfi_startproc
 1541 0000 1C41     		lw	a5,0(a0)
 1542 0002 93C5F5FF 		not	a1,a1
 1543 0006 FD8D     		and	a1,a1,a5
 1544 0008 0CC1     		sw	a1,0(a0)
 1545 000a 8280     		ret
 1546              		.cfi_endproc
 1547              	.LFE41:
 1549              		.section	.text.adc_interrupt_enable,"ax",@progbits
 1550              		.align	1
 1551              		.globl	adc_interrupt_enable
 1553              	adc_interrupt_enable:
 1554              	.LFB34:
 838:../Firmware/GD32VF103_standard_peripheral/Source/gd32vf103_adc.c **** 
 839:../Firmware/GD32VF103_standard_peripheral/Source/gd32vf103_adc.c **** /*!
 840:../Firmware/GD32VF103_standard_peripheral/Source/gd32vf103_adc.c ****     \brief      clear the ADC flag
 841:../Firmware/GD32VF103_standard_peripheral/Source/gd32vf103_adc.c ****     \param[in]  adc_periph: ADCx, x=0,1
 842:../Firmware/GD32VF103_standard_peripheral/Source/gd32vf103_adc.c ****     \param[in]  adc_interrupt: the adc status flag
 843:../Firmware/GD32VF103_standard_peripheral/Source/gd32vf103_adc.c ****                 one or more parameters can be selected which are shown as below:
 844:../Firmware/GD32VF103_standard_peripheral/Source/gd32vf103_adc.c ****       \arg        ADC_INT_FLAG_WDE: analog watchdog interrupt
 845:../Firmware/GD32VF103_standard_peripheral/Source/gd32vf103_adc.c ****       \arg        ADC_INT_FLAG_EOC: end of group conversion interrupt
 846:../Firmware/GD32VF103_standard_peripheral/Source/gd32vf103_adc.c ****       \arg        ADC_INT_FLAG_EOIC: end of inserted group conversion interrupt
 847:../Firmware/GD32VF103_standard_peripheral/Source/gd32vf103_adc.c ****     \param[out] none
 848:../Firmware/GD32VF103_standard_peripheral/Source/gd32vf103_adc.c ****     \retval     none
 849:../Firmware/GD32VF103_standard_peripheral/Source/gd32vf103_adc.c **** */
 850:../Firmware/GD32VF103_standard_peripheral/Source/gd32vf103_adc.c **** void adc_interrupt_flag_clear(uint32_t adc_periph, uint32_t adc_interrupt)
 851:../Firmware/GD32VF103_standard_peripheral/Source/gd32vf103_adc.c **** {
 852:../Firmware/GD32VF103_standard_peripheral/Source/gd32vf103_adc.c ****     ADC_STAT(adc_periph) &= ~((uint32_t)adc_interrupt);
 853:../Firmware/GD32VF103_standard_peripheral/Source/gd32vf103_adc.c **** }
 854:../Firmware/GD32VF103_standard_peripheral/Source/gd32vf103_adc.c **** 
 855:../Firmware/GD32VF103_standard_peripheral/Source/gd32vf103_adc.c **** /*!
 856:../Firmware/GD32VF103_standard_peripheral/Source/gd32vf103_adc.c ****     \brief      enable ADC interrupt 
 857:../Firmware/GD32VF103_standard_peripheral/Source/gd32vf103_adc.c ****     \param[in]  adc_periph: ADCx, x=0,1
 858:../Firmware/GD32VF103_standard_peripheral/Source/gd32vf103_adc.c ****     \param[in]  adc_interrupt: the adc interrupt
 859:../Firmware/GD32VF103_standard_peripheral/Source/gd32vf103_adc.c ****                 one or more parameters can be selected which are shown as below:
 860:../Firmware/GD32VF103_standard_peripheral/Source/gd32vf103_adc.c ****       \arg        ADC_INT_WDE: analog watchdog interrupt flag
 861:../Firmware/GD32VF103_standard_peripheral/Source/gd32vf103_adc.c ****       \arg        ADC_INT_EOC: end of group conversion interrupt flag
 862:../Firmware/GD32VF103_standard_peripheral/Source/gd32vf103_adc.c ****       \arg        ADC_INT_EOIC: end of inserted group conversion interrupt flag
GAS LISTING /tmp/ccOz1Rcm.s 			page 45


 863:../Firmware/GD32VF103_standard_peripheral/Source/gd32vf103_adc.c ****     \param[out] none
 864:../Firmware/GD32VF103_standard_peripheral/Source/gd32vf103_adc.c ****     \retval     none
 865:../Firmware/GD32VF103_standard_peripheral/Source/gd32vf103_adc.c **** */
 866:../Firmware/GD32VF103_standard_peripheral/Source/gd32vf103_adc.c **** void adc_interrupt_enable(uint32_t adc_periph, uint32_t adc_interrupt)
 867:../Firmware/GD32VF103_standard_peripheral/Source/gd32vf103_adc.c **** {
 1555              		.loc 1 867 1 is_stmt 1
 1556              		.cfi_startproc
 1557              	.LVL145:
 868:../Firmware/GD32VF103_standard_peripheral/Source/gd32vf103_adc.c ****     /* enable ADC analog watchdog interrupt */
 869:../Firmware/GD32VF103_standard_peripheral/Source/gd32vf103_adc.c ****     if(0U != (adc_interrupt & ADC_INT_WDE)){
 1558              		.loc 1 869 5
 1559              		.loc 1 869 29 is_stmt 0
 1560 0000 93F71500 		andi	a5,a1,1
 1561              		.loc 1 869 7
 1562 0004 89C7     		beq	a5,zero,.L147
 870:../Firmware/GD32VF103_standard_peripheral/Source/gd32vf103_adc.c ****         ADC_CTL0(adc_periph) |= (uint32_t) ADC_CTL0_WDEIE;
 1563              		.loc 1 870 9 is_stmt 1
 1564              		.loc 1 870 30 is_stmt 0
 1565 0006 5C41     		lw	a5,4(a0)
 1566 0008 93E70704 		ori	a5,a5,64
 1567 000c 5CC1     		sw	a5,4(a0)
 1568              	.L147:
 871:../Firmware/GD32VF103_standard_peripheral/Source/gd32vf103_adc.c ****     }  
 872:../Firmware/GD32VF103_standard_peripheral/Source/gd32vf103_adc.c ****     /* enable ADC end of group conversion interrupt */
 873:../Firmware/GD32VF103_standard_peripheral/Source/gd32vf103_adc.c ****     if(0U != (adc_interrupt & ADC_INT_EOC)){      
 1569              		.loc 1 873 5 is_stmt 1
 1570              		.loc 1 873 29 is_stmt 0
 1571 000e 93F72500 		andi	a5,a1,2
 1572              		.loc 1 873 7
 1573 0012 89C7     		beq	a5,zero,.L148
 874:../Firmware/GD32VF103_standard_peripheral/Source/gd32vf103_adc.c ****         ADC_CTL0(adc_periph) |= (uint32_t) ADC_CTL0_EOCIE;
 1574              		.loc 1 874 9 is_stmt 1
 1575              		.loc 1 874 30 is_stmt 0
 1576 0014 5C41     		lw	a5,4(a0)
 1577 0016 93E70702 		ori	a5,a5,32
 1578 001a 5CC1     		sw	a5,4(a0)
 1579              	.L148:
 875:../Firmware/GD32VF103_standard_peripheral/Source/gd32vf103_adc.c ****     }  
 876:../Firmware/GD32VF103_standard_peripheral/Source/gd32vf103_adc.c ****     /* enable ADC end of inserted group conversion interrupt */
 877:../Firmware/GD32VF103_standard_peripheral/Source/gd32vf103_adc.c ****     if(0U != (adc_interrupt & ADC_INT_EOIC)){      
 1580              		.loc 1 877 5 is_stmt 1
 1581              		.loc 1 877 29 is_stmt 0
 1582 001c 9189     		andi	a1,a1,4
 1583              	.LVL146:
 1584              		.loc 1 877 7
 1585 001e 89C5     		beq	a1,zero,.L146
 878:../Firmware/GD32VF103_standard_peripheral/Source/gd32vf103_adc.c ****         ADC_CTL0(adc_periph) |= (uint32_t) ADC_CTL0_EOICIE;
 1586              		.loc 1 878 9 is_stmt 1
 1587              		.loc 1 878 30 is_stmt 0
 1588 0020 5C41     		lw	a5,4(a0)
 1589 0022 93E70708 		ori	a5,a5,128
 1590 0026 5CC1     		sw	a5,4(a0)
 1591              	.L146:
 879:../Firmware/GD32VF103_standard_peripheral/Source/gd32vf103_adc.c ****     }
 880:../Firmware/GD32VF103_standard_peripheral/Source/gd32vf103_adc.c **** }
 1592              		.loc 1 880 1
 1593 0028 8280     		ret
GAS LISTING /tmp/ccOz1Rcm.s 			page 46


 1594              		.cfi_endproc
 1595              	.LFE34:
 1597              		.section	.text.adc_interrupt_disable,"ax",@progbits
 1598              		.align	1
 1599              		.globl	adc_interrupt_disable
 1601              	adc_interrupt_disable:
 1602              	.LFB35:
 881:../Firmware/GD32VF103_standard_peripheral/Source/gd32vf103_adc.c **** 
 882:../Firmware/GD32VF103_standard_peripheral/Source/gd32vf103_adc.c **** /*!
 883:../Firmware/GD32VF103_standard_peripheral/Source/gd32vf103_adc.c ****     \brief      disable ADC interrupt 
 884:../Firmware/GD32VF103_standard_peripheral/Source/gd32vf103_adc.c ****     \param[in]  adc_periph: ADCx, x=0,1
 885:../Firmware/GD32VF103_standard_peripheral/Source/gd32vf103_adc.c ****     \param[in]  adc_interrupt: the adc interrupt flag
 886:../Firmware/GD32VF103_standard_peripheral/Source/gd32vf103_adc.c ****                 one or more parameters can be selected which are shown as below:
 887:../Firmware/GD32VF103_standard_peripheral/Source/gd32vf103_adc.c ****       \arg        ADC_INT_WDE: analog watchdog interrupt flag
 888:../Firmware/GD32VF103_standard_peripheral/Source/gd32vf103_adc.c ****       \arg        ADC_INT_EOC: end of group conversion interrupt flag
 889:../Firmware/GD32VF103_standard_peripheral/Source/gd32vf103_adc.c ****       \arg        ADC_INT_EOIC: end of inserted group conversion interrupt flag
 890:../Firmware/GD32VF103_standard_peripheral/Source/gd32vf103_adc.c ****     \param[out] none
 891:../Firmware/GD32VF103_standard_peripheral/Source/gd32vf103_adc.c ****     \retval     none
 892:../Firmware/GD32VF103_standard_peripheral/Source/gd32vf103_adc.c **** */
 893:../Firmware/GD32VF103_standard_peripheral/Source/gd32vf103_adc.c **** void adc_interrupt_disable(uint32_t adc_periph, uint32_t adc_interrupt)
 894:../Firmware/GD32VF103_standard_peripheral/Source/gd32vf103_adc.c **** {  
 1603              		.loc 1 894 1 is_stmt 1
 1604              		.cfi_startproc
 1605              	.LVL147:
 895:../Firmware/GD32VF103_standard_peripheral/Source/gd32vf103_adc.c ****     /* disable ADC analog watchdog interrupt */
 896:../Firmware/GD32VF103_standard_peripheral/Source/gd32vf103_adc.c ****     if(0U != (adc_interrupt & ADC_INT_WDE)){  
 1606              		.loc 1 896 5
 1607              		.loc 1 896 29 is_stmt 0
 1608 0000 93F71500 		andi	a5,a1,1
 1609              		.loc 1 896 7
 1610 0004 89C7     		beq	a5,zero,.L160
 897:../Firmware/GD32VF103_standard_peripheral/Source/gd32vf103_adc.c ****         ADC_CTL0(adc_periph) &= ~(uint32_t) ADC_CTL0_WDEIE;
 1611              		.loc 1 897 9 is_stmt 1
 1612              		.loc 1 897 30 is_stmt 0
 1613 0006 5C41     		lw	a5,4(a0)
 1614 0008 93F7F7FB 		andi	a5,a5,-65
 1615 000c 5CC1     		sw	a5,4(a0)
 1616              	.L160:
 898:../Firmware/GD32VF103_standard_peripheral/Source/gd32vf103_adc.c ****     }  
 899:../Firmware/GD32VF103_standard_peripheral/Source/gd32vf103_adc.c ****     /* disable ADC end of group conversion interrupt */
 900:../Firmware/GD32VF103_standard_peripheral/Source/gd32vf103_adc.c ****     if(0U != (adc_interrupt & ADC_INT_EOC)){      
 1617              		.loc 1 900 5 is_stmt 1
 1618              		.loc 1 900 29 is_stmt 0
 1619 000e 93F72500 		andi	a5,a1,2
 1620              		.loc 1 900 7
 1621 0012 89C7     		beq	a5,zero,.L161
 901:../Firmware/GD32VF103_standard_peripheral/Source/gd32vf103_adc.c ****         ADC_CTL0(adc_periph) &= ~(uint32_t) ADC_CTL0_EOCIE;
 1622              		.loc 1 901 9 is_stmt 1
 1623              		.loc 1 901 30 is_stmt 0
 1624 0014 5C41     		lw	a5,4(a0)
 1625 0016 93F7F7FD 		andi	a5,a5,-33
 1626 001a 5CC1     		sw	a5,4(a0)
 1627              	.L161:
 902:../Firmware/GD32VF103_standard_peripheral/Source/gd32vf103_adc.c ****     }  
 903:../Firmware/GD32VF103_standard_peripheral/Source/gd32vf103_adc.c ****     /* disable ADC end of inserted group conversion interrupt */
 904:../Firmware/GD32VF103_standard_peripheral/Source/gd32vf103_adc.c ****     if(0U != (adc_interrupt & ADC_INT_EOIC)){      
 1628              		.loc 1 904 5 is_stmt 1
GAS LISTING /tmp/ccOz1Rcm.s 			page 47


 1629              		.loc 1 904 29 is_stmt 0
 1630 001c 9189     		andi	a1,a1,4
 1631              	.LVL148:
 1632              		.loc 1 904 7
 1633 001e 89C5     		beq	a1,zero,.L159
 905:../Firmware/GD32VF103_standard_peripheral/Source/gd32vf103_adc.c ****         ADC_CTL0(adc_periph) &= ~(uint32_t) ADC_CTL0_EOICIE;
 1634              		.loc 1 905 9 is_stmt 1
 1635              		.loc 1 905 30 is_stmt 0
 1636 0020 5C41     		lw	a5,4(a0)
 1637 0022 93F7F7F7 		andi	a5,a5,-129
 1638 0026 5CC1     		sw	a5,4(a0)
 1639              	.L159:
 906:../Firmware/GD32VF103_standard_peripheral/Source/gd32vf103_adc.c ****     }
 907:../Firmware/GD32VF103_standard_peripheral/Source/gd32vf103_adc.c **** }
 1640              		.loc 1 907 1
 1641 0028 8280     		ret
 1642              		.cfi_endproc
 1643              	.LFE35:
 1645              		.section	.text.adc_resolution_config,"ax",@progbits
 1646              		.align	1
 1647              		.globl	adc_resolution_config
 1649              	adc_resolution_config:
 1650              	.LFB36:
 908:../Firmware/GD32VF103_standard_peripheral/Source/gd32vf103_adc.c **** 
 909:../Firmware/GD32VF103_standard_peripheral/Source/gd32vf103_adc.c **** /*!
 910:../Firmware/GD32VF103_standard_peripheral/Source/gd32vf103_adc.c ****     \brief      adc resolution config
 911:../Firmware/GD32VF103_standard_peripheral/Source/gd32vf103_adc.c ****     \param[in]  adc_periph: ADCx, x=0,1
 912:../Firmware/GD32VF103_standard_peripheral/Source/gd32vf103_adc.c ****     \param[in]  resolution: ADC resolution
 913:../Firmware/GD32VF103_standard_peripheral/Source/gd32vf103_adc.c ****                 only one parameter can be selected which is shown as below:
 914:../Firmware/GD32VF103_standard_peripheral/Source/gd32vf103_adc.c ****       \arg        ADC_RESOLUTION_12B: 12-bit ADC resolution
 915:../Firmware/GD32VF103_standard_peripheral/Source/gd32vf103_adc.c ****       \arg        ADC_RESOLUTION_10B: 10-bit ADC resolution
 916:../Firmware/GD32VF103_standard_peripheral/Source/gd32vf103_adc.c ****       \arg        ADC_RESOLUTION_8B: 8-bit ADC resolution
 917:../Firmware/GD32VF103_standard_peripheral/Source/gd32vf103_adc.c ****       \arg        ADC_RESOLUTION_6B: 6-bit ADC resolution
 918:../Firmware/GD32VF103_standard_peripheral/Source/gd32vf103_adc.c ****     \param[out] none
 919:../Firmware/GD32VF103_standard_peripheral/Source/gd32vf103_adc.c ****     \retval     none
 920:../Firmware/GD32VF103_standard_peripheral/Source/gd32vf103_adc.c **** */
 921:../Firmware/GD32VF103_standard_peripheral/Source/gd32vf103_adc.c **** void adc_resolution_config(uint32_t adc_periph, uint32_t resolution)
 922:../Firmware/GD32VF103_standard_peripheral/Source/gd32vf103_adc.c **** {
 1651              		.loc 1 922 1 is_stmt 1
 1652              		.cfi_startproc
 1653              	.LVL149:
 923:../Firmware/GD32VF103_standard_peripheral/Source/gd32vf103_adc.c ****     ADC_OVSCR(adc_periph) &= ~((uint32_t)ADC_OVSCR_DRES);
 1654              		.loc 1 923 5
 1655              		.loc 1 923 27 is_stmt 0
 1656 0000 83270508 		lw	a5,128(a0)
 1657 0004 7577     		li	a4,-12288
 1658 0006 7D17     		addi	a4,a4,-1
 1659 0008 F98F     		and	a5,a5,a4
 1660 000a 2320F508 		sw	a5,128(a0)
 924:../Firmware/GD32VF103_standard_peripheral/Source/gd32vf103_adc.c ****     ADC_OVSCR(adc_periph) |= (uint32_t)resolution;
 1661              		.loc 1 924 5 is_stmt 1
 1662              		.loc 1 924 27 is_stmt 0
 1663 000e 83270508 		lw	a5,128(a0)
 1664 0012 CD8F     		or	a5,a5,a1
 1665 0014 2320F508 		sw	a5,128(a0)
 925:../Firmware/GD32VF103_standard_peripheral/Source/gd32vf103_adc.c **** }
 1666              		.loc 1 925 1
GAS LISTING /tmp/ccOz1Rcm.s 			page 48


 1667 0018 8280     		ret
 1668              		.cfi_endproc
 1669              	.LFE36:
 1671              		.section	.text.adc_oversample_mode_config,"ax",@progbits
 1672              		.align	1
 1673              		.globl	adc_oversample_mode_config
 1675              	adc_oversample_mode_config:
 1676              	.LFB37:
 926:../Firmware/GD32VF103_standard_peripheral/Source/gd32vf103_adc.c **** 
 927:../Firmware/GD32VF103_standard_peripheral/Source/gd32vf103_adc.c **** /*!
 928:../Firmware/GD32VF103_standard_peripheral/Source/gd32vf103_adc.c ****     \brief      adc oversample mode config
 929:../Firmware/GD32VF103_standard_peripheral/Source/gd32vf103_adc.c ****     \param[in]  adc_periph: ADCx, x=0,1
 930:../Firmware/GD32VF103_standard_peripheral/Source/gd32vf103_adc.c ****     \param[in]  mode: ADC oversampling mode
 931:../Firmware/GD32VF103_standard_peripheral/Source/gd32vf103_adc.c ****                 only one parameter can be selected which is shown as below:
 932:../Firmware/GD32VF103_standard_peripheral/Source/gd32vf103_adc.c ****       \arg        ADC_OVERSAMPLING_ALL_CONVERT: all oversampled conversions for a channel
 933:../Firmware/GD32VF103_standard_peripheral/Source/gd32vf103_adc.c ****                 are done consecutively after a trigger
 934:../Firmware/GD32VF103_standard_peripheral/Source/gd32vf103_adc.c ****       \arg        ADC_OVERSAMPLING_ONE_CONVERT: each oversampled conversion for a channel
 935:../Firmware/GD32VF103_standard_peripheral/Source/gd32vf103_adc.c ****                 needs a trigger
 936:../Firmware/GD32VF103_standard_peripheral/Source/gd32vf103_adc.c ****     \param[in]  shift: ADC oversampling shift
 937:../Firmware/GD32VF103_standard_peripheral/Source/gd32vf103_adc.c ****                 only one parameter can be selected which is shown as below:
 938:../Firmware/GD32VF103_standard_peripheral/Source/gd32vf103_adc.c ****       \arg        ADC_OVERSAMPLING_SHIFT_NONE: no oversampling shift
 939:../Firmware/GD32VF103_standard_peripheral/Source/gd32vf103_adc.c ****       \arg        ADC_OVERSAMPLING_SHIFT_1B: 1-bit oversampling shift
 940:../Firmware/GD32VF103_standard_peripheral/Source/gd32vf103_adc.c ****       \arg        ADC_OVERSAMPLING_SHIFT_2B: 2-bit oversampling shift
 941:../Firmware/GD32VF103_standard_peripheral/Source/gd32vf103_adc.c ****       \arg        ADC_OVERSAMPLING_SHIFT_3B: 3-bit oversampling shift
 942:../Firmware/GD32VF103_standard_peripheral/Source/gd32vf103_adc.c ****       \arg        ADC_OVERSAMPLING_SHIFT_4B: 3-bit oversampling shift
 943:../Firmware/GD32VF103_standard_peripheral/Source/gd32vf103_adc.c ****       \arg        ADC_OVERSAMPLING_SHIFT_5B: 5-bit oversampling shift
 944:../Firmware/GD32VF103_standard_peripheral/Source/gd32vf103_adc.c ****       \arg        ADC_OVERSAMPLING_SHIFT_6B: 6-bit oversampling shift
 945:../Firmware/GD32VF103_standard_peripheral/Source/gd32vf103_adc.c ****       \arg        ADC_OVERSAMPLING_SHIFT_7B: 7-bit oversampling shift
 946:../Firmware/GD32VF103_standard_peripheral/Source/gd32vf103_adc.c ****       \arg        ADC_OVERSAMPLING_SHIFT_8B: 8-bit oversampling shift
 947:../Firmware/GD32VF103_standard_peripheral/Source/gd32vf103_adc.c ****     \param[in]  ratio: ADC oversampling ratio
 948:../Firmware/GD32VF103_standard_peripheral/Source/gd32vf103_adc.c ****                 only one parameter can be selected which is shown as below:
 949:../Firmware/GD32VF103_standard_peripheral/Source/gd32vf103_adc.c ****       \arg        ADC_OVERSAMPLING_RATIO_MUL2: oversampling ratio X2
 950:../Firmware/GD32VF103_standard_peripheral/Source/gd32vf103_adc.c ****       \arg        ADC_OVERSAMPLING_RATIO_MUL4: oversampling ratio X4
 951:../Firmware/GD32VF103_standard_peripheral/Source/gd32vf103_adc.c ****       \arg        ADC_OVERSAMPLING_RATIO_MUL8: oversampling ratio X8
 952:../Firmware/GD32VF103_standard_peripheral/Source/gd32vf103_adc.c ****       \arg        ADC_OVERSAMPLING_RATIO_MUL16: oversampling ratio X16
 953:../Firmware/GD32VF103_standard_peripheral/Source/gd32vf103_adc.c ****       \arg        ADC_OVERSAMPLING_RATIO_MUL32: oversampling ratio X32
 954:../Firmware/GD32VF103_standard_peripheral/Source/gd32vf103_adc.c ****       \arg        ADC_OVERSAMPLING_RATIO_MUL64: oversampling ratio X64
 955:../Firmware/GD32VF103_standard_peripheral/Source/gd32vf103_adc.c ****       \arg        ADC_OVERSAMPLING_RATIO_MUL128: oversampling ratio X128
 956:../Firmware/GD32VF103_standard_peripheral/Source/gd32vf103_adc.c ****       \arg        ADC_OVERSAMPLING_RATIO_MUL256: oversampling ratio X256
 957:../Firmware/GD32VF103_standard_peripheral/Source/gd32vf103_adc.c ****     \param[out] none
 958:../Firmware/GD32VF103_standard_peripheral/Source/gd32vf103_adc.c ****     \retval     none
 959:../Firmware/GD32VF103_standard_peripheral/Source/gd32vf103_adc.c **** */
 960:../Firmware/GD32VF103_standard_peripheral/Source/gd32vf103_adc.c **** void adc_oversample_mode_config(uint32_t adc_periph, uint8_t mode, uint16_t shift,uint8_t ratio)
 961:../Firmware/GD32VF103_standard_peripheral/Source/gd32vf103_adc.c **** {
 1677              		.loc 1 961 1 is_stmt 1
 1678              		.cfi_startproc
 1679              	.LVL150:
 962:../Firmware/GD32VF103_standard_peripheral/Source/gd32vf103_adc.c ****     if(mode){
 1680              		.loc 1 962 5
 963:../Firmware/GD32VF103_standard_peripheral/Source/gd32vf103_adc.c ****         ADC_OVSCR(adc_periph) |= (uint32_t)ADC_OVSCR_TOVS;
 1681              		.loc 1 963 31 is_stmt 0
 1682 0000 83270508 		lw	a5,128(a0)
 962:../Firmware/GD32VF103_standard_peripheral/Source/gd32vf103_adc.c ****     if(mode){
 1683              		.loc 1 962 7
 1684 0004 95C1     		beq	a1,zero,.L174
 1685              		.loc 1 963 9 is_stmt 1
 1686              		.loc 1 963 31 is_stmt 0
GAS LISTING /tmp/ccOz1Rcm.s 			page 49


 1687 0006 93E70720 		ori	a5,a5,512
 1688 000a 2320F508 		sw	a5,128(a0)
 964:../Firmware/GD32VF103_standard_peripheral/Source/gd32vf103_adc.c ****     }else{
 965:../Firmware/GD32VF103_standard_peripheral/Source/gd32vf103_adc.c ****         ADC_OVSCR(adc_periph) &= ~((uint32_t)ADC_OVSCR_TOVS);
 966:../Firmware/GD32VF103_standard_peripheral/Source/gd32vf103_adc.c ****     }
 967:../Firmware/GD32VF103_standard_peripheral/Source/gd32vf103_adc.c ****     /* config the shift and ratio */
 968:../Firmware/GD32VF103_standard_peripheral/Source/gd32vf103_adc.c ****     ADC_OVSCR(adc_periph) &= ~((uint32_t)(ADC_OVSCR_OVSR | ADC_OVSCR_OVSS));
 1689              		.loc 1 968 5 is_stmt 1
 1690              		.loc 1 968 27 is_stmt 0
 1691 000e 83270508 		lw	a5,128(a0)
 969:../Firmware/GD32VF103_standard_peripheral/Source/gd32vf103_adc.c ****     ADC_OVSCR(adc_periph) |= ((uint32_t)shift | (uint32_t)ratio);
 1692              		.loc 1 969 47
 1693 0012 558E     		or	a2,a2,a3
 1694              	.LVL151:
 968:../Firmware/GD32VF103_standard_peripheral/Source/gd32vf103_adc.c ****     ADC_OVSCR(adc_periph) |= ((uint32_t)shift | (uint32_t)ratio);
 1695              		.loc 1 968 27
 1696 0014 93F737E0 		andi	a5,a5,-509
 1697 0018 2320F508 		sw	a5,128(a0)
 1698              		.loc 1 969 5 is_stmt 1
 1699              		.loc 1 969 27 is_stmt 0
 1700 001c 83260508 		lw	a3,128(a0)
 1701              	.LVL152:
 1702 0020 558E     		or	a2,a2,a3
 1703 0022 2320C508 		sw	a2,128(a0)
 970:../Firmware/GD32VF103_standard_peripheral/Source/gd32vf103_adc.c **** }
 1704              		.loc 1 970 1
 1705 0026 8280     		ret
 1706              	.LVL153:
 1707              	.L174:
 965:../Firmware/GD32VF103_standard_peripheral/Source/gd32vf103_adc.c ****     }
 1708              		.loc 1 965 9 is_stmt 1
 965:../Firmware/GD32VF103_standard_peripheral/Source/gd32vf103_adc.c ****     }
 1709              		.loc 1 965 31 is_stmt 0
 1710 0028 93F7F7DF 		andi	a5,a5,-513
 1711 002c 2320F508 		sw	a5,128(a0)
 968:../Firmware/GD32VF103_standard_peripheral/Source/gd32vf103_adc.c ****     ADC_OVSCR(adc_periph) |= ((uint32_t)shift | (uint32_t)ratio);
 1712              		.loc 1 968 5 is_stmt 1
 968:../Firmware/GD32VF103_standard_peripheral/Source/gd32vf103_adc.c ****     ADC_OVSCR(adc_periph) |= ((uint32_t)shift | (uint32_t)ratio);
 1713              		.loc 1 968 27 is_stmt 0
 1714 0030 83270508 		lw	a5,128(a0)
 969:../Firmware/GD32VF103_standard_peripheral/Source/gd32vf103_adc.c **** }
 1715              		.loc 1 969 47
 1716 0034 558E     		or	a2,a2,a3
 1717              	.LVL154:
 968:../Firmware/GD32VF103_standard_peripheral/Source/gd32vf103_adc.c ****     ADC_OVSCR(adc_periph) |= ((uint32_t)shift | (uint32_t)ratio);
 1718              		.loc 1 968 27
 1719 0036 93F737E0 		andi	a5,a5,-509
 1720 003a 2320F508 		sw	a5,128(a0)
 969:../Firmware/GD32VF103_standard_peripheral/Source/gd32vf103_adc.c **** }
 1721              		.loc 1 969 5 is_stmt 1
 969:../Firmware/GD32VF103_standard_peripheral/Source/gd32vf103_adc.c **** }
 1722              		.loc 1 969 27 is_stmt 0
 1723 003e 83260508 		lw	a3,128(a0)
 1724              	.LVL155:
 1725 0042 558E     		or	a2,a2,a3
 1726 0044 2320C508 		sw	a2,128(a0)
 1727              		.loc 1 970 1
GAS LISTING /tmp/ccOz1Rcm.s 			page 50


 1728 0048 8280     		ret
 1729              		.cfi_endproc
 1730              	.LFE37:
 1732              		.section	.text.adc_oversample_mode_enable,"ax",@progbits
 1733              		.align	1
 1734              		.globl	adc_oversample_mode_enable
 1736              	adc_oversample_mode_enable:
 1737              	.LFB38:
 971:../Firmware/GD32VF103_standard_peripheral/Source/gd32vf103_adc.c **** 
 972:../Firmware/GD32VF103_standard_peripheral/Source/gd32vf103_adc.c **** /*!
 973:../Firmware/GD32VF103_standard_peripheral/Source/gd32vf103_adc.c ****     \brief      enable ADC oversample mode
 974:../Firmware/GD32VF103_standard_peripheral/Source/gd32vf103_adc.c ****     \param[in]  adc_periph: ADCx, x=0,1
 975:../Firmware/GD32VF103_standard_peripheral/Source/gd32vf103_adc.c ****     \param[out] none
 976:../Firmware/GD32VF103_standard_peripheral/Source/gd32vf103_adc.c ****     \retval     none
 977:../Firmware/GD32VF103_standard_peripheral/Source/gd32vf103_adc.c **** */
 978:../Firmware/GD32VF103_standard_peripheral/Source/gd32vf103_adc.c **** void adc_oversample_mode_enable(uint32_t adc_periph)
 979:../Firmware/GD32VF103_standard_peripheral/Source/gd32vf103_adc.c **** {
 1738              		.loc 1 979 1 is_stmt 1
 1739              		.cfi_startproc
 1740              	.LVL156:
 980:../Firmware/GD32VF103_standard_peripheral/Source/gd32vf103_adc.c ****     ADC_OVSCR(adc_periph) |= ADC_OVSCR_OVSEN;
 1741              		.loc 1 980 5
 1742              		.loc 1 980 27 is_stmt 0
 1743 0000 83270508 		lw	a5,128(a0)
 1744 0004 93E71700 		ori	a5,a5,1
 1745 0008 2320F508 		sw	a5,128(a0)
 981:../Firmware/GD32VF103_standard_peripheral/Source/gd32vf103_adc.c **** }
 1746              		.loc 1 981 1
 1747 000c 8280     		ret
 1748              		.cfi_endproc
 1749              	.LFE38:
 1751              		.section	.text.adc_oversample_mode_disable,"ax",@progbits
 1752              		.align	1
 1753              		.globl	adc_oversample_mode_disable
 1755              	adc_oversample_mode_disable:
 1756              	.LFB39:
 982:../Firmware/GD32VF103_standard_peripheral/Source/gd32vf103_adc.c **** 
 983:../Firmware/GD32VF103_standard_peripheral/Source/gd32vf103_adc.c **** /*!
 984:../Firmware/GD32VF103_standard_peripheral/Source/gd32vf103_adc.c ****     \brief      disable ADC oversample mode
 985:../Firmware/GD32VF103_standard_peripheral/Source/gd32vf103_adc.c ****     \param[in]  adc_periph: ADCx, x=0,1
 986:../Firmware/GD32VF103_standard_peripheral/Source/gd32vf103_adc.c ****     \param[out] none
 987:../Firmware/GD32VF103_standard_peripheral/Source/gd32vf103_adc.c ****     \retval     none
 988:../Firmware/GD32VF103_standard_peripheral/Source/gd32vf103_adc.c **** */
 989:../Firmware/GD32VF103_standard_peripheral/Source/gd32vf103_adc.c **** void adc_oversample_mode_disable(uint32_t adc_periph)
 990:../Firmware/GD32VF103_standard_peripheral/Source/gd32vf103_adc.c **** {
 1757              		.loc 1 990 1 is_stmt 1
 1758              		.cfi_startproc
 1759              	.LVL157:
 991:../Firmware/GD32VF103_standard_peripheral/Source/gd32vf103_adc.c ****     ADC_OVSCR(adc_periph) &= ~((uint32_t)ADC_OVSCR_OVSEN);
 1760              		.loc 1 991 5
 1761              		.loc 1 991 27 is_stmt 0
 1762 0000 83270508 		lw	a5,128(a0)
 1763 0004 F99B     		andi	a5,a5,-2
 1764 0006 2320F508 		sw	a5,128(a0)
 992:../Firmware/GD32VF103_standard_peripheral/Source/gd32vf103_adc.c **** }
 1765              		.loc 1 992 1
 1766 000a 8280     		ret
GAS LISTING /tmp/ccOz1Rcm.s 			page 51


 1767              		.cfi_endproc
 1768              	.LFE39:
 1770              		.text
 1771              	.Letext0:
 1772              		.file 2 "/home/johnson/Documents/mpb-toolchain/build/riscv32-mapleboard-elf/include/machine/_defau
 1773              		.file 3 "/home/johnson/Documents/mpb-toolchain/build/riscv32-mapleboard-elf/include/sys/_stdint.h"
 1774              		.file 4 "../Firmware/GD32VF103_standard_peripheral/gd32vf103.h"
 1775              		.file 5 "../Firmware/GD32VF103_standard_peripheral/Include/gd32vf103_rcu.h"
GAS LISTING /tmp/ccOz1Rcm.s 			page 52

