GAS LISTING /tmp/ccwgsmsq.s 			page 1


   1              		.file	"gd32vf103_wwdgt.c"
   2              		.option nopic
   3              		.attribute arch, "rv32i2p0_m2p0_a2p0_c2p0"
   4              		.attribute unaligned_access, 0
   5              		.attribute stack_align, 16
   6              		.text
   7              	.Ltext0:
   8              		.cfi_sections	.debug_frame
   9              		.section	.text.wwdgt_deinit,"ax",@progbits
  10              		.align	1
  11              		.globl	wwdgt_deinit
  13              	wwdgt_deinit:
  14              	.LFB2:
  15              		.file 1 "../Firmware/GD32VF103_standard_peripheral/Source/gd32vf103_wwdgt.c"
   1:../Firmware/GD32VF103_standard_peripheral/Source/gd32vf103_wwdgt.c **** /*!
   2:../Firmware/GD32VF103_standard_peripheral/Source/gd32vf103_wwdgt.c ****     \file  gd32vf103_wwdgt.c
   3:../Firmware/GD32VF103_standard_peripheral/Source/gd32vf103_wwdgt.c ****     \brief WWDGT driver
   4:../Firmware/GD32VF103_standard_peripheral/Source/gd32vf103_wwdgt.c ****     
   5:../Firmware/GD32VF103_standard_peripheral/Source/gd32vf103_wwdgt.c ****     \version 2019-6-5, V1.0.0, firmware for GD32VF103
   6:../Firmware/GD32VF103_standard_peripheral/Source/gd32vf103_wwdgt.c **** */
   7:../Firmware/GD32VF103_standard_peripheral/Source/gd32vf103_wwdgt.c **** 
   8:../Firmware/GD32VF103_standard_peripheral/Source/gd32vf103_wwdgt.c **** /*
   9:../Firmware/GD32VF103_standard_peripheral/Source/gd32vf103_wwdgt.c ****     Copyright (c) 2019, GigaDevice Semiconductor Inc.
  10:../Firmware/GD32VF103_standard_peripheral/Source/gd32vf103_wwdgt.c **** 
  11:../Firmware/GD32VF103_standard_peripheral/Source/gd32vf103_wwdgt.c ****     Redistribution and use in source and binary forms, with or without modification, 
  12:../Firmware/GD32VF103_standard_peripheral/Source/gd32vf103_wwdgt.c **** are permitted provided that the following conditions are met:
  13:../Firmware/GD32VF103_standard_peripheral/Source/gd32vf103_wwdgt.c **** 
  14:../Firmware/GD32VF103_standard_peripheral/Source/gd32vf103_wwdgt.c ****     1. Redistributions of source code must retain the above copyright notice, this 
  15:../Firmware/GD32VF103_standard_peripheral/Source/gd32vf103_wwdgt.c ****        list of conditions and the following disclaimer.
  16:../Firmware/GD32VF103_standard_peripheral/Source/gd32vf103_wwdgt.c ****     2. Redistributions in binary form must reproduce the above copyright notice, 
  17:../Firmware/GD32VF103_standard_peripheral/Source/gd32vf103_wwdgt.c ****        this list of conditions and the following disclaimer in the documentation 
  18:../Firmware/GD32VF103_standard_peripheral/Source/gd32vf103_wwdgt.c ****        and/or other materials provided with the distribution.
  19:../Firmware/GD32VF103_standard_peripheral/Source/gd32vf103_wwdgt.c ****     3. Neither the name of the copyright holder nor the names of its contributors 
  20:../Firmware/GD32VF103_standard_peripheral/Source/gd32vf103_wwdgt.c ****        may be used to endorse or promote products derived from this software without 
  21:../Firmware/GD32VF103_standard_peripheral/Source/gd32vf103_wwdgt.c ****        specific prior written permission.
  22:../Firmware/GD32VF103_standard_peripheral/Source/gd32vf103_wwdgt.c **** 
  23:../Firmware/GD32VF103_standard_peripheral/Source/gd32vf103_wwdgt.c ****     THIS SOFTWARE IS PROVIDED BY THE COPYRIGHT HOLDERS AND CONTRIBUTORS "AS IS" 
  24:../Firmware/GD32VF103_standard_peripheral/Source/gd32vf103_wwdgt.c **** AND ANY EXPRESS OR IMPLIED WARRANTIES, INCLUDING, BUT NOT LIMITED TO, THE IMPLIED 
  25:../Firmware/GD32VF103_standard_peripheral/Source/gd32vf103_wwdgt.c **** WARRANTIES OF MERCHANTABILITY AND FITNESS FOR A PARTICULAR PURPOSE ARE DISCLAIMED. 
  26:../Firmware/GD32VF103_standard_peripheral/Source/gd32vf103_wwdgt.c **** IN NO EVENT SHALL THE COPYRIGHT HOLDER OR CONTRIBUTORS BE LIABLE FOR ANY DIRECT, 
  27:../Firmware/GD32VF103_standard_peripheral/Source/gd32vf103_wwdgt.c **** INDIRECT, INCIDENTAL, SPECIAL, EXEMPLARY, OR CONSEQUENTIAL DAMAGES (INCLUDING, BUT 
  28:../Firmware/GD32VF103_standard_peripheral/Source/gd32vf103_wwdgt.c **** NOT LIMITED TO, PROCUREMENT OF SUBSTITUTE GOODS OR SERVICES; LOSS OF USE, DATA, OR 
  29:../Firmware/GD32VF103_standard_peripheral/Source/gd32vf103_wwdgt.c **** PROFITS; OR BUSINESS INTERRUPTION) HOWEVER CAUSED AND ON ANY THEORY OF LIABILITY, 
  30:../Firmware/GD32VF103_standard_peripheral/Source/gd32vf103_wwdgt.c **** WHETHER IN CONTRACT, STRICT LIABILITY, OR TORT (INCLUDING NEGLIGENCE OR OTHERWISE) 
  31:../Firmware/GD32VF103_standard_peripheral/Source/gd32vf103_wwdgt.c **** ARISING IN ANY WAY OUT OF THE USE OF THIS SOFTWARE, EVEN IF ADVISED OF THE POSSIBILITY 
  32:../Firmware/GD32VF103_standard_peripheral/Source/gd32vf103_wwdgt.c **** OF SUCH DAMAGE.
  33:../Firmware/GD32VF103_standard_peripheral/Source/gd32vf103_wwdgt.c **** */
  34:../Firmware/GD32VF103_standard_peripheral/Source/gd32vf103_wwdgt.c **** 
  35:../Firmware/GD32VF103_standard_peripheral/Source/gd32vf103_wwdgt.c **** #include "gd32vf103_wwdgt.h"
  36:../Firmware/GD32VF103_standard_peripheral/Source/gd32vf103_wwdgt.c **** 
  37:../Firmware/GD32VF103_standard_peripheral/Source/gd32vf103_wwdgt.c **** /* write value to WWDGT_CTL_CNT bit field */
  38:../Firmware/GD32VF103_standard_peripheral/Source/gd32vf103_wwdgt.c **** #define CTL_CNT(regval)             (BITS(0,6) & ((uint32_t)(regval) << 0))
  39:../Firmware/GD32VF103_standard_peripheral/Source/gd32vf103_wwdgt.c **** /* write value to WWDGT_CFG_WIN bit field */
  40:../Firmware/GD32VF103_standard_peripheral/Source/gd32vf103_wwdgt.c **** #define CFG_WIN(regval)             (BITS(0,6) & ((uint32_t)(regval) << 0))
  41:../Firmware/GD32VF103_standard_peripheral/Source/gd32vf103_wwdgt.c **** 
  42:../Firmware/GD32VF103_standard_peripheral/Source/gd32vf103_wwdgt.c **** /*!
  43:../Firmware/GD32VF103_standard_peripheral/Source/gd32vf103_wwdgt.c ****     \brief      reset the window watchdog timer configuration
GAS LISTING /tmp/ccwgsmsq.s 			page 2


  44:../Firmware/GD32VF103_standard_peripheral/Source/gd32vf103_wwdgt.c ****     \param[in]  none
  45:../Firmware/GD32VF103_standard_peripheral/Source/gd32vf103_wwdgt.c ****     \param[out] none
  46:../Firmware/GD32VF103_standard_peripheral/Source/gd32vf103_wwdgt.c ****     \retval     none
  47:../Firmware/GD32VF103_standard_peripheral/Source/gd32vf103_wwdgt.c **** */
  48:../Firmware/GD32VF103_standard_peripheral/Source/gd32vf103_wwdgt.c **** void wwdgt_deinit(void)
  49:../Firmware/GD32VF103_standard_peripheral/Source/gd32vf103_wwdgt.c **** {
  16              		.loc 1 49 1
  17              		.cfi_startproc
  50:../Firmware/GD32VF103_standard_peripheral/Source/gd32vf103_wwdgt.c ****     rcu_periph_reset_enable(RCU_WWDGTRST);
  18              		.loc 1 50 5
  49:../Firmware/GD32VF103_standard_peripheral/Source/gd32vf103_wwdgt.c ****     rcu_periph_reset_enable(RCU_WWDGTRST);
  19              		.loc 1 49 1 is_stmt 0
  20 0000 4111     		addi	sp,sp,-16
  21              	.LCFI0:
  22              		.cfi_def_cfa_offset 16
  23              		.loc 1 50 5
  24 0002 1305B040 		li	a0,1035
  49:../Firmware/GD32VF103_standard_peripheral/Source/gd32vf103_wwdgt.c ****     rcu_periph_reset_enable(RCU_WWDGTRST);
  25              		.loc 1 49 1
  26 0006 06C6     		sw	ra,12(sp)
  27              		.cfi_offset 1, -4
  28              		.loc 1 50 5
  29 0008 97000000 		call	rcu_periph_reset_enable
  29      E7800000 
  30              	.LVL0:
  51:../Firmware/GD32VF103_standard_peripheral/Source/gd32vf103_wwdgt.c ****     rcu_periph_reset_disable(RCU_WWDGTRST);
  31              		.loc 1 51 5 is_stmt 1
  52:../Firmware/GD32VF103_standard_peripheral/Source/gd32vf103_wwdgt.c **** }
  32              		.loc 1 52 1 is_stmt 0
  33 0010 B240     		lw	ra,12(sp)
  34              		.cfi_restore 1
  51:../Firmware/GD32VF103_standard_peripheral/Source/gd32vf103_wwdgt.c ****     rcu_periph_reset_disable(RCU_WWDGTRST);
  35              		.loc 1 51 5
  36 0012 1305B040 		li	a0,1035
  37              		.loc 1 52 1
  38 0016 4101     		addi	sp,sp,16
  39              	.LCFI1:
  40              		.cfi_def_cfa_offset 0
  51:../Firmware/GD32VF103_standard_peripheral/Source/gd32vf103_wwdgt.c ****     rcu_periph_reset_disable(RCU_WWDGTRST);
  41              		.loc 1 51 5
  42 0018 17030000 		tail	rcu_periph_reset_disable
  42      67000300 
  43              	.LVL1:
  44              		.cfi_endproc
  45              	.LFE2:
  47              		.section	.text.wwdgt_enable,"ax",@progbits
  48              		.align	1
  49              		.globl	wwdgt_enable
  51              	wwdgt_enable:
  52              	.LFB3:
  53:../Firmware/GD32VF103_standard_peripheral/Source/gd32vf103_wwdgt.c **** 
  54:../Firmware/GD32VF103_standard_peripheral/Source/gd32vf103_wwdgt.c **** /*!
  55:../Firmware/GD32VF103_standard_peripheral/Source/gd32vf103_wwdgt.c ****     \brief      start the window watchdog timer counter
  56:../Firmware/GD32VF103_standard_peripheral/Source/gd32vf103_wwdgt.c ****     \param[in]  none
  57:../Firmware/GD32VF103_standard_peripheral/Source/gd32vf103_wwdgt.c ****     \param[out] none
  58:../Firmware/GD32VF103_standard_peripheral/Source/gd32vf103_wwdgt.c ****     \retval     none
  59:../Firmware/GD32VF103_standard_peripheral/Source/gd32vf103_wwdgt.c **** */
GAS LISTING /tmp/ccwgsmsq.s 			page 3


  60:../Firmware/GD32VF103_standard_peripheral/Source/gd32vf103_wwdgt.c **** void wwdgt_enable(void)
  61:../Firmware/GD32VF103_standard_peripheral/Source/gd32vf103_wwdgt.c **** {
  53              		.loc 1 61 1 is_stmt 1
  54              		.cfi_startproc
  62:../Firmware/GD32VF103_standard_peripheral/Source/gd32vf103_wwdgt.c ****     WWDGT_CTL |= WWDGT_CTL_WDGTEN;
  55              		.loc 1 62 5
  56              		.loc 1 62 15 is_stmt 0
  57 0000 37370040 		li	a4,1073754112
  58 0004 832707C0 		lw	a5,-1024(a4)
  59 0008 93E70708 		ori	a5,a5,128
  60 000c 2320F7C0 		sw	a5,-1024(a4)
  63:../Firmware/GD32VF103_standard_peripheral/Source/gd32vf103_wwdgt.c **** }
  61              		.loc 1 63 1
  62 0010 8280     		ret
  63              		.cfi_endproc
  64              	.LFE3:
  66              		.section	.text.wwdgt_counter_update,"ax",@progbits
  67              		.align	1
  68              		.globl	wwdgt_counter_update
  70              	wwdgt_counter_update:
  71              	.LFB4:
  64:../Firmware/GD32VF103_standard_peripheral/Source/gd32vf103_wwdgt.c **** 
  65:../Firmware/GD32VF103_standard_peripheral/Source/gd32vf103_wwdgt.c **** /*!
  66:../Firmware/GD32VF103_standard_peripheral/Source/gd32vf103_wwdgt.c ****     \brief      configure the window watchdog timer counter value
  67:../Firmware/GD32VF103_standard_peripheral/Source/gd32vf103_wwdgt.c ****     \param[in]  counter_value: 0x00 - 0x7F
  68:../Firmware/GD32VF103_standard_peripheral/Source/gd32vf103_wwdgt.c ****     \param[out] none
  69:../Firmware/GD32VF103_standard_peripheral/Source/gd32vf103_wwdgt.c ****     \retval     none
  70:../Firmware/GD32VF103_standard_peripheral/Source/gd32vf103_wwdgt.c **** */
  71:../Firmware/GD32VF103_standard_peripheral/Source/gd32vf103_wwdgt.c **** void wwdgt_counter_update(uint16_t counter_value)
  72:../Firmware/GD32VF103_standard_peripheral/Source/gd32vf103_wwdgt.c **** {
  72              		.loc 1 72 1 is_stmt 1
  73              		.cfi_startproc
  74              	.LVL2:
  73:../Firmware/GD32VF103_standard_peripheral/Source/gd32vf103_wwdgt.c ****     uint32_t reg = 0U;
  75              		.loc 1 73 5
  74:../Firmware/GD32VF103_standard_peripheral/Source/gd32vf103_wwdgt.c ****     
  75:../Firmware/GD32VF103_standard_peripheral/Source/gd32vf103_wwdgt.c ****     reg = (WWDGT_CTL & (~WWDGT_CTL_CNT));
  76              		.loc 1 75 5
  77              		.loc 1 75 12 is_stmt 0
  78 0000 37370040 		li	a4,1073754112
  79 0004 832707C0 		lw	a5,-1024(a4)
  76:../Firmware/GD32VF103_standard_peripheral/Source/gd32vf103_wwdgt.c ****     reg |= CTL_CNT(counter_value);
  80              		.loc 1 76 12
  81 0008 1375F507 		andi	a0,a0,127
  82              	.LVL3:
  75:../Firmware/GD32VF103_standard_peripheral/Source/gd32vf103_wwdgt.c ****     reg |= CTL_CNT(counter_value);
  83              		.loc 1 75 9
  84 000c 93F707F8 		andi	a5,a5,-128
  85              	.LVL4:
  86              		.loc 1 76 5 is_stmt 1
  87              		.loc 1 76 9 is_stmt 0
  88 0010 5D8D     		or	a0,a0,a5
  89              	.LVL5:
  77:../Firmware/GD32VF103_standard_peripheral/Source/gd32vf103_wwdgt.c ****     
  78:../Firmware/GD32VF103_standard_peripheral/Source/gd32vf103_wwdgt.c ****     WWDGT_CTL = reg;
  90              		.loc 1 78 5 is_stmt 1
  91              		.loc 1 78 15 is_stmt 0
GAS LISTING /tmp/ccwgsmsq.s 			page 4


  92 0012 2320A7C0 		sw	a0,-1024(a4)
  79:../Firmware/GD32VF103_standard_peripheral/Source/gd32vf103_wwdgt.c **** }
  93              		.loc 1 79 1
  94 0016 8280     		ret
  95              		.cfi_endproc
  96              	.LFE4:
  98              		.section	.text.wwdgt_config,"ax",@progbits
  99              		.align	1
 100              		.globl	wwdgt_config
 102              	wwdgt_config:
 103              	.LFB5:
  80:../Firmware/GD32VF103_standard_peripheral/Source/gd32vf103_wwdgt.c **** 
  81:../Firmware/GD32VF103_standard_peripheral/Source/gd32vf103_wwdgt.c **** /*!
  82:../Firmware/GD32VF103_standard_peripheral/Source/gd32vf103_wwdgt.c ****     \brief      configure counter value, window value, and prescaler divider value  
  83:../Firmware/GD32VF103_standard_peripheral/Source/gd32vf103_wwdgt.c ****     \param[in]  counter: 0x00 - 0x7F   
  84:../Firmware/GD32VF103_standard_peripheral/Source/gd32vf103_wwdgt.c ****     \param[in]  window: 0x00 - 0x7F
  85:../Firmware/GD32VF103_standard_peripheral/Source/gd32vf103_wwdgt.c ****     \param[in]  prescaler: wwdgt prescaler value
  86:../Firmware/GD32VF103_standard_peripheral/Source/gd32vf103_wwdgt.c ****                 only one parameter can be selected which is shown as below:
  87:../Firmware/GD32VF103_standard_peripheral/Source/gd32vf103_wwdgt.c ****       \arg        WWDGT_CFG_PSC_DIV1: the time base of window watchdog counter = (PCLK1/4096)/1
  88:../Firmware/GD32VF103_standard_peripheral/Source/gd32vf103_wwdgt.c ****       \arg        WWDGT_CFG_PSC_DIV2: the time base of window watchdog counter = (PCLK1/4096)/2
  89:../Firmware/GD32VF103_standard_peripheral/Source/gd32vf103_wwdgt.c ****       \arg        WWDGT_CFG_PSC_DIV4: the time base of window watchdog counter = (PCLK1/4096)/4
  90:../Firmware/GD32VF103_standard_peripheral/Source/gd32vf103_wwdgt.c ****       \arg        WWDGT_CFG_PSC_DIV8: the time base of window watchdog counter = (PCLK1/4096)/8
  91:../Firmware/GD32VF103_standard_peripheral/Source/gd32vf103_wwdgt.c ****     \param[out] none
  92:../Firmware/GD32VF103_standard_peripheral/Source/gd32vf103_wwdgt.c ****     \retval     none
  93:../Firmware/GD32VF103_standard_peripheral/Source/gd32vf103_wwdgt.c **** */
  94:../Firmware/GD32VF103_standard_peripheral/Source/gd32vf103_wwdgt.c **** void wwdgt_config(uint16_t counter, uint16_t window, uint32_t prescaler)
  95:../Firmware/GD32VF103_standard_peripheral/Source/gd32vf103_wwdgt.c **** {
 104              		.loc 1 95 1 is_stmt 1
 105              		.cfi_startproc
 106              	.LVL6:
  96:../Firmware/GD32VF103_standard_peripheral/Source/gd32vf103_wwdgt.c ****     uint32_t reg_cfg = 0U, reg_ctl = 0U;
 107              		.loc 1 96 5
  97:../Firmware/GD32VF103_standard_peripheral/Source/gd32vf103_wwdgt.c **** 
  98:../Firmware/GD32VF103_standard_peripheral/Source/gd32vf103_wwdgt.c ****     /* clear WIN and PSC bits, clear CNT bit */
  99:../Firmware/GD32VF103_standard_peripheral/Source/gd32vf103_wwdgt.c ****     reg_cfg = (WWDGT_CFG &(~(WWDGT_CFG_WIN|WWDGT_CFG_PSC)));
 108              		.loc 1 99 5
 109              		.loc 1 99 16 is_stmt 0
 110 0000 37370040 		li	a4,1073754112
 111 0004 832747C0 		lw	a5,-1020(a4)
 112              	.LVL7:
 100:../Firmware/GD32VF103_standard_peripheral/Source/gd32vf103_wwdgt.c ****     reg_ctl = (WWDGT_CTL &(~WWDGT_CTL_CNT));
 113              		.loc 1 100 5 is_stmt 1
 114              		.loc 1 100 16 is_stmt 0
 115 0008 832607C0 		lw	a3,-1024(a4)
 101:../Firmware/GD32VF103_standard_peripheral/Source/gd32vf103_wwdgt.c ****   
 102:../Firmware/GD32VF103_standard_peripheral/Source/gd32vf103_wwdgt.c ****     /* configure WIN and PSC bits, configure CNT bit */
 103:../Firmware/GD32VF103_standard_peripheral/Source/gd32vf103_wwdgt.c ****     reg_cfg |= CFG_WIN(window);
 104:../Firmware/GD32VF103_standard_peripheral/Source/gd32vf103_wwdgt.c ****     reg_cfg |= prescaler;
 105:../Firmware/GD32VF103_standard_peripheral/Source/gd32vf103_wwdgt.c ****     reg_ctl |= CTL_CNT(counter);
 116              		.loc 1 105 16
 117 000c 1375F507 		andi	a0,a0,127
 118              	.LVL8:
  99:../Firmware/GD32VF103_standard_peripheral/Source/gd32vf103_wwdgt.c ****     reg_ctl = (WWDGT_CTL &(~WWDGT_CTL_CNT));
 119              		.loc 1 99 13
 120 0010 93F707E0 		andi	a5,a5,-512
 121              	.LVL9:
 100:../Firmware/GD32VF103_standard_peripheral/Source/gd32vf103_wwdgt.c ****     reg_ctl = (WWDGT_CTL &(~WWDGT_CTL_CNT));
GAS LISTING /tmp/ccwgsmsq.s 			page 5


 122              		.loc 1 100 13
 123 0014 93F606F8 		andi	a3,a3,-128
 124              	.LVL10:
 103:../Firmware/GD32VF103_standard_peripheral/Source/gd32vf103_wwdgt.c ****     reg_cfg |= prescaler;
 125              		.loc 1 103 5 is_stmt 1
 126 0018 D18F     		or	a5,a5,a2
 127              	.LVL11:
 104:../Firmware/GD32VF103_standard_peripheral/Source/gd32vf103_wwdgt.c ****     reg_ctl |= CTL_CNT(counter);
 128              		.loc 1 104 5
 103:../Firmware/GD32VF103_standard_peripheral/Source/gd32vf103_wwdgt.c ****     reg_cfg |= prescaler;
 129              		.loc 1 103 16 is_stmt 0
 130 001a 93F5F507 		andi	a1,a1,127
 131              	.LVL12:
 132              		.loc 1 105 13
 133 001e 558D     		or	a0,a0,a3
 104:../Firmware/GD32VF103_standard_peripheral/Source/gd32vf103_wwdgt.c ****     reg_ctl |= CTL_CNT(counter);
 134              		.loc 1 104 13
 135 0020 DD8D     		or	a1,a1,a5
 136              	.LVL13:
 137              		.loc 1 105 5 is_stmt 1
 106:../Firmware/GD32VF103_standard_peripheral/Source/gd32vf103_wwdgt.c ****     
 107:../Firmware/GD32VF103_standard_peripheral/Source/gd32vf103_wwdgt.c ****     WWDGT_CTL = reg_ctl;
 138              		.loc 1 107 5
 139              		.loc 1 107 15 is_stmt 0
 140 0022 2320A7C0 		sw	a0,-1024(a4)
 108:../Firmware/GD32VF103_standard_peripheral/Source/gd32vf103_wwdgt.c ****     WWDGT_CFG = reg_cfg;
 141              		.loc 1 108 5 is_stmt 1
 142              		.loc 1 108 15 is_stmt 0
 143 0026 2322B7C0 		sw	a1,-1020(a4)
 109:../Firmware/GD32VF103_standard_peripheral/Source/gd32vf103_wwdgt.c **** }
 144              		.loc 1 109 1
 145 002a 8280     		ret
 146              		.cfi_endproc
 147              	.LFE5:
 149              		.section	.text.wwdgt_interrupt_enable,"ax",@progbits
 150              		.align	1
 151              		.globl	wwdgt_interrupt_enable
 153              	wwdgt_interrupt_enable:
 154              	.LFB6:
 110:../Firmware/GD32VF103_standard_peripheral/Source/gd32vf103_wwdgt.c **** 
 111:../Firmware/GD32VF103_standard_peripheral/Source/gd32vf103_wwdgt.c **** /*!
 112:../Firmware/GD32VF103_standard_peripheral/Source/gd32vf103_wwdgt.c ****     \brief      enable early wakeup interrupt of WWDGT
 113:../Firmware/GD32VF103_standard_peripheral/Source/gd32vf103_wwdgt.c ****     \param[in]  none
 114:../Firmware/GD32VF103_standard_peripheral/Source/gd32vf103_wwdgt.c ****     \param[out] none
 115:../Firmware/GD32VF103_standard_peripheral/Source/gd32vf103_wwdgt.c ****     \retval     none
 116:../Firmware/GD32VF103_standard_peripheral/Source/gd32vf103_wwdgt.c **** */
 117:../Firmware/GD32VF103_standard_peripheral/Source/gd32vf103_wwdgt.c **** void wwdgt_interrupt_enable(void)
 118:../Firmware/GD32VF103_standard_peripheral/Source/gd32vf103_wwdgt.c **** {
 155              		.loc 1 118 1 is_stmt 1
 156              		.cfi_startproc
 119:../Firmware/GD32VF103_standard_peripheral/Source/gd32vf103_wwdgt.c ****     WWDGT_CFG |= WWDGT_CFG_EWIE;
 157              		.loc 1 119 5
 158              		.loc 1 119 15 is_stmt 0
 159 0000 37370040 		li	a4,1073754112
 160 0004 832747C0 		lw	a5,-1020(a4)
 161 0008 93E70720 		ori	a5,a5,512
 162 000c 2322F7C0 		sw	a5,-1020(a4)
GAS LISTING /tmp/ccwgsmsq.s 			page 6


 120:../Firmware/GD32VF103_standard_peripheral/Source/gd32vf103_wwdgt.c **** }
 163              		.loc 1 120 1
 164 0010 8280     		ret
 165              		.cfi_endproc
 166              	.LFE6:
 168              		.section	.text.wwdgt_flag_get,"ax",@progbits
 169              		.align	1
 170              		.globl	wwdgt_flag_get
 172              	wwdgt_flag_get:
 173              	.LFB7:
 121:../Firmware/GD32VF103_standard_peripheral/Source/gd32vf103_wwdgt.c **** 
 122:../Firmware/GD32VF103_standard_peripheral/Source/gd32vf103_wwdgt.c **** /*!
 123:../Firmware/GD32VF103_standard_peripheral/Source/gd32vf103_wwdgt.c ****     \brief      check early wakeup interrupt state of WWDGT
 124:../Firmware/GD32VF103_standard_peripheral/Source/gd32vf103_wwdgt.c ****     \param[in]  none
 125:../Firmware/GD32VF103_standard_peripheral/Source/gd32vf103_wwdgt.c ****     \param[out] none
 126:../Firmware/GD32VF103_standard_peripheral/Source/gd32vf103_wwdgt.c ****     \retval     FlagStatus: SET or RESET
 127:../Firmware/GD32VF103_standard_peripheral/Source/gd32vf103_wwdgt.c **** */
 128:../Firmware/GD32VF103_standard_peripheral/Source/gd32vf103_wwdgt.c **** FlagStatus wwdgt_flag_get(void)
 129:../Firmware/GD32VF103_standard_peripheral/Source/gd32vf103_wwdgt.c **** {
 174              		.loc 1 129 1 is_stmt 1
 175              		.cfi_startproc
 130:../Firmware/GD32VF103_standard_peripheral/Source/gd32vf103_wwdgt.c ****     if(WWDGT_STAT & WWDGT_STAT_EWIF){
 176              		.loc 1 130 5
 177              		.loc 1 130 8 is_stmt 0
 178 0000 B7370040 		li	a5,1073754112
 179 0004 03A587C0 		lw	a0,-1016(a5)
 131:../Firmware/GD32VF103_standard_peripheral/Source/gd32vf103_wwdgt.c ****         return SET;
 132:../Firmware/GD32VF103_standard_peripheral/Source/gd32vf103_wwdgt.c ****     }
 133:../Firmware/GD32VF103_standard_peripheral/Source/gd32vf103_wwdgt.c **** 
 134:../Firmware/GD32VF103_standard_peripheral/Source/gd32vf103_wwdgt.c ****     return RESET;
 135:../Firmware/GD32VF103_standard_peripheral/Source/gd32vf103_wwdgt.c **** }
 180              		.loc 1 135 1
 181 0008 0589     		andi	a0,a0,1
 182 000a 8280     		ret
 183              		.cfi_endproc
 184              	.LFE7:
 186              		.section	.text.wwdgt_flag_clear,"ax",@progbits
 187              		.align	1
 188              		.globl	wwdgt_flag_clear
 190              	wwdgt_flag_clear:
 191              	.LFB8:
 136:../Firmware/GD32VF103_standard_peripheral/Source/gd32vf103_wwdgt.c **** 
 137:../Firmware/GD32VF103_standard_peripheral/Source/gd32vf103_wwdgt.c **** /*!
 138:../Firmware/GD32VF103_standard_peripheral/Source/gd32vf103_wwdgt.c ****     \brief      clear early wakeup interrupt state of WWDGT
 139:../Firmware/GD32VF103_standard_peripheral/Source/gd32vf103_wwdgt.c ****     \param[in]  none
 140:../Firmware/GD32VF103_standard_peripheral/Source/gd32vf103_wwdgt.c ****     \param[out] none
 141:../Firmware/GD32VF103_standard_peripheral/Source/gd32vf103_wwdgt.c ****     \retval     none
 142:../Firmware/GD32VF103_standard_peripheral/Source/gd32vf103_wwdgt.c **** */
 143:../Firmware/GD32VF103_standard_peripheral/Source/gd32vf103_wwdgt.c **** void wwdgt_flag_clear(void)
 144:../Firmware/GD32VF103_standard_peripheral/Source/gd32vf103_wwdgt.c **** {
 192              		.loc 1 144 1 is_stmt 1
 193              		.cfi_startproc
 145:../Firmware/GD32VF103_standard_peripheral/Source/gd32vf103_wwdgt.c ****     WWDGT_STAT &= (~WWDGT_STAT_EWIF);
 194              		.loc 1 145 5
 195              		.loc 1 145 16 is_stmt 0
 196 0000 37370040 		li	a4,1073754112
 197 0004 832787C0 		lw	a5,-1016(a4)
GAS LISTING /tmp/ccwgsmsq.s 			page 7


 198 0008 F99B     		andi	a5,a5,-2
 199 000a 2324F7C0 		sw	a5,-1016(a4)
 146:../Firmware/GD32VF103_standard_peripheral/Source/gd32vf103_wwdgt.c **** }
 200              		.loc 1 146 1
 201 000e 8280     		ret
 202              		.cfi_endproc
 203              	.LFE8:
 205              		.text
 206              	.Letext0:
 207              		.file 2 "/home/johnson/Documents/mpb-toolchain/build/riscv32-mapleboard-elf/include/machine/_defau
 208              		.file 3 "/home/johnson/Documents/mpb-toolchain/build/riscv32-mapleboard-elf/include/sys/_stdint.h"
 209              		.file 4 "../Firmware/GD32VF103_standard_peripheral/gd32vf103.h"
 210              		.file 5 "../Firmware/GD32VF103_standard_peripheral/Include/gd32vf103_rcu.h"
GAS LISTING /tmp/ccwgsmsq.s 			page 8


DEFINED SYMBOLS
                            *ABS*:0000000000000000 gd32vf103_wwdgt.c
     /tmp/ccwgsmsq.s:13     .text.wwdgt_deinit:0000000000000000 wwdgt_deinit
     /tmp/ccwgsmsq.s:17     .text.wwdgt_deinit:0000000000000000 .L0 
     /tmp/ccwgsmsq.s:18     .text.wwdgt_deinit:0000000000000000 .L0 
     /tmp/ccwgsmsq.s:19     .text.wwdgt_deinit:0000000000000000 .L0 
     /tmp/ccwgsmsq.s:20     .text.wwdgt_deinit:0000000000000000 .L0 
     /tmp/ccwgsmsq.s:22     .text.wwdgt_deinit:0000000000000002 .L0 
     /tmp/ccwgsmsq.s:24     .text.wwdgt_deinit:0000000000000002 .L0 
     /tmp/ccwgsmsq.s:26     .text.wwdgt_deinit:0000000000000006 .L0 
     /tmp/ccwgsmsq.s:27     .text.wwdgt_deinit:0000000000000008 .L0 
     /tmp/ccwgsmsq.s:29     .text.wwdgt_deinit:0000000000000008 .L0 
     /tmp/ccwgsmsq.s:32     .text.wwdgt_deinit:0000000000000010 .L0 
     /tmp/ccwgsmsq.s:33     .text.wwdgt_deinit:0000000000000010 .L0 
     /tmp/ccwgsmsq.s:34     .text.wwdgt_deinit:0000000000000012 .L0 
     /tmp/ccwgsmsq.s:36     .text.wwdgt_deinit:0000000000000012 .L0 
     /tmp/ccwgsmsq.s:38     .text.wwdgt_deinit:0000000000000016 .L0 
     /tmp/ccwgsmsq.s:40     .text.wwdgt_deinit:0000000000000018 .L0 
     /tmp/ccwgsmsq.s:42     .text.wwdgt_deinit:0000000000000018 .L0 
     /tmp/ccwgsmsq.s:44     .text.wwdgt_deinit:0000000000000020 .L0 
     /tmp/ccwgsmsq.s:51     .text.wwdgt_enable:0000000000000000 wwdgt_enable
     /tmp/ccwgsmsq.s:54     .text.wwdgt_enable:0000000000000000 .L0 
     /tmp/ccwgsmsq.s:55     .text.wwdgt_enable:0000000000000000 .L0 
     /tmp/ccwgsmsq.s:56     .text.wwdgt_enable:0000000000000000 .L0 
     /tmp/ccwgsmsq.s:57     .text.wwdgt_enable:0000000000000000 .L0 
     /tmp/ccwgsmsq.s:62     .text.wwdgt_enable:0000000000000010 .L0 
     /tmp/ccwgsmsq.s:63     .text.wwdgt_enable:0000000000000012 .L0 
     /tmp/ccwgsmsq.s:70     .text.wwdgt_counter_update:0000000000000000 wwdgt_counter_update
     /tmp/ccwgsmsq.s:73     .text.wwdgt_counter_update:0000000000000000 .L0 
     /tmp/ccwgsmsq.s:75     .text.wwdgt_counter_update:0000000000000000 .L0 
     /tmp/ccwgsmsq.s:76     .text.wwdgt_counter_update:0000000000000000 .L0 
     /tmp/ccwgsmsq.s:77     .text.wwdgt_counter_update:0000000000000000 .L0 
     /tmp/ccwgsmsq.s:78     .text.wwdgt_counter_update:0000000000000000 .L0 
     /tmp/ccwgsmsq.s:81     .text.wwdgt_counter_update:0000000000000008 .L0 
     /tmp/ccwgsmsq.s:84     .text.wwdgt_counter_update:000000000000000c .L0 
     /tmp/ccwgsmsq.s:87     .text.wwdgt_counter_update:0000000000000010 .L0 
     /tmp/ccwgsmsq.s:88     .text.wwdgt_counter_update:0000000000000010 .L0 
     /tmp/ccwgsmsq.s:91     .text.wwdgt_counter_update:0000000000000012 .L0 
     /tmp/ccwgsmsq.s:92     .text.wwdgt_counter_update:0000000000000012 .L0 
     /tmp/ccwgsmsq.s:94     .text.wwdgt_counter_update:0000000000000016 .L0 
     /tmp/ccwgsmsq.s:95     .text.wwdgt_counter_update:0000000000000018 .L0 
     /tmp/ccwgsmsq.s:102    .text.wwdgt_config:0000000000000000 wwdgt_config
     /tmp/ccwgsmsq.s:105    .text.wwdgt_config:0000000000000000 .L0 
     /tmp/ccwgsmsq.s:107    .text.wwdgt_config:0000000000000000 .L0 
     /tmp/ccwgsmsq.s:108    .text.wwdgt_config:0000000000000000 .L0 
     /tmp/ccwgsmsq.s:109    .text.wwdgt_config:0000000000000000 .L0 
     /tmp/ccwgsmsq.s:110    .text.wwdgt_config:0000000000000000 .L0 
     /tmp/ccwgsmsq.s:114    .text.wwdgt_config:0000000000000008 .L0 
     /tmp/ccwgsmsq.s:115    .text.wwdgt_config:0000000000000008 .L0 
     /tmp/ccwgsmsq.s:117    .text.wwdgt_config:000000000000000c .L0 
     /tmp/ccwgsmsq.s:120    .text.wwdgt_config:0000000000000010 .L0 
     /tmp/ccwgsmsq.s:123    .text.wwdgt_config:0000000000000014 .L0 
     /tmp/ccwgsmsq.s:126    .text.wwdgt_config:0000000000000018 .L0 
     /tmp/ccwgsmsq.s:129    .text.wwdgt_config:000000000000001a .L0 
     /tmp/ccwgsmsq.s:130    .text.wwdgt_config:000000000000001a .L0 
     /tmp/ccwgsmsq.s:133    .text.wwdgt_config:000000000000001e .L0 
     /tmp/ccwgsmsq.s:135    .text.wwdgt_config:0000000000000020 .L0 
GAS LISTING /tmp/ccwgsmsq.s 			page 9


     /tmp/ccwgsmsq.s:138    .text.wwdgt_config:0000000000000022 .L0 
     /tmp/ccwgsmsq.s:139    .text.wwdgt_config:0000000000000022 .L0 
     /tmp/ccwgsmsq.s:140    .text.wwdgt_config:0000000000000022 .L0 
     /tmp/ccwgsmsq.s:142    .text.wwdgt_config:0000000000000026 .L0 
     /tmp/ccwgsmsq.s:143    .text.wwdgt_config:0000000000000026 .L0 
     /tmp/ccwgsmsq.s:145    .text.wwdgt_config:000000000000002a .L0 
     /tmp/ccwgsmsq.s:146    .text.wwdgt_config:000000000000002c .L0 
     /tmp/ccwgsmsq.s:153    .text.wwdgt_interrupt_enable:0000000000000000 wwdgt_interrupt_enable
     /tmp/ccwgsmsq.s:156    .text.wwdgt_interrupt_enable:0000000000000000 .L0 
     /tmp/ccwgsmsq.s:157    .text.wwdgt_interrupt_enable:0000000000000000 .L0 
     /tmp/ccwgsmsq.s:158    .text.wwdgt_interrupt_enable:0000000000000000 .L0 
     /tmp/ccwgsmsq.s:159    .text.wwdgt_interrupt_enable:0000000000000000 .L0 
     /tmp/ccwgsmsq.s:164    .text.wwdgt_interrupt_enable:0000000000000010 .L0 
     /tmp/ccwgsmsq.s:165    .text.wwdgt_interrupt_enable:0000000000000012 .L0 
     /tmp/ccwgsmsq.s:172    .text.wwdgt_flag_get:0000000000000000 wwdgt_flag_get
     /tmp/ccwgsmsq.s:175    .text.wwdgt_flag_get:0000000000000000 .L0 
     /tmp/ccwgsmsq.s:176    .text.wwdgt_flag_get:0000000000000000 .L0 
     /tmp/ccwgsmsq.s:177    .text.wwdgt_flag_get:0000000000000000 .L0 
     /tmp/ccwgsmsq.s:178    .text.wwdgt_flag_get:0000000000000000 .L0 
     /tmp/ccwgsmsq.s:181    .text.wwdgt_flag_get:0000000000000008 .L0 
     /tmp/ccwgsmsq.s:183    .text.wwdgt_flag_get:000000000000000c .L0 
     /tmp/ccwgsmsq.s:190    .text.wwdgt_flag_clear:0000000000000000 wwdgt_flag_clear
     /tmp/ccwgsmsq.s:193    .text.wwdgt_flag_clear:0000000000000000 .L0 
     /tmp/ccwgsmsq.s:194    .text.wwdgt_flag_clear:0000000000000000 .L0 
     /tmp/ccwgsmsq.s:195    .text.wwdgt_flag_clear:0000000000000000 .L0 
     /tmp/ccwgsmsq.s:196    .text.wwdgt_flag_clear:0000000000000000 .L0 
     /tmp/ccwgsmsq.s:201    .text.wwdgt_flag_clear:000000000000000e .L0 
     /tmp/ccwgsmsq.s:202    .text.wwdgt_flag_clear:0000000000000010 .L0 
     /tmp/ccwgsmsq.s:47     .text.wwdgt_deinit:0000000000000020 .L0 
     /tmp/ccwgsmsq.s:66     .text.wwdgt_enable:0000000000000012 .L0 
     /tmp/ccwgsmsq.s:98     .text.wwdgt_counter_update:0000000000000018 .L0 
     /tmp/ccwgsmsq.s:149    .text.wwdgt_config:000000000000002c .L0 
     /tmp/ccwgsmsq.s:168    .text.wwdgt_interrupt_enable:0000000000000012 .L0 
     /tmp/ccwgsmsq.s:186    .text.wwdgt_flag_get:000000000000000c .L0 
     /tmp/ccwgsmsq.s:205    .text.wwdgt_flag_clear:0000000000000010 .L0 
                     .debug_frame:0000000000000000 .L0 
     /tmp/ccwgsmsq.s:609    .debug_abbrev:0000000000000000 .Ldebug_abbrev0
     /tmp/ccwgsmsq.s:1241   .debug_str:000000000000032b .LASF62
     /tmp/ccwgsmsq.s:1163   .debug_str:00000000000000d9 .LASF63
     /tmp/ccwgsmsq.s:1237   .debug_str:00000000000002f1 .LASF64
     /tmp/ccwgsmsq.s:1111   .debug_ranges:0000000000000000 .Ldebug_ranges0
     /tmp/ccwgsmsq.s:1129   .debug_line:0000000000000000 .Ldebug_line0
     /tmp/ccwgsmsq.s:1201   .debug_str:0000000000000205 .LASF0
     /tmp/ccwgsmsq.s:1189   .debug_str:00000000000001b5 .LASF1
     /tmp/ccwgsmsq.s:1183   .debug_str:0000000000000195 .LASF2
     /tmp/ccwgsmsq.s:1161   .debug_str:00000000000000cf .LASF3
     /tmp/ccwgsmsq.s:1157   .debug_str:00000000000000ad .LASF6
     /tmp/ccwgsmsq.s:1211   .debug_str:000000000000023e .LASF4
     /tmp/ccwgsmsq.s:1173   .debug_str:0000000000000158 .LASF5
     /tmp/ccwgsmsq.s:1153   .debug_str:0000000000000094 .LASF7
     /tmp/ccwgsmsq.s:1223   .debug_str:000000000000029b .LASF8
     /tmp/ccwgsmsq.s:1171   .debug_str:000000000000014a .LASF9
     /tmp/ccwgsmsq.s:1193   .debug_str:00000000000001cc .LASF10
     /tmp/ccwgsmsq.s:1203   .debug_str:0000000000000212 .LASF11
     /tmp/ccwgsmsq.s:1197   .debug_str:00000000000001f0 .LASF12
     /tmp/ccwgsmsq.s:1233   .debug_str:00000000000002de .LASF13
     /tmp/ccwgsmsq.s:1255   .debug_str:0000000000000419 .LASF14
GAS LISTING /tmp/ccwgsmsq.s 			page 10


     /tmp/ccwgsmsq.s:1135   .debug_str:000000000000001b .LASF15
     /tmp/ccwgsmsq.s:1215   .debug_str:0000000000000262 .LASF16
     /tmp/ccwgsmsq.s:1247   .debug_str:00000000000003d7 .LASF17
     /tmp/ccwgsmsq.s:1155   .debug_str:000000000000009f .LASF18
     /tmp/ccwgsmsq.s:1177   .debug_str:000000000000016d .LASF19
     /tmp/ccwgsmsq.s:1217   .debug_str:0000000000000270 .LASF20
     /tmp/ccwgsmsq.s:1251   .debug_str:00000000000003fd .LASF21
     /tmp/ccwgsmsq.s:1261   .debug_str:000000000000043e .LASF22
     /tmp/ccwgsmsq.s:1149   .debug_str:000000000000006f .LASF23
     /tmp/ccwgsmsq.s:1175   .debug_str:0000000000000161 .LASF24
     /tmp/ccwgsmsq.s:1221   .debug_str:000000000000028d .LASF25
     /tmp/ccwgsmsq.s:1259   .debug_str:0000000000000430 .LASF26
     /tmp/ccwgsmsq.s:1225   .debug_str:00000000000002ad .LASF27
     /tmp/ccwgsmsq.s:1137   .debug_str:0000000000000028 .LASF28
     /tmp/ccwgsmsq.s:1257   .debug_str:0000000000000424 .LASF29
     /tmp/ccwgsmsq.s:1229   .debug_str:00000000000002c7 .LASF30
     /tmp/ccwgsmsq.s:1143   .debug_str:000000000000004f .LASF31
     /tmp/ccwgsmsq.s:1169   .debug_str:000000000000013e .LASF32
     /tmp/ccwgsmsq.s:1147   .debug_str:0000000000000063 .LASF33
     /tmp/ccwgsmsq.s:1231   .debug_str:00000000000002d3 .LASF34
     /tmp/ccwgsmsq.s:1191   .debug_str:00000000000001c1 .LASF35
     /tmp/ccwgsmsq.s:1185   .debug_str:00000000000001a3 .LASF36
     /tmp/ccwgsmsq.s:1195   .debug_str:00000000000001e3 .LASF37
     /tmp/ccwgsmsq.s:1227   .debug_str:00000000000002ba .LASF38
     /tmp/ccwgsmsq.s:1141   .debug_str:0000000000000042 .LASF39
     /tmp/ccwgsmsq.s:1167   .debug_str:0000000000000131 .LASF40
     /tmp/ccwgsmsq.s:1205   .debug_str:000000000000021b .LASF41
     /tmp/ccwgsmsq.s:1207   .debug_str:0000000000000228 .LASF42
     /tmp/ccwgsmsq.s:1199   .debug_str:00000000000001f9 .LASF43
     /tmp/ccwgsmsq.s:1131   .debug_str:0000000000000000 .LASF44
     /tmp/ccwgsmsq.s:1245   .debug_str:00000000000003cb .LASF45
     /tmp/ccwgsmsq.s:1179   .debug_str:000000000000017b .LASF46
     /tmp/ccwgsmsq.s:1181   .debug_str:0000000000000189 .LASF47
     /tmp/ccwgsmsq.s:1213   .debug_str:0000000000000251 .LASF48
     /tmp/ccwgsmsq.s:191    .text.wwdgt_flag_clear:0000000000000000 .LFB8
     /tmp/ccwgsmsq.s:203    .text.wwdgt_flag_clear:0000000000000010 .LFE8
     /tmp/ccwgsmsq.s:1219   .debug_str:000000000000027e .LASF65
     /tmp/ccwgsmsq.s:173    .text.wwdgt_flag_get:0000000000000000 .LFB7
     /tmp/ccwgsmsq.s:184    .text.wwdgt_flag_get:000000000000000c .LFE7
     /tmp/ccwgsmsq.s:1159   .debug_str:00000000000000b8 .LASF49
     /tmp/ccwgsmsq.s:154    .text.wwdgt_interrupt_enable:0000000000000000 .LFB6
     /tmp/ccwgsmsq.s:166    .text.wwdgt_interrupt_enable:0000000000000012 .LFE6
     /tmp/ccwgsmsq.s:1133   .debug_str:000000000000000e .LASF55
     /tmp/ccwgsmsq.s:103    .text.wwdgt_config:0000000000000000 .LFB5
     /tmp/ccwgsmsq.s:147    .text.wwdgt_config:000000000000002c .LFE5
     /tmp/ccwgsmsq.s:1187   .debug_str:00000000000001ad .LASF50
     /tmp/ccwgsmsq.s:969    .debug_loc:0000000000000000 .LLST3
     /tmp/ccwgsmsq.s:1243   .debug_str:00000000000003c4 .LASF51
     /tmp/ccwgsmsq.s:983    .debug_loc:0000000000000021 .LLST4
     /tmp/ccwgsmsq.s:1209   .debug_str:0000000000000234 .LASF52
     /tmp/ccwgsmsq.s:1145   .debug_str:000000000000005b .LASF53
     /tmp/ccwgsmsq.s:997    .debug_loc:0000000000000042 .LLST5
     /tmp/ccwgsmsq.s:1239   .debug_str:0000000000000323 .LASF54
     /tmp/ccwgsmsq.s:1022   .debug_loc:000000000000007d .LLST6
     /tmp/ccwgsmsq.s:1165   .debug_str:000000000000011c .LASF56
     /tmp/ccwgsmsq.s:71     .text.wwdgt_counter_update:0000000000000000 .LFB4
     /tmp/ccwgsmsq.s:96     .text.wwdgt_counter_update:0000000000000018 .LFE4
GAS LISTING /tmp/ccwgsmsq.s 			page 11


     /tmp/ccwgsmsq.s:1253   .debug_str:000000000000040b .LASF57
     /tmp/ccwgsmsq.s:1038   .debug_loc:00000000000000a7 .LLST1
     /tmp/ccwgsmsq.s:1052   .debug_loc:00000000000000c8 .LLST2
     /tmp/ccwgsmsq.s:1139   .debug_str:0000000000000035 .LASF58
     /tmp/ccwgsmsq.s:52     .text.wwdgt_enable:0000000000000000 .LFB3
     /tmp/ccwgsmsq.s:64     .text.wwdgt_enable:0000000000000012 .LFE3
     /tmp/ccwgsmsq.s:1235   .debug_str:00000000000002e4 .LASF59
     /tmp/ccwgsmsq.s:14     .text.wwdgt_deinit:0000000000000000 .LFB2
     /tmp/ccwgsmsq.s:45     .text.wwdgt_deinit:0000000000000020 .LFE2
     /tmp/ccwgsmsq.s:1068   .debug_loc:00000000000000f2 .LLST0
     /tmp/ccwgsmsq.s:30     .text.wwdgt_deinit:0000000000000010 .LVL0
     /tmp/ccwgsmsq.s:43     .text.wwdgt_deinit:0000000000000020 .LVL1
     /tmp/ccwgsmsq.s:1249   .debug_str:00000000000003e5 .LASF60
     /tmp/ccwgsmsq.s:1151   .debug_str:000000000000007b .LASF61
     /tmp/ccwgsmsq.s:106    .text.wwdgt_config:0000000000000000 .LVL6
     /tmp/ccwgsmsq.s:118    .text.wwdgt_config:0000000000000010 .LVL8
     /tmp/ccwgsmsq.s:131    .text.wwdgt_config:000000000000001e .LVL12
     /tmp/ccwgsmsq.s:112    .text.wwdgt_config:0000000000000008 .LVL7
     /tmp/ccwgsmsq.s:121    .text.wwdgt_config:0000000000000014 .LVL9
     /tmp/ccwgsmsq.s:127    .text.wwdgt_config:000000000000001a .LVL11
     /tmp/ccwgsmsq.s:136    .text.wwdgt_config:0000000000000022 .LVL13
     /tmp/ccwgsmsq.s:124    .text.wwdgt_config:0000000000000018 .LVL10
     /tmp/ccwgsmsq.s:74     .text.wwdgt_counter_update:0000000000000000 .LVL2
     /tmp/ccwgsmsq.s:82     .text.wwdgt_counter_update:000000000000000c .LVL3
     /tmp/ccwgsmsq.s:85     .text.wwdgt_counter_update:0000000000000010 .LVL4
     /tmp/ccwgsmsq.s:89     .text.wwdgt_counter_update:0000000000000012 .LVL5
     /tmp/ccwgsmsq.s:21     .text.wwdgt_deinit:0000000000000002 .LCFI0
     /tmp/ccwgsmsq.s:39     .text.wwdgt_deinit:0000000000000018 .LCFI1
     /tmp/ccwgsmsq.s:212    .debug_info:0000000000000000 .Ldebug_info0

UNDEFINED SYMBOLS
rcu_periph_reset_enable
rcu_periph_reset_disable
