GAS LISTING /tmp/ccyQOTuX.s 			page 1


   1              		.file	"gd32vf103_can.c"
   2              		.option nopic
   3              		.attribute arch, "rv32i2p0_m2p0_a2p0_c2p0"
   4              		.attribute unaligned_access, 0
   5              		.attribute stack_align, 16
   6              		.text
   7              	.Ltext0:
   8              		.cfi_sections	.debug_frame
   9              		.section	.text.can_deinit,"ax",@progbits
  10              		.align	1
  11              		.globl	can_deinit
  13              	can_deinit:
  14              	.LFB2:
  15              		.file 1 "../Firmware/GD32VF103_standard_peripheral/Source/gd32vf103_can.c"
   1:../Firmware/GD32VF103_standard_peripheral/Source/gd32vf103_can.c **** /*!
   2:../Firmware/GD32VF103_standard_peripheral/Source/gd32vf103_can.c ****     \file  gd32vf103_can.c
   3:../Firmware/GD32VF103_standard_peripheral/Source/gd32vf103_can.c ****     \brief CAN driver
   4:../Firmware/GD32VF103_standard_peripheral/Source/gd32vf103_can.c ****     
   5:../Firmware/GD32VF103_standard_peripheral/Source/gd32vf103_can.c ****     \version 2019-6-5, V1.0.0, firmware for GD32VF103
   6:../Firmware/GD32VF103_standard_peripheral/Source/gd32vf103_can.c **** */
   7:../Firmware/GD32VF103_standard_peripheral/Source/gd32vf103_can.c **** 
   8:../Firmware/GD32VF103_standard_peripheral/Source/gd32vf103_can.c **** /*
   9:../Firmware/GD32VF103_standard_peripheral/Source/gd32vf103_can.c ****     Copyright (c) 2019, GigaDevice Semiconductor Inc.
  10:../Firmware/GD32VF103_standard_peripheral/Source/gd32vf103_can.c **** 
  11:../Firmware/GD32VF103_standard_peripheral/Source/gd32vf103_can.c ****     Redistribution and use in source and binary forms, with or without modification, 
  12:../Firmware/GD32VF103_standard_peripheral/Source/gd32vf103_can.c **** are permitted provided that the following conditions are met:
  13:../Firmware/GD32VF103_standard_peripheral/Source/gd32vf103_can.c **** 
  14:../Firmware/GD32VF103_standard_peripheral/Source/gd32vf103_can.c ****     1. Redistributions of source code must retain the above copyright notice, this 
  15:../Firmware/GD32VF103_standard_peripheral/Source/gd32vf103_can.c ****        list of conditions and the following disclaimer.
  16:../Firmware/GD32VF103_standard_peripheral/Source/gd32vf103_can.c ****     2. Redistributions in binary form must reproduce the above copyright notice, 
  17:../Firmware/GD32VF103_standard_peripheral/Source/gd32vf103_can.c ****        this list of conditions and the following disclaimer in the documentation 
  18:../Firmware/GD32VF103_standard_peripheral/Source/gd32vf103_can.c ****        and/or other materials provided with the distribution.
  19:../Firmware/GD32VF103_standard_peripheral/Source/gd32vf103_can.c ****     3. Neither the name of the copyright holder nor the names of its contributors 
  20:../Firmware/GD32VF103_standard_peripheral/Source/gd32vf103_can.c ****        may be used to endorse or promote products derived from this software without 
  21:../Firmware/GD32VF103_standard_peripheral/Source/gd32vf103_can.c ****        specific prior written permission.
  22:../Firmware/GD32VF103_standard_peripheral/Source/gd32vf103_can.c **** 
  23:../Firmware/GD32VF103_standard_peripheral/Source/gd32vf103_can.c ****     THIS SOFTWARE IS PROVIDED BY THE COPYRIGHT HOLDERS AND CONTRIBUTORS "AS IS" 
  24:../Firmware/GD32VF103_standard_peripheral/Source/gd32vf103_can.c **** AND ANY EXPRESS OR IMPLIED WARRANTIES, INCLUDING, BUT NOT LIMITED TO, THE IMPLIED 
  25:../Firmware/GD32VF103_standard_peripheral/Source/gd32vf103_can.c **** WARRANTIES OF MERCHANTABILITY AND FITNESS FOR A PARTICULAR PURPOSE ARE DISCLAIMED. 
  26:../Firmware/GD32VF103_standard_peripheral/Source/gd32vf103_can.c **** IN NO EVENT SHALL THE COPYRIGHT HOLDER OR CONTRIBUTORS BE LIABLE FOR ANY DIRECT, 
  27:../Firmware/GD32VF103_standard_peripheral/Source/gd32vf103_can.c **** INDIRECT, INCIDENTAL, SPECIAL, EXEMPLARY, OR CONSEQUENTIAL DAMAGES (INCLUDING, BUT 
  28:../Firmware/GD32VF103_standard_peripheral/Source/gd32vf103_can.c **** NOT LIMITED TO, PROCUREMENT OF SUBSTITUTE GOODS OR SERVICES; LOSS OF USE, DATA, OR 
  29:../Firmware/GD32VF103_standard_peripheral/Source/gd32vf103_can.c **** PROFITS; OR BUSINESS INTERRUPTION) HOWEVER CAUSED AND ON ANY THEORY OF LIABILITY, 
  30:../Firmware/GD32VF103_standard_peripheral/Source/gd32vf103_can.c **** WHETHER IN CONTRACT, STRICT LIABILITY, OR TORT (INCLUDING NEGLIGENCE OR OTHERWISE) 
  31:../Firmware/GD32VF103_standard_peripheral/Source/gd32vf103_can.c **** ARISING IN ANY WAY OUT OF THE USE OF THIS SOFTWARE, EVEN IF ADVISED OF THE POSSIBILITY 
  32:../Firmware/GD32VF103_standard_peripheral/Source/gd32vf103_can.c **** OF SUCH DAMAGE.
  33:../Firmware/GD32VF103_standard_peripheral/Source/gd32vf103_can.c **** */
  34:../Firmware/GD32VF103_standard_peripheral/Source/gd32vf103_can.c **** 
  35:../Firmware/GD32VF103_standard_peripheral/Source/gd32vf103_can.c **** #include "gd32vf103_can.h"
  36:../Firmware/GD32VF103_standard_peripheral/Source/gd32vf103_can.c **** 
  37:../Firmware/GD32VF103_standard_peripheral/Source/gd32vf103_can.c **** #define CAN_ERROR_HANDLE(s)     do{}while(1)
  38:../Firmware/GD32VF103_standard_peripheral/Source/gd32vf103_can.c **** 
  39:../Firmware/GD32VF103_standard_peripheral/Source/gd32vf103_can.c **** /*!
  40:../Firmware/GD32VF103_standard_peripheral/Source/gd32vf103_can.c ****     \brief      deinitialize CAN 
  41:../Firmware/GD32VF103_standard_peripheral/Source/gd32vf103_can.c ****     \param[in]  can_periph
  42:../Firmware/GD32VF103_standard_peripheral/Source/gd32vf103_can.c ****     \arg        CANx(x=0,1)
  43:../Firmware/GD32VF103_standard_peripheral/Source/gd32vf103_can.c ****     \param[out] none
GAS LISTING /tmp/ccyQOTuX.s 			page 2


  44:../Firmware/GD32VF103_standard_peripheral/Source/gd32vf103_can.c ****     \retval     none
  45:../Firmware/GD32VF103_standard_peripheral/Source/gd32vf103_can.c **** */
  46:../Firmware/GD32VF103_standard_peripheral/Source/gd32vf103_can.c **** void can_deinit(uint32_t can_periph)
  47:../Firmware/GD32VF103_standard_peripheral/Source/gd32vf103_can.c **** {
  16              		.loc 1 47 1
  17              		.cfi_startproc
  18              	.LVL0:
  48:../Firmware/GD32VF103_standard_peripheral/Source/gd32vf103_can.c ****     if(CAN0 == can_periph){
  19              		.loc 1 48 5
  47:../Firmware/GD32VF103_standard_peripheral/Source/gd32vf103_can.c ****     if(CAN0 == can_periph){
  20              		.loc 1 47 1 is_stmt 0
  21 0000 4111     		addi	sp,sp,-16
  22              	.LCFI0:
  23              		.cfi_def_cfa_offset 16
  24              		.loc 1 48 7
  25 0002 B7670040 		li	a5,1073766400
  47:../Firmware/GD32VF103_standard_peripheral/Source/gd32vf103_can.c ****     if(CAN0 == can_periph){
  26              		.loc 1 47 1
  27 0006 06C6     		sw	ra,12(sp)
  28              		.cfi_offset 1, -4
  29              		.loc 1 48 7
  30 0008 93870740 		addi	a5,a5,1024
  31 000c 6300F502 		beq	a0,a5,.L5
  49:../Firmware/GD32VF103_standard_peripheral/Source/gd32vf103_can.c ****         rcu_periph_reset_enable(RCU_CAN0RST);
  50:../Firmware/GD32VF103_standard_peripheral/Source/gd32vf103_can.c ****         rcu_periph_reset_disable(RCU_CAN0RST);
  51:../Firmware/GD32VF103_standard_peripheral/Source/gd32vf103_can.c ****     }else{
  52:../Firmware/GD32VF103_standard_peripheral/Source/gd32vf103_can.c ****         rcu_periph_reset_enable(RCU_CAN1RST);
  32              		.loc 1 52 9 is_stmt 1
  33 0010 1305A041 		li	a0,1050
  34              	.LVL1:
  35 0014 97000000 		call	rcu_periph_reset_enable
  35      E7800000 
  36              	.LVL2:
  53:../Firmware/GD32VF103_standard_peripheral/Source/gd32vf103_can.c ****         rcu_periph_reset_disable(RCU_CAN1RST);
  37              		.loc 1 53 9
  54:../Firmware/GD32VF103_standard_peripheral/Source/gd32vf103_can.c ****     }
  55:../Firmware/GD32VF103_standard_peripheral/Source/gd32vf103_can.c **** }
  38              		.loc 1 55 1 is_stmt 0
  39 001c B240     		lw	ra,12(sp)
  40              		.cfi_remember_state
  41              		.cfi_restore 1
  53:../Firmware/GD32VF103_standard_peripheral/Source/gd32vf103_can.c ****         rcu_periph_reset_disable(RCU_CAN1RST);
  42              		.loc 1 53 9
  43 001e 1305A041 		li	a0,1050
  44              		.loc 1 55 1
  45 0022 4101     		addi	sp,sp,16
  46              	.LCFI1:
  47              		.cfi_def_cfa_offset 0
  53:../Firmware/GD32VF103_standard_peripheral/Source/gd32vf103_can.c ****         rcu_periph_reset_disable(RCU_CAN1RST);
  48              		.loc 1 53 9
  49 0024 17030000 		tail	rcu_periph_reset_disable
  49      67000300 
  50              	.LVL3:
  51              	.L5:
  52              	.LCFI2:
  53              		.cfi_restore_state
  49:../Firmware/GD32VF103_standard_peripheral/Source/gd32vf103_can.c ****         rcu_periph_reset_disable(RCU_CAN0RST);
GAS LISTING /tmp/ccyQOTuX.s 			page 3


  54              		.loc 1 49 9 is_stmt 1
  55 002c 13059041 		li	a0,1049
  56              	.LVL4:
  57 0030 97000000 		call	rcu_periph_reset_enable
  57      E7800000 
  58              	.LVL5:
  50:../Firmware/GD32VF103_standard_peripheral/Source/gd32vf103_can.c ****     }else{
  59              		.loc 1 50 9
  60              		.loc 1 55 1 is_stmt 0
  61 0038 B240     		lw	ra,12(sp)
  62              		.cfi_restore 1
  50:../Firmware/GD32VF103_standard_peripheral/Source/gd32vf103_can.c ****     }else{
  63              		.loc 1 50 9
  64 003a 13059041 		li	a0,1049
  65              		.loc 1 55 1
  66 003e 4101     		addi	sp,sp,16
  67              	.LCFI3:
  68              		.cfi_def_cfa_offset 0
  50:../Firmware/GD32VF103_standard_peripheral/Source/gd32vf103_can.c ****     }else{
  69              		.loc 1 50 9
  70 0040 17030000 		tail	rcu_periph_reset_disable
  70      67000300 
  71              	.LVL6:
  72              		.cfi_endproc
  73              	.LFE2:
  75              		.section	.text.can_struct_para_init,"ax",@progbits
  76              		.align	1
  77              		.globl	can_struct_para_init
  79              	can_struct_para_init:
  80              	.LFB3:
  56:../Firmware/GD32VF103_standard_peripheral/Source/gd32vf103_can.c **** 
  57:../Firmware/GD32VF103_standard_peripheral/Source/gd32vf103_can.c **** /*!
  58:../Firmware/GD32VF103_standard_peripheral/Source/gd32vf103_can.c ****     \brief      initialize CAN parameter struct with a default value
  59:../Firmware/GD32VF103_standard_peripheral/Source/gd32vf103_can.c ****     \param[in]  type: the type of CAN parameter struct  
  60:../Firmware/GD32VF103_standard_peripheral/Source/gd32vf103_can.c ****                 only one parameter can be selected which is shown as below:
  61:../Firmware/GD32VF103_standard_peripheral/Source/gd32vf103_can.c ****       \arg        CAN_INIT_STRUCT: the CAN initial struct
  62:../Firmware/GD32VF103_standard_peripheral/Source/gd32vf103_can.c ****       \arg        CAN_FILTER_STRUCT: the CAN filter struct
  63:../Firmware/GD32VF103_standard_peripheral/Source/gd32vf103_can.c ****       \arg        CAN_TX_MESSAGE_STRUCT: the CAN TX message struct
  64:../Firmware/GD32VF103_standard_peripheral/Source/gd32vf103_can.c ****       \arg        CAN_RX_MESSAGE_STRUCT: the CAN RX message struct
  65:../Firmware/GD32VF103_standard_peripheral/Source/gd32vf103_can.c ****     \param[in]  p_struct: the pointer of the specific struct 
  66:../Firmware/GD32VF103_standard_peripheral/Source/gd32vf103_can.c ****     \param[out] none
  67:../Firmware/GD32VF103_standard_peripheral/Source/gd32vf103_can.c ****     \retval     none
  68:../Firmware/GD32VF103_standard_peripheral/Source/gd32vf103_can.c **** */
  69:../Firmware/GD32VF103_standard_peripheral/Source/gd32vf103_can.c **** void can_struct_para_init(can_struct_type_enum type, void* p_struct)
  70:../Firmware/GD32VF103_standard_peripheral/Source/gd32vf103_can.c **** {
  81              		.loc 1 70 1 is_stmt 1
  82              		.cfi_startproc
  83              	.LVL7:
  71:../Firmware/GD32VF103_standard_peripheral/Source/gd32vf103_can.c ****     uint8_t i;
  84              		.loc 1 71 5
  72:../Firmware/GD32VF103_standard_peripheral/Source/gd32vf103_can.c ****     
  73:../Firmware/GD32VF103_standard_peripheral/Source/gd32vf103_can.c ****     /* get type of the struct */
  74:../Firmware/GD32VF103_standard_peripheral/Source/gd32vf103_can.c ****     switch(type){
  85              		.loc 1 74 5
  86 0000 8947     		li	a5,2
  87 0002 6303F508 		beq	a0,a5,.L7
  88 0006 63EEA700 		bgtu	a0,a5,.L8
GAS LISTING /tmp/ccyQOTuX.s 			page 4


  89 000a 39C9     		beq	a0,zero,.L15
  75:../Firmware/GD32VF103_standard_peripheral/Source/gd32vf103_can.c ****         /* used for can_init() */
  76:../Firmware/GD32VF103_standard_peripheral/Source/gd32vf103_can.c ****         case CAN_INIT_STRUCT:
  77:../Firmware/GD32VF103_standard_peripheral/Source/gd32vf103_can.c ****             ((can_parameter_struct*)p_struct)->auto_bus_off_recovery = DISABLE;
  78:../Firmware/GD32VF103_standard_peripheral/Source/gd32vf103_can.c ****             ((can_parameter_struct*)p_struct)->no_auto_retrans = DISABLE;
  79:../Firmware/GD32VF103_standard_peripheral/Source/gd32vf103_can.c ****             ((can_parameter_struct*)p_struct)->auto_wake_up = DISABLE;
  80:../Firmware/GD32VF103_standard_peripheral/Source/gd32vf103_can.c ****             ((can_parameter_struct*)p_struct)->prescaler = 0x03FFU; 
  81:../Firmware/GD32VF103_standard_peripheral/Source/gd32vf103_can.c ****             ((can_parameter_struct*)p_struct)->rec_fifo_overwrite = DISABLE; 
  82:../Firmware/GD32VF103_standard_peripheral/Source/gd32vf103_can.c ****             ((can_parameter_struct*)p_struct)->resync_jump_width = CAN_BT_SJW_1TQ;
  83:../Firmware/GD32VF103_standard_peripheral/Source/gd32vf103_can.c ****             ((can_parameter_struct*)p_struct)->time_segment_1 = CAN_BT_BS1_3TQ;
  84:../Firmware/GD32VF103_standard_peripheral/Source/gd32vf103_can.c ****             ((can_parameter_struct*)p_struct)->time_segment_2 = CAN_BT_BS2_1TQ;
  85:../Firmware/GD32VF103_standard_peripheral/Source/gd32vf103_can.c ****             ((can_parameter_struct*)p_struct)->time_triggered = DISABLE;
  86:../Firmware/GD32VF103_standard_peripheral/Source/gd32vf103_can.c ****             ((can_parameter_struct*)p_struct)->trans_fifo_order = DISABLE;
  87:../Firmware/GD32VF103_standard_peripheral/Source/gd32vf103_can.c ****             ((can_parameter_struct*)p_struct)->working_mode = CAN_NORMAL_MODE;
  88:../Firmware/GD32VF103_standard_peripheral/Source/gd32vf103_can.c ****             
  89:../Firmware/GD32VF103_standard_peripheral/Source/gd32vf103_can.c ****             break;
  90:../Firmware/GD32VF103_standard_peripheral/Source/gd32vf103_can.c ****         /* used for can_filter_init() */
  91:../Firmware/GD32VF103_standard_peripheral/Source/gd32vf103_can.c ****         case CAN_FILTER_STRUCT:
  92:../Firmware/GD32VF103_standard_peripheral/Source/gd32vf103_can.c ****             ((can_filter_parameter_struct*)p_struct)->filter_bits = CAN_FILTERBITS_32BIT;
  90              		.loc 1 92 13
  93:../Firmware/GD32VF103_standard_peripheral/Source/gd32vf103_can.c ****             ((can_filter_parameter_struct*)p_struct)->filter_enable = DISABLE;
  91              		.loc 1 93 13
  94:../Firmware/GD32VF103_standard_peripheral/Source/gd32vf103_can.c ****             ((can_filter_parameter_struct*)p_struct)->filter_fifo_number = CAN_FIFO0;
  92              		.loc 1 94 13
  95:../Firmware/GD32VF103_standard_peripheral/Source/gd32vf103_can.c ****             ((can_filter_parameter_struct*)p_struct)->filter_list_high = 0x0000U;
  93              		.loc 1 95 13
  96:../Firmware/GD32VF103_standard_peripheral/Source/gd32vf103_can.c ****             ((can_filter_parameter_struct*)p_struct)->filter_list_low = 0x0000U;
  94              		.loc 1 96 13
  97:../Firmware/GD32VF103_standard_peripheral/Source/gd32vf103_can.c ****             ((can_filter_parameter_struct*)p_struct)->filter_mask_high = 0x0000U;
  95              		.loc 1 97 13
  98:../Firmware/GD32VF103_standard_peripheral/Source/gd32vf103_can.c ****             ((can_filter_parameter_struct*)p_struct)->filter_mask_low = 0x0000U;
  96              		.loc 1 98 13
  99:../Firmware/GD32VF103_standard_peripheral/Source/gd32vf103_can.c ****             ((can_filter_parameter_struct*)p_struct)->filter_mode = CAN_FILTERMODE_MASK;
  97              		.loc 1 99 13
 100:../Firmware/GD32VF103_standard_peripheral/Source/gd32vf103_can.c ****             ((can_filter_parameter_struct*)p_struct)->filter_number = 0U;
  98              		.loc 1 100 13
  99:../Firmware/GD32VF103_standard_peripheral/Source/gd32vf103_can.c ****             ((can_filter_parameter_struct*)p_struct)->filter_mode = CAN_FILTERMODE_MASK;
  99              		.loc 1 99 67 is_stmt 0
 100 000c C167     		li	a5,65536
  95:../Firmware/GD32VF103_standard_peripheral/Source/gd32vf103_can.c ****             ((can_filter_parameter_struct*)p_struct)->filter_list_low = 0x0000U;
 101              		.loc 1 95 72
 102 000e 23A00500 		sw	zero,0(a1)
  97:../Firmware/GD32VF103_standard_peripheral/Source/gd32vf103_can.c ****             ((can_filter_parameter_struct*)p_struct)->filter_mask_low = 0x0000U;
 103              		.loc 1 97 72
 104 0012 23A20500 		sw	zero,4(a1)
  94:../Firmware/GD32VF103_standard_peripheral/Source/gd32vf103_can.c ****             ((can_filter_parameter_struct*)p_struct)->filter_list_high = 0x0000U;
 105              		.loc 1 94 74
 106 0016 23A40500 		sw	zero,8(a1)
  99:../Firmware/GD32VF103_standard_peripheral/Source/gd32vf103_can.c ****             ((can_filter_parameter_struct*)p_struct)->filter_number = 0U;
 107              		.loc 1 99 67
 108 001a DCC5     		sw	a5,12(a1)
  93:../Firmware/GD32VF103_standard_peripheral/Source/gd32vf103_can.c ****             ((can_filter_parameter_struct*)p_struct)->filter_fifo_number = CAN_FIFO0;
 109              		.loc 1 93 69
 110 001c 23A80500 		sw	zero,16(a1)
 101:../Firmware/GD32VF103_standard_peripheral/Source/gd32vf103_can.c **** 
 102:../Firmware/GD32VF103_standard_peripheral/Source/gd32vf103_can.c ****             break;
 111              		.loc 1 102 13 is_stmt 1
GAS LISTING /tmp/ccyQOTuX.s 			page 5


 112 0020 8280     		ret
 113              	.L8:
  74:../Firmware/GD32VF103_standard_peripheral/Source/gd32vf103_can.c ****         /* used for can_init() */
 114              		.loc 1 74 5 is_stmt 0
 115 0022 8D47     		li	a5,3
 116 0024 631DF502 		bne	a0,a5,.L16
 103:../Firmware/GD32VF103_standard_peripheral/Source/gd32vf103_can.c ****         /* used for can_message_transmit() */
 104:../Firmware/GD32VF103_standard_peripheral/Source/gd32vf103_can.c ****         case CAN_TX_MESSAGE_STRUCT:
 105:../Firmware/GD32VF103_standard_peripheral/Source/gd32vf103_can.c ****             for(i = 0U; i < 8U; i++){
 106:../Firmware/GD32VF103_standard_peripheral/Source/gd32vf103_can.c ****                 ((can_trasnmit_message_struct*)p_struct)->tx_data[i] = 0U;
 107:../Firmware/GD32VF103_standard_peripheral/Source/gd32vf103_can.c ****             }
 108:../Firmware/GD32VF103_standard_peripheral/Source/gd32vf103_can.c ****             
 109:../Firmware/GD32VF103_standard_peripheral/Source/gd32vf103_can.c ****             ((can_trasnmit_message_struct*)p_struct)->tx_dlen = 0u;
 110:../Firmware/GD32VF103_standard_peripheral/Source/gd32vf103_can.c ****             ((can_trasnmit_message_struct*)p_struct)->tx_efid = 0U;
 111:../Firmware/GD32VF103_standard_peripheral/Source/gd32vf103_can.c ****             ((can_trasnmit_message_struct*)p_struct)->tx_ff = (uint8_t)CAN_FF_STANDARD;
 112:../Firmware/GD32VF103_standard_peripheral/Source/gd32vf103_can.c ****             ((can_trasnmit_message_struct*)p_struct)->tx_ft = (uint8_t)CAN_FT_DATA;
 113:../Firmware/GD32VF103_standard_peripheral/Source/gd32vf103_can.c ****             ((can_trasnmit_message_struct*)p_struct)->tx_sfid = 0U;
 114:../Firmware/GD32VF103_standard_peripheral/Source/gd32vf103_can.c ****             
 115:../Firmware/GD32VF103_standard_peripheral/Source/gd32vf103_can.c ****             break;
 116:../Firmware/GD32VF103_standard_peripheral/Source/gd32vf103_can.c ****         /* used for can_message_receive() */
 117:../Firmware/GD32VF103_standard_peripheral/Source/gd32vf103_can.c ****         case CAN_RX_MESSAGE_STRUCT:
 118:../Firmware/GD32VF103_standard_peripheral/Source/gd32vf103_can.c ****             for(i = 0U; i < 8U; i++){
 119:../Firmware/GD32VF103_standard_peripheral/Source/gd32vf103_can.c ****                 ((can_receive_message_struct*)p_struct)->rx_data[i] = 0U;
 117              		.loc 1 119 69
 118 0028 A3850500 		sb	zero,11(a1)
 119 002c 23860500 		sb	zero,12(a1)
 120 0030 A3860500 		sb	zero,13(a1)
 121 0034 23870500 		sb	zero,14(a1)
 122 0038 A3870500 		sb	zero,15(a1)
 123 003c 23880500 		sb	zero,16(a1)
 124 0040 A3880500 		sb	zero,17(a1)
 125 0044 23890500 		sb	zero,18(a1)
 120:../Firmware/GD32VF103_standard_peripheral/Source/gd32vf103_can.c ****             }
 121:../Firmware/GD32VF103_standard_peripheral/Source/gd32vf103_can.c ****             
 122:../Firmware/GD32VF103_standard_peripheral/Source/gd32vf103_can.c ****             ((can_receive_message_struct*)p_struct)->rx_dlen = 0U;
 126              		.loc 1 122 13 is_stmt 1
 123:../Firmware/GD32VF103_standard_peripheral/Source/gd32vf103_can.c ****             ((can_receive_message_struct*)p_struct)->rx_efid = 0U;
 127              		.loc 1 123 13
 124:../Firmware/GD32VF103_standard_peripheral/Source/gd32vf103_can.c ****             ((can_receive_message_struct*)p_struct)->rx_ff = (uint8_t)CAN_FF_STANDARD;
 128              		.loc 1 124 13
 125:../Firmware/GD32VF103_standard_peripheral/Source/gd32vf103_can.c ****             ((can_receive_message_struct*)p_struct)->rx_fi = 0U;
 129              		.loc 1 125 13
 130              		.loc 1 125 60 is_stmt 0
 131 0048 A3890500 		sb	zero,19(a1)
 126:../Firmware/GD32VF103_standard_peripheral/Source/gd32vf103_can.c ****             ((can_receive_message_struct*)p_struct)->rx_ft = (uint8_t)CAN_FT_DATA;
 132              		.loc 1 126 13 is_stmt 1
 127:../Firmware/GD32VF103_standard_peripheral/Source/gd32vf103_can.c ****             ((can_receive_message_struct*)p_struct)->rx_sfid = 0U;
 133              		.loc 1 127 13
 134              		.loc 1 127 62 is_stmt 0
 135 004c 23A00500 		sw	zero,0(a1)
 123:../Firmware/GD32VF103_standard_peripheral/Source/gd32vf103_can.c ****             ((can_receive_message_struct*)p_struct)->rx_ff = (uint8_t)CAN_FF_STANDARD;
 136              		.loc 1 123 62
 137 0050 23A20500 		sw	zero,4(a1)
 124:../Firmware/GD32VF103_standard_peripheral/Source/gd32vf103_can.c ****             ((can_receive_message_struct*)p_struct)->rx_fi = 0U;
 138              		.loc 1 124 60
 139 0054 23940500 		sh	zero,8(a1)
 122:../Firmware/GD32VF103_standard_peripheral/Source/gd32vf103_can.c ****             ((can_receive_message_struct*)p_struct)->rx_efid = 0U;
GAS LISTING /tmp/ccyQOTuX.s 			page 6


 140              		.loc 1 122 62
 141 0058 23850500 		sb	zero,10(a1)
 128:../Firmware/GD32VF103_standard_peripheral/Source/gd32vf103_can.c ****             
 129:../Firmware/GD32VF103_standard_peripheral/Source/gd32vf103_can.c ****             break;
 142              		.loc 1 129 13 is_stmt 1
 130:../Firmware/GD32VF103_standard_peripheral/Source/gd32vf103_can.c **** 
 131:../Firmware/GD32VF103_standard_peripheral/Source/gd32vf103_can.c ****         default:
 132:../Firmware/GD32VF103_standard_peripheral/Source/gd32vf103_can.c ****             CAN_ERROR_HANDLE("parameter is invalid \r\n");
 133:../Firmware/GD32VF103_standard_peripheral/Source/gd32vf103_can.c ****     }
 134:../Firmware/GD32VF103_standard_peripheral/Source/gd32vf103_can.c **** }
 143              		.loc 1 134 1 is_stmt 0
 144 005c 8280     		ret
 145              	.L16:
 146              	.L12:
 132:../Firmware/GD32VF103_standard_peripheral/Source/gd32vf103_can.c ****     }
 147              		.loc 1 132 13 is_stmt 1 discriminator 1
 132:../Firmware/GD32VF103_standard_peripheral/Source/gd32vf103_can.c ****     }
 148              		.loc 1 132 13 discriminator 1
 132:../Firmware/GD32VF103_standard_peripheral/Source/gd32vf103_can.c ****     }
 149              		.loc 1 132 13 discriminator 1
 132:../Firmware/GD32VF103_standard_peripheral/Source/gd32vf103_can.c ****     }
 150              		.loc 1 132 13 discriminator 1
 132:../Firmware/GD32VF103_standard_peripheral/Source/gd32vf103_can.c ****     }
 151              		.loc 1 132 13 discriminator 1
 132:../Firmware/GD32VF103_standard_peripheral/Source/gd32vf103_can.c ****     }
 152              		.loc 1 132 13 discriminator 1
 153 005e 01A0     		j	.L12
 154              	.L15:
  77:../Firmware/GD32VF103_standard_peripheral/Source/gd32vf103_can.c ****             ((can_parameter_struct*)p_struct)->no_auto_retrans = DISABLE;
 155              		.loc 1 77 13
  78:../Firmware/GD32VF103_standard_peripheral/Source/gd32vf103_can.c ****             ((can_parameter_struct*)p_struct)->auto_wake_up = DISABLE;
 156              		.loc 1 78 13
  79:../Firmware/GD32VF103_standard_peripheral/Source/gd32vf103_can.c ****             ((can_parameter_struct*)p_struct)->prescaler = 0x03FFU; 
 157              		.loc 1 79 13
  80:../Firmware/GD32VF103_standard_peripheral/Source/gd32vf103_can.c ****             ((can_parameter_struct*)p_struct)->rec_fifo_overwrite = DISABLE; 
 158              		.loc 1 80 13
  81:../Firmware/GD32VF103_standard_peripheral/Source/gd32vf103_can.c ****             ((can_parameter_struct*)p_struct)->resync_jump_width = CAN_BT_SJW_1TQ;
 159              		.loc 1 81 13
  82:../Firmware/GD32VF103_standard_peripheral/Source/gd32vf103_can.c ****             ((can_parameter_struct*)p_struct)->time_segment_1 = CAN_BT_BS1_3TQ;
 160              		.loc 1 82 13
  83:../Firmware/GD32VF103_standard_peripheral/Source/gd32vf103_can.c ****             ((can_parameter_struct*)p_struct)->time_segment_2 = CAN_BT_BS2_1TQ;
 161              		.loc 1 83 13
  84:../Firmware/GD32VF103_standard_peripheral/Source/gd32vf103_can.c ****             ((can_parameter_struct*)p_struct)->time_triggered = DISABLE;
 162              		.loc 1 84 13
  85:../Firmware/GD32VF103_standard_peripheral/Source/gd32vf103_can.c ****             ((can_parameter_struct*)p_struct)->trans_fifo_order = DISABLE;
 163              		.loc 1 85 13
  86:../Firmware/GD32VF103_standard_peripheral/Source/gd32vf103_can.c ****             ((can_parameter_struct*)p_struct)->working_mode = CAN_NORMAL_MODE;
 164              		.loc 1 86 13
  87:../Firmware/GD32VF103_standard_peripheral/Source/gd32vf103_can.c ****             
 165              		.loc 1 87 13
  87:../Firmware/GD32VF103_standard_peripheral/Source/gd32vf103_can.c ****             
 166              		.loc 1 87 61 is_stmt 0
 167 0060 B7070200 		li	a5,131072
 168 0064 9CC1     		sw	a5,0(a1)
  80:../Firmware/GD32VF103_standard_peripheral/Source/gd32vf103_can.c ****             ((can_parameter_struct*)p_struct)->rec_fifo_overwrite = DISABLE; 
 169              		.loc 1 80 58
 170 0066 9307F03F 		li	a5,1023
GAS LISTING /tmp/ccyQOTuX.s 			page 7


  85:../Firmware/GD32VF103_standard_peripheral/Source/gd32vf103_can.c ****             ((can_parameter_struct*)p_struct)->trans_fifo_order = DISABLE;
 171              		.loc 1 85 63
 172 006a 23A20500 		sw	zero,4(a1)
  77:../Firmware/GD32VF103_standard_peripheral/Source/gd32vf103_can.c ****             ((can_parameter_struct*)p_struct)->no_auto_retrans = DISABLE;
 173              		.loc 1 77 70
 174 006e 23A40500 		sw	zero,8(a1)
  79:../Firmware/GD32VF103_standard_peripheral/Source/gd32vf103_can.c ****             ((can_parameter_struct*)p_struct)->prescaler = 0x03FFU; 
 175              		.loc 1 79 61
 176 0072 23A60500 		sw	zero,12(a1)
  78:../Firmware/GD32VF103_standard_peripheral/Source/gd32vf103_can.c ****             ((can_parameter_struct*)p_struct)->auto_wake_up = DISABLE;
 177              		.loc 1 78 64
 178 0076 23A80500 		sw	zero,16(a1)
  81:../Firmware/GD32VF103_standard_peripheral/Source/gd32vf103_can.c ****             ((can_parameter_struct*)p_struct)->resync_jump_width = CAN_BT_SJW_1TQ;
 179              		.loc 1 81 67
 180 007a 23AA0500 		sw	zero,20(a1)
  86:../Firmware/GD32VF103_standard_peripheral/Source/gd32vf103_can.c ****             ((can_parameter_struct*)p_struct)->working_mode = CAN_NORMAL_MODE;
 181              		.loc 1 86 65
 182 007e 23AC0500 		sw	zero,24(a1)
  80:../Firmware/GD32VF103_standard_peripheral/Source/gd32vf103_can.c ****             ((can_parameter_struct*)p_struct)->rec_fifo_overwrite = DISABLE; 
 183              		.loc 1 80 58
 184 0082 239EF500 		sh	a5,28(a1)
  89:../Firmware/GD32VF103_standard_peripheral/Source/gd32vf103_can.c ****         /* used for can_filter_init() */
 185              		.loc 1 89 13 is_stmt 1
 186 0086 8280     		ret
 187              	.L7:
 106:../Firmware/GD32VF103_standard_peripheral/Source/gd32vf103_can.c ****             }
 188              		.loc 1 106 70 is_stmt 0
 189 0088 A3850500 		sb	zero,11(a1)
 190 008c 23860500 		sb	zero,12(a1)
 191 0090 A3860500 		sb	zero,13(a1)
 192 0094 23870500 		sb	zero,14(a1)
 193 0098 A3870500 		sb	zero,15(a1)
 194 009c 23880500 		sb	zero,16(a1)
 195 00a0 A3880500 		sb	zero,17(a1)
 196 00a4 23890500 		sb	zero,18(a1)
 109:../Firmware/GD32VF103_standard_peripheral/Source/gd32vf103_can.c ****             ((can_trasnmit_message_struct*)p_struct)->tx_efid = 0U;
 197              		.loc 1 109 13 is_stmt 1
 110:../Firmware/GD32VF103_standard_peripheral/Source/gd32vf103_can.c ****             ((can_trasnmit_message_struct*)p_struct)->tx_ff = (uint8_t)CAN_FF_STANDARD;
 198              		.loc 1 110 13
 111:../Firmware/GD32VF103_standard_peripheral/Source/gd32vf103_can.c ****             ((can_trasnmit_message_struct*)p_struct)->tx_ft = (uint8_t)CAN_FT_DATA;
 199              		.loc 1 111 13
 112:../Firmware/GD32VF103_standard_peripheral/Source/gd32vf103_can.c ****             ((can_trasnmit_message_struct*)p_struct)->tx_sfid = 0U;
 200              		.loc 1 112 13
 113:../Firmware/GD32VF103_standard_peripheral/Source/gd32vf103_can.c ****             
 201              		.loc 1 113 13
 113:../Firmware/GD32VF103_standard_peripheral/Source/gd32vf103_can.c ****             
 202              		.loc 1 113 63 is_stmt 0
 203 00a8 23A00500 		sw	zero,0(a1)
 110:../Firmware/GD32VF103_standard_peripheral/Source/gd32vf103_can.c ****             ((can_trasnmit_message_struct*)p_struct)->tx_ff = (uint8_t)CAN_FF_STANDARD;
 204              		.loc 1 110 63
 205 00ac 23A20500 		sw	zero,4(a1)
 111:../Firmware/GD32VF103_standard_peripheral/Source/gd32vf103_can.c ****             ((can_trasnmit_message_struct*)p_struct)->tx_ft = (uint8_t)CAN_FT_DATA;
 206              		.loc 1 111 61
 207 00b0 23940500 		sh	zero,8(a1)
 109:../Firmware/GD32VF103_standard_peripheral/Source/gd32vf103_can.c ****             ((can_trasnmit_message_struct*)p_struct)->tx_efid = 0U;
 208              		.loc 1 109 63
 209 00b4 23850500 		sb	zero,10(a1)
GAS LISTING /tmp/ccyQOTuX.s 			page 8


 115:../Firmware/GD32VF103_standard_peripheral/Source/gd32vf103_can.c ****         /* used for can_message_receive() */
 210              		.loc 1 115 13 is_stmt 1
 211 00b8 8280     		ret
 212              		.cfi_endproc
 213              	.LFE3:
 215              		.section	.text.can_init,"ax",@progbits
 216              		.align	1
 217              		.globl	can_init
 219              	can_init:
 220              	.LFB4:
 135:../Firmware/GD32VF103_standard_peripheral/Source/gd32vf103_can.c **** 
 136:../Firmware/GD32VF103_standard_peripheral/Source/gd32vf103_can.c **** /*!
 137:../Firmware/GD32VF103_standard_peripheral/Source/gd32vf103_can.c ****     \brief      initialize CAN
 138:../Firmware/GD32VF103_standard_peripheral/Source/gd32vf103_can.c ****     \param[in]  can_periph
 139:../Firmware/GD32VF103_standard_peripheral/Source/gd32vf103_can.c ****       \arg        CANx(x=0,1)
 140:../Firmware/GD32VF103_standard_peripheral/Source/gd32vf103_can.c ****     \param[in]  can_parameter_init: parameters for CAN initializtion
 141:../Firmware/GD32VF103_standard_peripheral/Source/gd32vf103_can.c ****       \arg        working_mode: CAN_NORMAL_MODE, CAN_LOOPBACK_MODE, CAN_SILENT_MODE, CAN_SILENT_LOO
 142:../Firmware/GD32VF103_standard_peripheral/Source/gd32vf103_can.c ****       \arg        resync_jump_width: CAN_BT_SJW_xTQ(x=1, 2, 3, 4)
 143:../Firmware/GD32VF103_standard_peripheral/Source/gd32vf103_can.c ****       \arg        time_segment_1: CAN_BT_BS1_xTQ(1..16)
 144:../Firmware/GD32VF103_standard_peripheral/Source/gd32vf103_can.c ****       \arg        time_segment_2: CAN_BT_BS2_xTQ(1..8)
 145:../Firmware/GD32VF103_standard_peripheral/Source/gd32vf103_can.c ****       \arg        time_triggered: ENABLE or DISABLE
 146:../Firmware/GD32VF103_standard_peripheral/Source/gd32vf103_can.c ****       \arg        auto_bus_off_recovery: ENABLE or DISABLE
 147:../Firmware/GD32VF103_standard_peripheral/Source/gd32vf103_can.c ****       \arg        auto_wake_up: ENABLE or DISABLE
 148:../Firmware/GD32VF103_standard_peripheral/Source/gd32vf103_can.c ****       \arg        no_auto_retrans: ENABLE or DISABLE
 149:../Firmware/GD32VF103_standard_peripheral/Source/gd32vf103_can.c ****       \arg        rec_fifo_overwrite: ENABLE or DISABLE
 150:../Firmware/GD32VF103_standard_peripheral/Source/gd32vf103_can.c ****       \arg        trans_fifo_order: ENABLE or DISABLE
 151:../Firmware/GD32VF103_standard_peripheral/Source/gd32vf103_can.c ****       \arg        prescaler: 0x0000 - 0x03FF
 152:../Firmware/GD32VF103_standard_peripheral/Source/gd32vf103_can.c ****     \param[out] none
 153:../Firmware/GD32VF103_standard_peripheral/Source/gd32vf103_can.c ****     \retval     ErrStatus: SUCCESS or ERROR
 154:../Firmware/GD32VF103_standard_peripheral/Source/gd32vf103_can.c **** */
 155:../Firmware/GD32VF103_standard_peripheral/Source/gd32vf103_can.c **** ErrStatus can_init(uint32_t can_periph, can_parameter_struct* can_parameter_init)
 156:../Firmware/GD32VF103_standard_peripheral/Source/gd32vf103_can.c **** {
 221              		.loc 1 156 1
 222              		.cfi_startproc
 223              	.LVL8:
 157:../Firmware/GD32VF103_standard_peripheral/Source/gd32vf103_can.c ****     uint32_t timeout = CAN_TIMEOUT;
 224              		.loc 1 157 5
 158:../Firmware/GD32VF103_standard_peripheral/Source/gd32vf103_can.c ****     ErrStatus flag = ERROR;
 225              		.loc 1 158 5
 159:../Firmware/GD32VF103_standard_peripheral/Source/gd32vf103_can.c ****     
 160:../Firmware/GD32VF103_standard_peripheral/Source/gd32vf103_can.c ****     /* disable sleep mode */
 161:../Firmware/GD32VF103_standard_peripheral/Source/gd32vf103_can.c ****     CAN_CTL(can_periph) &= ~CAN_CTL_SLPWMOD;
 226              		.loc 1 161 5
 227              		.loc 1 161 25 is_stmt 0
 228 0000 1C41     		lw	a5,0(a0)
 156:../Firmware/GD32VF103_standard_peripheral/Source/gd32vf103_can.c ****     uint32_t timeout = CAN_TIMEOUT;
 229              		.loc 1 156 1
 230 0002 AA86     		mv	a3,a0
 162:../Firmware/GD32VF103_standard_peripheral/Source/gd32vf103_can.c ****     /* enable initialize mode */
 163:../Firmware/GD32VF103_standard_peripheral/Source/gd32vf103_can.c ****     CAN_CTL(can_periph) |= CAN_CTL_IWMOD;
 164:../Firmware/GD32VF103_standard_peripheral/Source/gd32vf103_can.c ****     /* wait ACK */
 165:../Firmware/GD32VF103_standard_peripheral/Source/gd32vf103_can.c ****     while((CAN_STAT_IWS != (CAN_STAT(can_periph) & CAN_STAT_IWS)) && (0U != timeout)){
 231              		.loc 1 165 29
 232 0004 13064500 		addi	a2,a0,4
 161:../Firmware/GD32VF103_standard_peripheral/Source/gd32vf103_can.c ****     /* enable initialize mode */
 233              		.loc 1 161 25
 234 0008 F59B     		andi	a5,a5,-3
GAS LISTING /tmp/ccyQOTuX.s 			page 9


 235 000a 1CC1     		sw	a5,0(a0)
 163:../Firmware/GD32VF103_standard_peripheral/Source/gd32vf103_can.c ****     /* wait ACK */
 236              		.loc 1 163 5 is_stmt 1
 163:../Firmware/GD32VF103_standard_peripheral/Source/gd32vf103_can.c ****     /* wait ACK */
 237              		.loc 1 163 25 is_stmt 0
 238 000c 1C41     		lw	a5,0(a0)
 239 000e 93E71700 		ori	a5,a5,1
 240 0012 1CC1     		sw	a5,0(a0)
 241              		.loc 1 165 5 is_stmt 1
 242              		.loc 1 165 10
 243              		.loc 1 165 29 is_stmt 0
 244 0014 5C41     		lw	a5,4(a0)
 245              		.loc 1 165 50
 246 0016 858B     		andi	a5,a5,1
 247              		.loc 1 165 10
 248 0018 89EB     		bne	a5,zero,.L18
 249 001a 4167     		li	a4,65536
 250 001c 7D17     		addi	a4,a4,-1
 251 001e 11A0     		j	.L19
 252              	.LVL9:
 253              	.L43:
 254              		.loc 1 165 67 discriminator 1
 255 0020 09C7     		beq	a4,zero,.L18
 256              	.LVL10:
 257              	.L19:
 166:../Firmware/GD32VF103_standard_peripheral/Source/gd32vf103_can.c ****         timeout--;
 258              		.loc 1 166 9 is_stmt 1
 165:../Firmware/GD32VF103_standard_peripheral/Source/gd32vf103_can.c ****         timeout--;
 259              		.loc 1 165 10
 165:../Firmware/GD32VF103_standard_peripheral/Source/gd32vf103_can.c ****         timeout--;
 260              		.loc 1 165 29 is_stmt 0
 261 0022 1C42     		lw	a5,0(a2)
 165:../Firmware/GD32VF103_standard_peripheral/Source/gd32vf103_can.c ****         timeout--;
 262              		.loc 1 165 67
 263 0024 7D17     		addi	a4,a4,-1
 264              	.LVL11:
 165:../Firmware/GD32VF103_standard_peripheral/Source/gd32vf103_can.c ****         timeout--;
 265              		.loc 1 165 50
 266 0026 858B     		andi	a5,a5,1
 165:../Firmware/GD32VF103_standard_peripheral/Source/gd32vf103_can.c ****         timeout--;
 267              		.loc 1 165 10
 268 0028 E5DF     		beq	a5,zero,.L43
 269              	.LVL12:
 270              	.L18:
 167:../Firmware/GD32VF103_standard_peripheral/Source/gd32vf103_can.c ****     }
 168:../Firmware/GD32VF103_standard_peripheral/Source/gd32vf103_can.c ****     /* check initialize working success */
 169:../Firmware/GD32VF103_standard_peripheral/Source/gd32vf103_can.c ****     if(CAN_STAT_IWS != (CAN_STAT(can_periph) & CAN_STAT_IWS)){
 271              		.loc 1 169 5 is_stmt 1
 272              		.loc 1 169 25 is_stmt 0
 273 002a C842     		lw	a0,4(a3)
 274              	.LVL13:
 275              		.loc 1 169 46
 276 002c 0589     		andi	a0,a0,1
 277              		.loc 1 169 7
 278 002e 71C5     		beq	a0,zero,.L37
 170:../Firmware/GD32VF103_standard_peripheral/Source/gd32vf103_can.c ****         flag = ERROR;
 171:../Firmware/GD32VF103_standard_peripheral/Source/gd32vf103_can.c ****     }else{
GAS LISTING /tmp/ccyQOTuX.s 			page 10


 172:../Firmware/GD32VF103_standard_peripheral/Source/gd32vf103_can.c ****         /* set the bit timing register */
 173:../Firmware/GD32VF103_standard_peripheral/Source/gd32vf103_can.c ****         CAN_BT(can_periph) = (BT_MODE((uint32_t)can_parameter_init->working_mode) | \
 279              		.loc 1 173 9 is_stmt 1
 174:../Firmware/GD32VF103_standard_peripheral/Source/gd32vf103_can.c ****                               BT_SJW((uint32_t)can_parameter_init->resync_jump_width) | \
 280              		.loc 1 174 31 is_stmt 0
 281 0030 83C71500 		lbu	a5,1(a1)
 175:../Firmware/GD32VF103_standard_peripheral/Source/gd32vf103_can.c ****                               BT_BS1((uint32_t)can_parameter_init->time_segment_1) | \
 282              		.loc 1 175 31
 283 0034 83C82500 		lbu	a7,2(a1)
 173:../Firmware/GD32VF103_standard_peripheral/Source/gd32vf103_can.c ****                               BT_SJW((uint32_t)can_parameter_init->resync_jump_width) | \
 284              		.loc 1 173 31
 285 0038 03C30500 		lbu	t1,0(a1)
 174:../Firmware/GD32VF103_standard_peripheral/Source/gd32vf103_can.c ****                               BT_SJW((uint32_t)can_parameter_init->resync_jump_width) | \
 286              		.loc 1 174 31
 287 003c 370E0003 		li	t3,50331648
 288 0040 E207     		slli	a5,a5,24
 176:../Firmware/GD32VF103_standard_peripheral/Source/gd32vf103_can.c ****                               BT_BS2((uint32_t)can_parameter_init->time_segment_2) | \
 289              		.loc 1 176 31
 290 0042 03C83500 		lbu	a6,3(a1)
 174:../Firmware/GD32VF103_standard_peripheral/Source/gd32vf103_can.c ****                               BT_BS1((uint32_t)can_parameter_init->time_segment_1) | \
 291              		.loc 1 174 31
 292 0046 B3F7C701 		and	a5,a5,t3
 175:../Firmware/GD32VF103_standard_peripheral/Source/gd32vf103_can.c ****                               BT_BS2((uint32_t)can_parameter_init->time_segment_2) | \
 293              		.loc 1 175 31
 294 004a C208     		slli	a7,a7,16
 295 004c 370E0F00 		li	t3,983040
 177:../Firmware/GD32VF103_standard_peripheral/Source/gd32vf103_can.c ****                               BT_BAUDPSC(((uint32_t)(can_parameter_init->prescaler) - 1U)));
 296              		.loc 1 177 31
 297 0050 03D7C501 		lhu	a4,28(a1)
 175:../Firmware/GD32VF103_standard_peripheral/Source/gd32vf103_can.c ****                               BT_BS2((uint32_t)can_parameter_init->time_segment_2) | \
 298              		.loc 1 175 31
 299 0054 B3F8C801 		and	a7,a7,t3
 174:../Firmware/GD32VF103_standard_peripheral/Source/gd32vf103_can.c ****                               BT_BS1((uint32_t)can_parameter_init->time_segment_1) | \
 300              		.loc 1 174 87
 301 0058 B3E71701 		or	a5,a5,a7
 173:../Firmware/GD32VF103_standard_peripheral/Source/gd32vf103_can.c ****                               BT_SJW((uint32_t)can_parameter_init->resync_jump_width) | \
 302              		.loc 1 173 31
 303 005c 9318E301 		slli	a7,t1,30
 174:../Firmware/GD32VF103_standard_peripheral/Source/gd32vf103_can.c ****                               BT_BS1((uint32_t)can_parameter_init->time_segment_1) | \
 304              		.loc 1 174 87
 305 0060 B3E71701 		or	a5,a5,a7
 176:../Firmware/GD32VF103_standard_peripheral/Source/gd32vf103_can.c ****                               BT_BAUDPSC(((uint32_t)(can_parameter_init->prescaler) - 1U)));
 306              		.loc 1 176 31
 307 0064 5208     		slli	a6,a6,20
 308 0066 B7087000 		li	a7,7340032
 309 006a 33781801 		and	a6,a6,a7
 310              		.loc 1 177 31
 311 006e 7D17     		addi	a4,a4,-1
 175:../Firmware/GD32VF103_standard_peripheral/Source/gd32vf103_can.c ****                               BT_BS2((uint32_t)can_parameter_init->time_segment_2) | \
 312              		.loc 1 175 84
 313 0070 B3E70701 		or	a5,a5,a6
 314              		.loc 1 177 31
 315 0074 1377F73F 		andi	a4,a4,1023
 178:../Firmware/GD32VF103_standard_peripheral/Source/gd32vf103_can.c **** 
 179:../Firmware/GD32VF103_standard_peripheral/Source/gd32vf103_can.c ****         /* time trigger communication mode */
 180:../Firmware/GD32VF103_standard_peripheral/Source/gd32vf103_can.c ****         if(ENABLE == can_parameter_init->time_triggered){
 316              		.loc 1 180 11
GAS LISTING /tmp/ccyQOTuX.s 			page 11


 317 0078 03A84500 		lw	a6,4(a1)
 176:../Firmware/GD32VF103_standard_peripheral/Source/gd32vf103_can.c ****                               BT_BAUDPSC(((uint32_t)(can_parameter_init->prescaler) - 1U)));
 318              		.loc 1 176 84
 319 007c D98F     		or	a5,a5,a4
 173:../Firmware/GD32VF103_standard_peripheral/Source/gd32vf103_can.c ****                               BT_SJW((uint32_t)can_parameter_init->resync_jump_width) | \
 320              		.loc 1 173 28
 321 007e DCCE     		sw	a5,28(a3)
 322              		.loc 1 180 9 is_stmt 1
 323              		.loc 1 180 11 is_stmt 0
 324 0080 8547     		li	a5,1
 325 0082 6306F80A 		beq	a6,a5,.L44
 181:../Firmware/GD32VF103_standard_peripheral/Source/gd32vf103_can.c ****             CAN_CTL(can_periph) |= CAN_CTL_TTC;
 182:../Firmware/GD32VF103_standard_peripheral/Source/gd32vf103_can.c ****         }else{
 183:../Firmware/GD32VF103_standard_peripheral/Source/gd32vf103_can.c ****             CAN_CTL(can_periph) &= ~CAN_CTL_TTC;
 326              		.loc 1 183 13 is_stmt 1
 327              		.loc 1 183 33 is_stmt 0
 328 0086 9C42     		lw	a5,0(a3)
 184:../Firmware/GD32VF103_standard_peripheral/Source/gd32vf103_can.c ****         }
 185:../Firmware/GD32VF103_standard_peripheral/Source/gd32vf103_can.c ****         /* automatic bus-off managment */
 186:../Firmware/GD32VF103_standard_peripheral/Source/gd32vf103_can.c ****         if(ENABLE == can_parameter_init->auto_bus_off_recovery){
 329              		.loc 1 186 11
 330 0088 9845     		lw	a4,8(a1)
 183:../Firmware/GD32VF103_standard_peripheral/Source/gd32vf103_can.c ****         }
 331              		.loc 1 183 33
 332 008a 93F7F7F7 		andi	a5,a5,-129
 333 008e 9CC2     		sw	a5,0(a3)
 334              		.loc 1 186 9 is_stmt 1
 335              		.loc 1 186 11 is_stmt 0
 336 0090 8547     		li	a5,1
 337 0092 6306F70A 		beq	a4,a5,.L45
 338              	.L24:
 187:../Firmware/GD32VF103_standard_peripheral/Source/gd32vf103_can.c ****             CAN_CTL(can_periph) |= CAN_CTL_ABOR;
 188:../Firmware/GD32VF103_standard_peripheral/Source/gd32vf103_can.c ****         }else{
 189:../Firmware/GD32VF103_standard_peripheral/Source/gd32vf103_can.c ****             CAN_CTL(can_periph) &= ~CAN_CTL_ABOR;
 339              		.loc 1 189 13 is_stmt 1
 340              		.loc 1 189 33 is_stmt 0
 341 0096 9C42     		lw	a5,0(a3)
 190:../Firmware/GD32VF103_standard_peripheral/Source/gd32vf103_can.c ****         }
 191:../Firmware/GD32VF103_standard_peripheral/Source/gd32vf103_can.c ****         /* automatic wakeup mode */
 192:../Firmware/GD32VF103_standard_peripheral/Source/gd32vf103_can.c ****         if(ENABLE == can_parameter_init->auto_wake_up){
 342              		.loc 1 192 11
 343 0098 D845     		lw	a4,12(a1)
 189:../Firmware/GD32VF103_standard_peripheral/Source/gd32vf103_can.c ****         }
 344              		.loc 1 189 33
 345 009a 93F7F7FB 		andi	a5,a5,-65
 346 009e 9CC2     		sw	a5,0(a3)
 347              		.loc 1 192 9 is_stmt 1
 348              		.loc 1 192 11 is_stmt 0
 349 00a0 8547     		li	a5,1
 350 00a2 6306F70A 		beq	a4,a5,.L46
 351              	.L26:
 193:../Firmware/GD32VF103_standard_peripheral/Source/gd32vf103_can.c ****             CAN_CTL(can_periph) |= CAN_CTL_AWU;
 194:../Firmware/GD32VF103_standard_peripheral/Source/gd32vf103_can.c ****         }else{
 195:../Firmware/GD32VF103_standard_peripheral/Source/gd32vf103_can.c ****             CAN_CTL(can_periph) &= ~CAN_CTL_AWU;
 352              		.loc 1 195 13 is_stmt 1
 353              		.loc 1 195 33 is_stmt 0
 354 00a6 9C42     		lw	a5,0(a3)
GAS LISTING /tmp/ccyQOTuX.s 			page 12


 196:../Firmware/GD32VF103_standard_peripheral/Source/gd32vf103_can.c ****         }
 197:../Firmware/GD32VF103_standard_peripheral/Source/gd32vf103_can.c ****         /* automatic retransmission mode disable*/
 198:../Firmware/GD32VF103_standard_peripheral/Source/gd32vf103_can.c ****         if(ENABLE == can_parameter_init->no_auto_retrans){
 355              		.loc 1 198 11
 356 00a8 9849     		lw	a4,16(a1)
 195:../Firmware/GD32VF103_standard_peripheral/Source/gd32vf103_can.c ****         }
 357              		.loc 1 195 33
 358 00aa 93F7F7FD 		andi	a5,a5,-33
 359 00ae 9CC2     		sw	a5,0(a3)
 360              		.loc 1 198 9 is_stmt 1
 361              		.loc 1 198 11 is_stmt 0
 362 00b0 8547     		li	a5,1
 363 00b2 6306F70A 		beq	a4,a5,.L47
 364              	.L28:
 199:../Firmware/GD32VF103_standard_peripheral/Source/gd32vf103_can.c ****             CAN_CTL(can_periph) |= CAN_CTL_ARD;
 200:../Firmware/GD32VF103_standard_peripheral/Source/gd32vf103_can.c ****         }else{
 201:../Firmware/GD32VF103_standard_peripheral/Source/gd32vf103_can.c ****             CAN_CTL(can_periph) &= ~CAN_CTL_ARD;
 365              		.loc 1 201 13 is_stmt 1
 366              		.loc 1 201 33 is_stmt 0
 367 00b6 9C42     		lw	a5,0(a3)
 202:../Firmware/GD32VF103_standard_peripheral/Source/gd32vf103_can.c ****         }
 203:../Firmware/GD32VF103_standard_peripheral/Source/gd32vf103_can.c ****         /* receive fifo overwrite mode */        
 204:../Firmware/GD32VF103_standard_peripheral/Source/gd32vf103_can.c ****         if(ENABLE == can_parameter_init->rec_fifo_overwrite){
 368              		.loc 1 204 11
 369 00b8 D849     		lw	a4,20(a1)
 201:../Firmware/GD32VF103_standard_peripheral/Source/gd32vf103_can.c ****         }
 370              		.loc 1 201 33
 371 00ba BD9B     		andi	a5,a5,-17
 372 00bc 9CC2     		sw	a5,0(a3)
 373              		.loc 1 204 9 is_stmt 1
 374              		.loc 1 204 11 is_stmt 0
 375 00be 8547     		li	a5,1
 376 00c0 6307F70A 		beq	a4,a5,.L48
 377              	.L30:
 205:../Firmware/GD32VF103_standard_peripheral/Source/gd32vf103_can.c ****             CAN_CTL(can_periph) |= CAN_CTL_RFOD;
 206:../Firmware/GD32VF103_standard_peripheral/Source/gd32vf103_can.c ****         }else{
 207:../Firmware/GD32VF103_standard_peripheral/Source/gd32vf103_can.c ****             CAN_CTL(can_periph) &= ~CAN_CTL_RFOD;
 378              		.loc 1 207 13 is_stmt 1
 379              		.loc 1 207 33 is_stmt 0
 380 00c4 9C42     		lw	a5,0(a3)
 208:../Firmware/GD32VF103_standard_peripheral/Source/gd32vf103_can.c ****         } 
 209:../Firmware/GD32VF103_standard_peripheral/Source/gd32vf103_can.c ****         /* transmit fifo order */
 210:../Firmware/GD32VF103_standard_peripheral/Source/gd32vf103_can.c ****         if(ENABLE == can_parameter_init->trans_fifo_order){
 381              		.loc 1 210 11
 382 00c6 984D     		lw	a4,24(a1)
 207:../Firmware/GD32VF103_standard_peripheral/Source/gd32vf103_can.c ****         } 
 383              		.loc 1 207 33
 384 00c8 DD9B     		andi	a5,a5,-9
 385 00ca 9CC2     		sw	a5,0(a3)
 386              		.loc 1 210 9 is_stmt 1
 387              		.loc 1 210 11 is_stmt 0
 388 00cc 8547     		li	a5,1
 389 00ce 6308F70A 		beq	a4,a5,.L49
 390              	.L32:
 211:../Firmware/GD32VF103_standard_peripheral/Source/gd32vf103_can.c ****             CAN_CTL(can_periph) |= CAN_CTL_TFO;
 212:../Firmware/GD32VF103_standard_peripheral/Source/gd32vf103_can.c ****         }else{
 213:../Firmware/GD32VF103_standard_peripheral/Source/gd32vf103_can.c ****             CAN_CTL(can_periph) &= ~CAN_CTL_TFO;
GAS LISTING /tmp/ccyQOTuX.s 			page 13


 391              		.loc 1 213 13 is_stmt 1
 392              		.loc 1 213 33 is_stmt 0
 393 00d2 9C42     		lw	a5,0(a3)
 394 00d4 ED9B     		andi	a5,a5,-5
 395 00d6 9CC2     		sw	a5,0(a3)
 396              	.L33:
 214:../Firmware/GD32VF103_standard_peripheral/Source/gd32vf103_can.c ****         }  
 215:../Firmware/GD32VF103_standard_peripheral/Source/gd32vf103_can.c ****         /* disable initialize mode */
 216:../Firmware/GD32VF103_standard_peripheral/Source/gd32vf103_can.c ****         CAN_CTL(can_periph) &= ~CAN_CTL_IWMOD;
 397              		.loc 1 216 9 is_stmt 1
 398              		.loc 1 216 29 is_stmt 0
 399 00d8 9C42     		lw	a5,0(a3)
 400 00da F99B     		andi	a5,a5,-2
 401 00dc 9CC2     		sw	a5,0(a3)
 217:../Firmware/GD32VF103_standard_peripheral/Source/gd32vf103_can.c ****         timeout = CAN_TIMEOUT;
 402              		.loc 1 217 9 is_stmt 1
 403              	.LVL14:
 218:../Firmware/GD32VF103_standard_peripheral/Source/gd32vf103_can.c ****         /* wait the ACK */
 219:../Firmware/GD32VF103_standard_peripheral/Source/gd32vf103_can.c ****         while((CAN_STAT_IWS == (CAN_STAT(can_periph) & CAN_STAT_IWS)) && (0U != timeout)){
 404              		.loc 1 219 9
 405              		.loc 1 219 14
 406              		.loc 1 219 33 is_stmt 0
 407 00de DC42     		lw	a5,4(a3)
 408              		.loc 1 219 54
 409 00e0 858B     		andi	a5,a5,1
 410              		.loc 1 219 14
 411 00e2 89CF     		beq	a5,zero,.L21
 217:../Firmware/GD32VF103_standard_peripheral/Source/gd32vf103_can.c ****         timeout = CAN_TIMEOUT;
 412              		.loc 1 217 17
 413 00e4 4165     		li	a0,65536
 414 00e6 7D15     		addi	a0,a0,-1
 415 00e8 11A0     		j	.L36
 416              	.LVL15:
 417              	.L35:
 418              		.loc 1 219 71 discriminator 1
 419 00ea 01C9     		beq	a0,zero,.L37
 420              	.LVL16:
 421              	.L36:
 220:../Firmware/GD32VF103_standard_peripheral/Source/gd32vf103_can.c ****             timeout--;
 422              		.loc 1 220 13 is_stmt 1
 219:../Firmware/GD32VF103_standard_peripheral/Source/gd32vf103_can.c ****             timeout--;
 423              		.loc 1 219 33 is_stmt 0
 424 00ec 1C42     		lw	a5,0(a2)
 425              		.loc 1 220 20
 426 00ee 7D15     		addi	a0,a0,-1
 427              	.LVL17:
 219:../Firmware/GD32VF103_standard_peripheral/Source/gd32vf103_can.c ****             timeout--;
 428              		.loc 1 219 14 is_stmt 1
 219:../Firmware/GD32VF103_standard_peripheral/Source/gd32vf103_can.c ****             timeout--;
 429              		.loc 1 219 54 is_stmt 0
 430 00f0 858B     		andi	a5,a5,1
 219:../Firmware/GD32VF103_standard_peripheral/Source/gd32vf103_can.c ****             timeout--;
 431              		.loc 1 219 14
 432 00f2 E5FF     		bne	a5,zero,.L35
 221:../Firmware/GD32VF103_standard_peripheral/Source/gd32vf103_can.c ****         }
 222:../Firmware/GD32VF103_standard_peripheral/Source/gd32vf103_can.c ****         /* check exit initialize mode */
 223:../Firmware/GD32VF103_standard_peripheral/Source/gd32vf103_can.c ****         if(0U != timeout){
GAS LISTING /tmp/ccyQOTuX.s 			page 14


 433              		.loc 1 223 11
 434 00f4 3335A000 		snez	a0,a0
 435              	.LVL18:
 436 00f8 11A0     		j	.L21
 437              	.L37:
 170:../Firmware/GD32VF103_standard_peripheral/Source/gd32vf103_can.c ****     }else{
 438              		.loc 1 170 14
 439 00fa 0145     		li	a0,0
 440              	.L21:
 441              	.LVL19:
 224:../Firmware/GD32VF103_standard_peripheral/Source/gd32vf103_can.c ****             flag = SUCCESS;
 225:../Firmware/GD32VF103_standard_peripheral/Source/gd32vf103_can.c ****         }
 226:../Firmware/GD32VF103_standard_peripheral/Source/gd32vf103_can.c ****     }
 227:../Firmware/GD32VF103_standard_peripheral/Source/gd32vf103_can.c ****     CAN_TMI0(can_periph) = 0x0;
 442              		.loc 1 227 5 is_stmt 1
 443              		.loc 1 227 26 is_stmt 0
 444 00fc 23A00618 		sw	zero,384(a3)
 228:../Firmware/GD32VF103_standard_peripheral/Source/gd32vf103_can.c ****     CAN_TMI1(can_periph) = 0x0;
 445              		.loc 1 228 5 is_stmt 1
 446              		.loc 1 228 26 is_stmt 0
 447 0100 23A80618 		sw	zero,400(a3)
 229:../Firmware/GD32VF103_standard_peripheral/Source/gd32vf103_can.c ****     CAN_TMI2(can_periph) = 0x0;
 448              		.loc 1 229 5 is_stmt 1
 449              		.loc 1 229 26 is_stmt 0
 450 0104 23A0061A 		sw	zero,416(a3)
 230:../Firmware/GD32VF103_standard_peripheral/Source/gd32vf103_can.c ****     CAN_TMP0(can_periph) = 0x0;
 451              		.loc 1 230 5 is_stmt 1
 452              		.loc 1 230 26 is_stmt 0
 453 0108 23A20618 		sw	zero,388(a3)
 231:../Firmware/GD32VF103_standard_peripheral/Source/gd32vf103_can.c ****     CAN_TMP1(can_periph) = 0x0;
 454              		.loc 1 231 5 is_stmt 1
 455              		.loc 1 231 26 is_stmt 0
 456 010c 23AA0618 		sw	zero,404(a3)
 232:../Firmware/GD32VF103_standard_peripheral/Source/gd32vf103_can.c ****     CAN_TMP2(can_periph) = 0x0;
 457              		.loc 1 232 5 is_stmt 1
 458              		.loc 1 232 26 is_stmt 0
 459 0110 23A2061A 		sw	zero,420(a3)
 233:../Firmware/GD32VF103_standard_peripheral/Source/gd32vf103_can.c ****     CAN_TMDATA00(can_periph) = 0x0;
 460              		.loc 1 233 5 is_stmt 1
 461              		.loc 1 233 30 is_stmt 0
 462 0114 23A40618 		sw	zero,392(a3)
 234:../Firmware/GD32VF103_standard_peripheral/Source/gd32vf103_can.c ****     CAN_TMDATA01(can_periph) = 0x0;
 463              		.loc 1 234 5 is_stmt 1
 464              		.loc 1 234 30 is_stmt 0
 465 0118 23AC0618 		sw	zero,408(a3)
 235:../Firmware/GD32VF103_standard_peripheral/Source/gd32vf103_can.c ****     CAN_TMDATA02(can_periph) = 0x0;
 466              		.loc 1 235 5 is_stmt 1
 467              		.loc 1 235 30 is_stmt 0
 468 011c 23A4061A 		sw	zero,424(a3)
 236:../Firmware/GD32VF103_standard_peripheral/Source/gd32vf103_can.c ****     CAN_TMDATA10(can_periph) = 0x0;
 469              		.loc 1 236 5 is_stmt 1
 470              		.loc 1 236 30 is_stmt 0
 471 0120 23A60618 		sw	zero,396(a3)
 237:../Firmware/GD32VF103_standard_peripheral/Source/gd32vf103_can.c ****     CAN_TMDATA11(can_periph) = 0x0;
 472              		.loc 1 237 5 is_stmt 1
 473              		.loc 1 237 30 is_stmt 0
 474 0124 23AE0618 		sw	zero,412(a3)
GAS LISTING /tmp/ccyQOTuX.s 			page 15


 238:../Firmware/GD32VF103_standard_peripheral/Source/gd32vf103_can.c ****     CAN_TMDATA12(can_periph) = 0x0;
 475              		.loc 1 238 5 is_stmt 1
 476              		.loc 1 238 30 is_stmt 0
 477 0128 23A6061A 		sw	zero,428(a3)
 239:../Firmware/GD32VF103_standard_peripheral/Source/gd32vf103_can.c **** 
 240:../Firmware/GD32VF103_standard_peripheral/Source/gd32vf103_can.c ****     return flag;
 478              		.loc 1 240 5 is_stmt 1
 241:../Firmware/GD32VF103_standard_peripheral/Source/gd32vf103_can.c **** }
 479              		.loc 1 241 1 is_stmt 0
 480 012c 8280     		ret
 481              	.LVL20:
 482              	.L44:
 181:../Firmware/GD32VF103_standard_peripheral/Source/gd32vf103_can.c ****         }else{
 483              		.loc 1 181 13 is_stmt 1
 181:../Firmware/GD32VF103_standard_peripheral/Source/gd32vf103_can.c ****         }else{
 484              		.loc 1 181 33 is_stmt 0
 485 012e 9C42     		lw	a5,0(a3)
 186:../Firmware/GD32VF103_standard_peripheral/Source/gd32vf103_can.c ****             CAN_CTL(can_periph) |= CAN_CTL_ABOR;
 486              		.loc 1 186 11
 487 0130 9845     		lw	a4,8(a1)
 181:../Firmware/GD32VF103_standard_peripheral/Source/gd32vf103_can.c ****         }else{
 488              		.loc 1 181 33
 489 0132 93E70708 		ori	a5,a5,128
 490 0136 9CC2     		sw	a5,0(a3)
 186:../Firmware/GD32VF103_standard_peripheral/Source/gd32vf103_can.c ****             CAN_CTL(can_periph) |= CAN_CTL_ABOR;
 491              		.loc 1 186 9 is_stmt 1
 186:../Firmware/GD32VF103_standard_peripheral/Source/gd32vf103_can.c ****             CAN_CTL(can_periph) |= CAN_CTL_ABOR;
 492              		.loc 1 186 11 is_stmt 0
 493 0138 8547     		li	a5,1
 494 013a E31EF7F4 		bne	a4,a5,.L24
 495              	.L45:
 187:../Firmware/GD32VF103_standard_peripheral/Source/gd32vf103_can.c ****         }else{
 496              		.loc 1 187 13 is_stmt 1
 187:../Firmware/GD32VF103_standard_peripheral/Source/gd32vf103_can.c ****         }else{
 497              		.loc 1 187 33 is_stmt 0
 498 013e 9C42     		lw	a5,0(a3)
 192:../Firmware/GD32VF103_standard_peripheral/Source/gd32vf103_can.c ****             CAN_CTL(can_periph) |= CAN_CTL_AWU;
 499              		.loc 1 192 11
 500 0140 D845     		lw	a4,12(a1)
 187:../Firmware/GD32VF103_standard_peripheral/Source/gd32vf103_can.c ****         }else{
 501              		.loc 1 187 33
 502 0142 93E70704 		ori	a5,a5,64
 503 0146 9CC2     		sw	a5,0(a3)
 192:../Firmware/GD32VF103_standard_peripheral/Source/gd32vf103_can.c ****             CAN_CTL(can_periph) |= CAN_CTL_AWU;
 504              		.loc 1 192 9 is_stmt 1
 192:../Firmware/GD32VF103_standard_peripheral/Source/gd32vf103_can.c ****             CAN_CTL(can_periph) |= CAN_CTL_AWU;
 505              		.loc 1 192 11 is_stmt 0
 506 0148 8547     		li	a5,1
 507 014a E31EF7F4 		bne	a4,a5,.L26
 508              	.L46:
 193:../Firmware/GD32VF103_standard_peripheral/Source/gd32vf103_can.c ****         }else{
 509              		.loc 1 193 13 is_stmt 1
 193:../Firmware/GD32VF103_standard_peripheral/Source/gd32vf103_can.c ****         }else{
 510              		.loc 1 193 33 is_stmt 0
 511 014e 9C42     		lw	a5,0(a3)
 198:../Firmware/GD32VF103_standard_peripheral/Source/gd32vf103_can.c ****             CAN_CTL(can_periph) |= CAN_CTL_ARD;
 512              		.loc 1 198 11
GAS LISTING /tmp/ccyQOTuX.s 			page 16


 513 0150 9849     		lw	a4,16(a1)
 193:../Firmware/GD32VF103_standard_peripheral/Source/gd32vf103_can.c ****         }else{
 514              		.loc 1 193 33
 515 0152 93E70702 		ori	a5,a5,32
 516 0156 9CC2     		sw	a5,0(a3)
 198:../Firmware/GD32VF103_standard_peripheral/Source/gd32vf103_can.c ****             CAN_CTL(can_periph) |= CAN_CTL_ARD;
 517              		.loc 1 198 9 is_stmt 1
 198:../Firmware/GD32VF103_standard_peripheral/Source/gd32vf103_can.c ****             CAN_CTL(can_periph) |= CAN_CTL_ARD;
 518              		.loc 1 198 11 is_stmt 0
 519 0158 8547     		li	a5,1
 520 015a E31EF7F4 		bne	a4,a5,.L28
 521              	.L47:
 199:../Firmware/GD32VF103_standard_peripheral/Source/gd32vf103_can.c ****         }else{
 522              		.loc 1 199 13 is_stmt 1
 199:../Firmware/GD32VF103_standard_peripheral/Source/gd32vf103_can.c ****         }else{
 523              		.loc 1 199 33 is_stmt 0
 524 015e 9C42     		lw	a5,0(a3)
 204:../Firmware/GD32VF103_standard_peripheral/Source/gd32vf103_can.c ****             CAN_CTL(can_periph) |= CAN_CTL_RFOD;
 525              		.loc 1 204 11
 526 0160 D849     		lw	a4,20(a1)
 199:../Firmware/GD32VF103_standard_peripheral/Source/gd32vf103_can.c ****         }else{
 527              		.loc 1 199 33
 528 0162 93E70701 		ori	a5,a5,16
 529 0166 9CC2     		sw	a5,0(a3)
 204:../Firmware/GD32VF103_standard_peripheral/Source/gd32vf103_can.c ****             CAN_CTL(can_periph) |= CAN_CTL_RFOD;
 530              		.loc 1 204 9 is_stmt 1
 204:../Firmware/GD32VF103_standard_peripheral/Source/gd32vf103_can.c ****             CAN_CTL(can_periph) |= CAN_CTL_RFOD;
 531              		.loc 1 204 11 is_stmt 0
 532 0168 8547     		li	a5,1
 533 016a E31DF7F4 		bne	a4,a5,.L30
 534              	.L48:
 205:../Firmware/GD32VF103_standard_peripheral/Source/gd32vf103_can.c ****         }else{
 535              		.loc 1 205 13 is_stmt 1
 205:../Firmware/GD32VF103_standard_peripheral/Source/gd32vf103_can.c ****         }else{
 536              		.loc 1 205 33 is_stmt 0
 537 016e 9C42     		lw	a5,0(a3)
 210:../Firmware/GD32VF103_standard_peripheral/Source/gd32vf103_can.c ****             CAN_CTL(can_periph) |= CAN_CTL_TFO;
 538              		.loc 1 210 11
 539 0170 984D     		lw	a4,24(a1)
 205:../Firmware/GD32VF103_standard_peripheral/Source/gd32vf103_can.c ****         }else{
 540              		.loc 1 205 33
 541 0172 93E78700 		ori	a5,a5,8
 542 0176 9CC2     		sw	a5,0(a3)
 210:../Firmware/GD32VF103_standard_peripheral/Source/gd32vf103_can.c ****             CAN_CTL(can_periph) |= CAN_CTL_TFO;
 543              		.loc 1 210 9 is_stmt 1
 210:../Firmware/GD32VF103_standard_peripheral/Source/gd32vf103_can.c ****             CAN_CTL(can_periph) |= CAN_CTL_TFO;
 544              		.loc 1 210 11 is_stmt 0
 545 0178 8547     		li	a5,1
 546 017a E31CF7F4 		bne	a4,a5,.L32
 547              	.L49:
 211:../Firmware/GD32VF103_standard_peripheral/Source/gd32vf103_can.c ****         }else{
 548              		.loc 1 211 13 is_stmt 1
 211:../Firmware/GD32VF103_standard_peripheral/Source/gd32vf103_can.c ****         }else{
 549              		.loc 1 211 33 is_stmt 0
 550 017e 9C42     		lw	a5,0(a3)
 551 0180 93E74700 		ori	a5,a5,4
 552 0184 9CC2     		sw	a5,0(a3)
GAS LISTING /tmp/ccyQOTuX.s 			page 17


 553 0186 89BF     		j	.L33
 554              		.cfi_endproc
 555              	.LFE4:
 557              		.section	.text.can_filter_init,"ax",@progbits
 558              		.align	1
 559              		.globl	can_filter_init
 561              	can_filter_init:
 562              	.LFB5:
 242:../Firmware/GD32VF103_standard_peripheral/Source/gd32vf103_can.c **** 
 243:../Firmware/GD32VF103_standard_peripheral/Source/gd32vf103_can.c **** /*!
 244:../Firmware/GD32VF103_standard_peripheral/Source/gd32vf103_can.c ****     \brief      initialize CAN filter 
 245:../Firmware/GD32VF103_standard_peripheral/Source/gd32vf103_can.c ****     \param[in]  can_filter_parameter_init: struct for CAN filter initialization
 246:../Firmware/GD32VF103_standard_peripheral/Source/gd32vf103_can.c ****       \arg        filter_list_high: 0x0000 - 0xFFFF
 247:../Firmware/GD32VF103_standard_peripheral/Source/gd32vf103_can.c ****       \arg        filter_list_low: 0x0000 - 0xFFFF
 248:../Firmware/GD32VF103_standard_peripheral/Source/gd32vf103_can.c ****       \arg        filter_mask_high: 0x0000 - 0xFFFF
 249:../Firmware/GD32VF103_standard_peripheral/Source/gd32vf103_can.c ****       \arg        filter_mask_low: 0x0000 - 0xFFFF
 250:../Firmware/GD32VF103_standard_peripheral/Source/gd32vf103_can.c ****       \arg        filter_fifo_number: CAN_FIFO0, CAN_FIFO1 
 251:../Firmware/GD32VF103_standard_peripheral/Source/gd32vf103_can.c ****       \arg        filter_number: 0 - 27
 252:../Firmware/GD32VF103_standard_peripheral/Source/gd32vf103_can.c ****       \arg        filter_mode: CAN_FILTERMODE_MASK, CAN_FILTERMODE_LIST
 253:../Firmware/GD32VF103_standard_peripheral/Source/gd32vf103_can.c ****       \arg        filter_bits: CAN_FILTERBITS_32BIT, CAN_FILTERBITS_16BIT 
 254:../Firmware/GD32VF103_standard_peripheral/Source/gd32vf103_can.c ****       \arg        filter_enable: ENABLE or DISABLE
 255:../Firmware/GD32VF103_standard_peripheral/Source/gd32vf103_can.c ****     \param[out] none
 256:../Firmware/GD32VF103_standard_peripheral/Source/gd32vf103_can.c ****     \retval     none
 257:../Firmware/GD32VF103_standard_peripheral/Source/gd32vf103_can.c **** */
 258:../Firmware/GD32VF103_standard_peripheral/Source/gd32vf103_can.c **** void can_filter_init(can_filter_parameter_struct* can_filter_parameter_init)
 259:../Firmware/GD32VF103_standard_peripheral/Source/gd32vf103_can.c **** {
 563              		.loc 1 259 1 is_stmt 1
 564              		.cfi_startproc
 565              	.LVL21:
 260:../Firmware/GD32VF103_standard_peripheral/Source/gd32vf103_can.c ****     uint32_t val = 0U;
 566              		.loc 1 260 5
 261:../Firmware/GD32VF103_standard_peripheral/Source/gd32vf103_can.c ****     
 262:../Firmware/GD32VF103_standard_peripheral/Source/gd32vf103_can.c ****     val = ((uint32_t)1) << (can_filter_parameter_init->filter_number);
 567              		.loc 1 262 5
 263:../Firmware/GD32VF103_standard_peripheral/Source/gd32vf103_can.c ****     /* filter lock disable */
 264:../Firmware/GD32VF103_standard_peripheral/Source/gd32vf103_can.c ****     CAN_FCTL(CAN0) |= CAN_FCTL_FLD;
 568              		.loc 1 264 20 is_stmt 0
 569 0000 37670040 		li	a4,1073766400
 570 0004 83260760 		lw	a3,1536(a4)
 262:../Firmware/GD32VF103_standard_peripheral/Source/gd32vf103_can.c ****     /* filter lock disable */
 571              		.loc 1 262 54
 572 0008 8357A500 		lhu	a5,10(a0)
 262:../Firmware/GD32VF103_standard_peripheral/Source/gd32vf103_can.c ****     /* filter lock disable */
 573              		.loc 1 262 9
 574 000c 0548     		li	a6,1
 575              		.loc 1 264 20
 576 000e 93E61600 		ori	a3,a3,1
 577 0012 2320D760 		sw	a3,1536(a4)
 265:../Firmware/GD32VF103_standard_peripheral/Source/gd32vf103_can.c ****     /* disable filter */
 266:../Firmware/GD32VF103_standard_peripheral/Source/gd32vf103_can.c ****     CAN_FW(CAN0) &= ~(uint32_t)val;
 578              		.loc 1 266 18
 579 0016 0326C761 		lw	a2,1564(a4)
 262:../Firmware/GD32VF103_standard_peripheral/Source/gd32vf103_can.c ****     /* filter lock disable */
 580              		.loc 1 262 9
 581 001a B315F800 		sll	a1,a6,a5
 582              	.LVL22:
 264:../Firmware/GD32VF103_standard_peripheral/Source/gd32vf103_can.c ****     /* disable filter */
GAS LISTING /tmp/ccyQOTuX.s 			page 18


 583              		.loc 1 264 5 is_stmt 1
 584              		.loc 1 266 5
 267:../Firmware/GD32VF103_standard_peripheral/Source/gd32vf103_can.c ****     
 268:../Firmware/GD32VF103_standard_peripheral/Source/gd32vf103_can.c ****     /* filter 16 bits */
 269:../Firmware/GD32VF103_standard_peripheral/Source/gd32vf103_can.c ****     if(CAN_FILTERBITS_16BIT == can_filter_parameter_init->filter_bits){
 585              		.loc 1 269 57 is_stmt 0
 586 001e 8358E500 		lhu	a7,14(a0)
 266:../Firmware/GD32VF103_standard_peripheral/Source/gd32vf103_can.c ****     
 587              		.loc 1 266 21
 588 0022 93C6F5FF 		not	a3,a1
 266:../Firmware/GD32VF103_standard_peripheral/Source/gd32vf103_can.c ****     
 589              		.loc 1 266 18
 590 0026 758E     		and	a2,a2,a3
 591 0028 232EC760 		sw	a2,1564(a4)
 592              		.loc 1 269 5 is_stmt 1
 593              		.loc 1 269 7 is_stmt 0
 594 002c 6395080A 		bne	a7,zero,.L51
 270:../Firmware/GD32VF103_standard_peripheral/Source/gd32vf103_can.c ****         /* set filter 16 bits */
 271:../Firmware/GD32VF103_standard_peripheral/Source/gd32vf103_can.c ****         CAN_FSCFG(CAN0) &= ~(uint32_t)val;
 595              		.loc 1 271 9 is_stmt 1
 596              		.loc 1 271 25 is_stmt 0
 597 0030 8328C760 		lw	a7,1548(a4)
 272:../Firmware/GD32VF103_standard_peripheral/Source/gd32vf103_can.c ****         /* first 16 bits list and first 16 bits mask or first 16 bits list and second 16 bits list 
 273:../Firmware/GD32VF103_standard_peripheral/Source/gd32vf103_can.c ****         CAN_FDATA0(CAN0, can_filter_parameter_init->filter_number) = \
 274:../Firmware/GD32VF103_standard_peripheral/Source/gd32vf103_can.c ****                                 FDATA_MASK_HIGH((can_filter_parameter_init->filter_mask_low) & CAN_
 598              		.loc 1 274 33
 599 0034 03586500 		lhu	a6,6(a0)
 275:../Firmware/GD32VF103_standard_peripheral/Source/gd32vf103_can.c ****                                 FDATA_MASK_LOW((can_filter_parameter_init->filter_list_low) & CAN_F
 600              		.loc 1 275 33
 601 0038 835E2500 		lhu	t4,2(a0)
 276:../Firmware/GD32VF103_standard_peripheral/Source/gd32vf103_can.c ****         /* second 16 bits list and second 16 bits mask or third 16 bits list and fourth 16 bits lis
 277:../Firmware/GD32VF103_standard_peripheral/Source/gd32vf103_can.c ****         CAN_FDATA1(CAN0, can_filter_parameter_init->filter_number) = \
 278:../Firmware/GD32VF103_standard_peripheral/Source/gd32vf103_can.c ****                                 FDATA_MASK_HIGH((can_filter_parameter_init->filter_mask_high) & CAN
 602              		.loc 1 278 33
 603 003c 03564500 		lhu	a2,4(a0)
 279:../Firmware/GD32VF103_standard_peripheral/Source/gd32vf103_can.c ****                                 FDATA_MASK_LOW((can_filter_parameter_init->filter_list_high) & CAN_
 604              		.loc 1 279 33
 605 0040 035E0500 		lhu	t3,0(a0)
 271:../Firmware/GD32VF103_standard_peripheral/Source/gd32vf103_can.c ****         /* first 16 bits list and first 16 bits mask or first 16 bits list and second 16 bits list 
 606              		.loc 1 271 25
 607 0044 B3F81601 		and	a7,a3,a7
 608              	.L58:
 280:../Firmware/GD32VF103_standard_peripheral/Source/gd32vf103_can.c ****     }
 281:../Firmware/GD32VF103_standard_peripheral/Source/gd32vf103_can.c ****     /* filter 32 bits */
 282:../Firmware/GD32VF103_standard_peripheral/Source/gd32vf103_can.c ****     if(CAN_FILTERBITS_32BIT == can_filter_parameter_init->filter_bits){
 283:../Firmware/GD32VF103_standard_peripheral/Source/gd32vf103_can.c ****         /* set filter 32 bits */
 284:../Firmware/GD32VF103_standard_peripheral/Source/gd32vf103_can.c ****         CAN_FSCFG(CAN0) |= (uint32_t)val;
 285:../Firmware/GD32VF103_standard_peripheral/Source/gd32vf103_can.c ****         /* 32 bits list or first 32 bits list */
 286:../Firmware/GD32VF103_standard_peripheral/Source/gd32vf103_can.c ****         CAN_FDATA0(CAN0, can_filter_parameter_init->filter_number) = \
 609              		.loc 1 286 9
 610 0048 37130008 		li	t1,134221824
 611 004c 130383CC 		addi	t1,t1,-824
 612 0050 9A97     		add	a5,a5,t1
 287:../Firmware/GD32VF103_standard_peripheral/Source/gd32vf103_can.c ****                                 FDATA_MASK_HIGH((can_filter_parameter_init->filter_list_high) & CAN
 613              		.loc 1 287 33
 614 0052 4208     		slli	a6,a6,16
 284:../Firmware/GD32VF103_standard_peripheral/Source/gd32vf103_can.c ****         /* 32 bits list or first 32 bits list */
GAS LISTING /tmp/ccyQOTuX.s 			page 19


 615              		.loc 1 284 25
 616 0054 23261761 		sw	a7,1548(a4)
 286:../Firmware/GD32VF103_standard_peripheral/Source/gd32vf103_can.c ****                                 FDATA_MASK_HIGH((can_filter_parameter_init->filter_list_high) & CAN
 617              		.loc 1 286 9 is_stmt 1
 618 0058 8E07     		slli	a5,a5,3
 619              		.loc 1 287 121 is_stmt 0
 620 005a 3368D801 		or	a6,a6,t4
 288:../Firmware/GD32VF103_standard_peripheral/Source/gd32vf103_can.c ****                                 FDATA_MASK_LOW((can_filter_parameter_init->filter_list_low) & CAN_F
 289:../Firmware/GD32VF103_standard_peripheral/Source/gd32vf103_can.c ****         /* 32 bits mask or second 32 bits list */
 290:../Firmware/GD32VF103_standard_peripheral/Source/gd32vf103_can.c ****         CAN_FDATA1(CAN0, can_filter_parameter_init->filter_number) = \
 291:../Firmware/GD32VF103_standard_peripheral/Source/gd32vf103_can.c ****                                 FDATA_MASK_HIGH((can_filter_parameter_init->filter_mask_high) & CAN
 621              		.loc 1 291 33
 622 005e 13170601 		slli	a4,a2,16
 286:../Firmware/GD32VF103_standard_peripheral/Source/gd32vf103_can.c ****                                 FDATA_MASK_HIGH((can_filter_parameter_init->filter_list_high) & CAN
 623              		.loc 1 286 68
 624 0062 23A00701 		sw	a6,0(a5)
 290:../Firmware/GD32VF103_standard_peripheral/Source/gd32vf103_can.c ****                                 FDATA_MASK_HIGH((can_filter_parameter_init->filter_mask_high) & CAN
 625              		.loc 1 290 9 is_stmt 1
 626              		.loc 1 291 121 is_stmt 0
 627 0066 3367C701 		or	a4,a4,t3
 290:../Firmware/GD32VF103_standard_peripheral/Source/gd32vf103_can.c ****                                 FDATA_MASK_HIGH((can_filter_parameter_init->filter_mask_high) & CAN
 628              		.loc 1 290 68
 629 006a D8C3     		sw	a4,4(a5)
 630              	.L52:
 292:../Firmware/GD32VF103_standard_peripheral/Source/gd32vf103_can.c ****                                 FDATA_MASK_LOW((can_filter_parameter_init->filter_mask_low) & CAN_F
 293:../Firmware/GD32VF103_standard_peripheral/Source/gd32vf103_can.c ****     }
 294:../Firmware/GD32VF103_standard_peripheral/Source/gd32vf103_can.c ****     
 295:../Firmware/GD32VF103_standard_peripheral/Source/gd32vf103_can.c ****     /* filter mode */
 296:../Firmware/GD32VF103_standard_peripheral/Source/gd32vf103_can.c ****     if(CAN_FILTERMODE_MASK == can_filter_parameter_init->filter_mode){
 631              		.loc 1 296 5 is_stmt 1
 632              		.loc 1 296 7 is_stmt 0
 633 006c 8357C500 		lhu	a5,12(a0)
 297:../Firmware/GD32VF103_standard_peripheral/Source/gd32vf103_can.c ****         /* mask mode */
 298:../Firmware/GD32VF103_standard_peripheral/Source/gd32vf103_can.c ****         CAN_FMCFG(CAN0) &= ~(uint32_t)val;
 634              		.loc 1 298 25
 635 0070 37670040 		li	a4,1073766400
 296:../Firmware/GD32VF103_standard_peripheral/Source/gd32vf103_can.c ****         /* mask mode */
 636              		.loc 1 296 7
 637 0074 B9EB     		bne	a5,zero,.L53
 638              		.loc 1 298 9 is_stmt 1
 639              		.loc 1 298 25 is_stmt 0
 640 0076 83274760 		lw	a5,1540(a4)
 641 007a F58F     		and	a5,a3,a5
 642 007c 2322F760 		sw	a5,1540(a4)
 643              	.L54:
 299:../Firmware/GD32VF103_standard_peripheral/Source/gd32vf103_can.c ****     }else{
 300:../Firmware/GD32VF103_standard_peripheral/Source/gd32vf103_can.c ****         /* list mode */
 301:../Firmware/GD32VF103_standard_peripheral/Source/gd32vf103_can.c ****         CAN_FMCFG(CAN0) |= (uint32_t)val;
 302:../Firmware/GD32VF103_standard_peripheral/Source/gd32vf103_can.c ****     }
 303:../Firmware/GD32VF103_standard_peripheral/Source/gd32vf103_can.c ****     
 304:../Firmware/GD32VF103_standard_peripheral/Source/gd32vf103_can.c ****     /* filter FIFO */
 305:../Firmware/GD32VF103_standard_peripheral/Source/gd32vf103_can.c ****     if(CAN_FIFO0 == (can_filter_parameter_init->filter_fifo_number)){
 644              		.loc 1 305 5 is_stmt 1
 645              		.loc 1 305 7 is_stmt 0
 646 0080 83578500 		lhu	a5,8(a0)
 647 0084 9DEB     		bne	a5,zero,.L55
 306:../Firmware/GD32VF103_standard_peripheral/Source/gd32vf103_can.c ****         /* FIFO0 */
GAS LISTING /tmp/ccyQOTuX.s 			page 20


 307:../Firmware/GD32VF103_standard_peripheral/Source/gd32vf103_can.c ****         CAN_FAFIFO(CAN0) &= ~(uint32_t)val;
 648              		.loc 1 307 9 is_stmt 1
 649              		.loc 1 307 26 is_stmt 0
 650 0086 B7670040 		li	a5,1073766400
 651 008a 03A74761 		lw	a4,1556(a5)
 652 008e F98E     		and	a3,a3,a4
 653 0090 23AAD760 		sw	a3,1556(a5)
 654              	.L56:
 308:../Firmware/GD32VF103_standard_peripheral/Source/gd32vf103_can.c ****     }else{
 309:../Firmware/GD32VF103_standard_peripheral/Source/gd32vf103_can.c ****         /* FIFO1 */
 310:../Firmware/GD32VF103_standard_peripheral/Source/gd32vf103_can.c ****         CAN_FAFIFO(CAN0) |= (uint32_t)val;
 311:../Firmware/GD32VF103_standard_peripheral/Source/gd32vf103_can.c ****     }
 312:../Firmware/GD32VF103_standard_peripheral/Source/gd32vf103_can.c ****     
 313:../Firmware/GD32VF103_standard_peripheral/Source/gd32vf103_can.c ****     /* filter working */
 314:../Firmware/GD32VF103_standard_peripheral/Source/gd32vf103_can.c ****     if(ENABLE == can_filter_parameter_init->filter_enable){
 655              		.loc 1 314 5 is_stmt 1
 656              		.loc 1 314 7 is_stmt 0
 657 0094 1849     		lw	a4,16(a0)
 658 0096 8547     		li	a5,1
 659 0098 6319F700 		bne	a4,a5,.L57
 315:../Firmware/GD32VF103_standard_peripheral/Source/gd32vf103_can.c ****         
 316:../Firmware/GD32VF103_standard_peripheral/Source/gd32vf103_can.c ****         CAN_FW(CAN0) |= (uint32_t)val;
 660              		.loc 1 316 9 is_stmt 1
 661              		.loc 1 316 22 is_stmt 0
 662 009c 37670040 		li	a4,1073766400
 663 00a0 8327C761 		lw	a5,1564(a4)
 664 00a4 DD8D     		or	a1,a5,a1
 665              	.LVL23:
 666 00a6 232EB760 		sw	a1,1564(a4)
 667              	.L57:
 317:../Firmware/GD32VF103_standard_peripheral/Source/gd32vf103_can.c ****     }
 318:../Firmware/GD32VF103_standard_peripheral/Source/gd32vf103_can.c ****     
 319:../Firmware/GD32VF103_standard_peripheral/Source/gd32vf103_can.c ****     /* filter lock enable */
 320:../Firmware/GD32VF103_standard_peripheral/Source/gd32vf103_can.c ****     CAN_FCTL(CAN0) &= ~CAN_FCTL_FLD;
 668              		.loc 1 320 5 is_stmt 1
 669              		.loc 1 320 20 is_stmt 0
 670 00aa 37670040 		li	a4,1073766400
 671 00ae 83270760 		lw	a5,1536(a4)
 672 00b2 F99B     		andi	a5,a5,-2
 673 00b4 2320F760 		sw	a5,1536(a4)
 321:../Firmware/GD32VF103_standard_peripheral/Source/gd32vf103_can.c **** }
 674              		.loc 1 321 1
 675 00b8 8280     		ret
 676              	.LVL24:
 677              	.L55:
 310:../Firmware/GD32VF103_standard_peripheral/Source/gd32vf103_can.c ****     }
 678              		.loc 1 310 9 is_stmt 1
 310:../Firmware/GD32VF103_standard_peripheral/Source/gd32vf103_can.c ****     }
 679              		.loc 1 310 26 is_stmt 0
 680 00ba 37670040 		li	a4,1073766400
 681 00be 83274761 		lw	a5,1556(a4)
 682 00c2 CD8F     		or	a5,a5,a1
 683 00c4 232AF760 		sw	a5,1556(a4)
 684 00c8 F1B7     		j	.L56
 685              	.L53:
 301:../Firmware/GD32VF103_standard_peripheral/Source/gd32vf103_can.c ****     }
 686              		.loc 1 301 9 is_stmt 1
GAS LISTING /tmp/ccyQOTuX.s 			page 21


 301:../Firmware/GD32VF103_standard_peripheral/Source/gd32vf103_can.c ****     }
 687              		.loc 1 301 25 is_stmt 0
 688 00ca 83274760 		lw	a5,1540(a4)
 689 00ce CD8F     		or	a5,a5,a1
 690 00d0 2322F760 		sw	a5,1540(a4)
 691 00d4 75B7     		j	.L54
 692              	.L51:
 282:../Firmware/GD32VF103_standard_peripheral/Source/gd32vf103_can.c ****         /* set filter 32 bits */
 693              		.loc 1 282 5 is_stmt 1
 282:../Firmware/GD32VF103_standard_peripheral/Source/gd32vf103_can.c ****         /* set filter 32 bits */
 694              		.loc 1 282 7 is_stmt 0
 695 00d6 E39B08F9 		bne	a7,a6,.L52
 284:../Firmware/GD32VF103_standard_peripheral/Source/gd32vf103_can.c ****         /* 32 bits list or first 32 bits list */
 696              		.loc 1 284 9 is_stmt 1
 284:../Firmware/GD32VF103_standard_peripheral/Source/gd32vf103_can.c ****         /* 32 bits list or first 32 bits list */
 697              		.loc 1 284 25 is_stmt 0
 698 00da 8328C760 		lw	a7,1548(a4)
 287:../Firmware/GD32VF103_standard_peripheral/Source/gd32vf103_can.c ****                                 FDATA_MASK_LOW((can_filter_parameter_init->filter_list_low) & CAN_F
 699              		.loc 1 287 33
 700 00de 03580500 		lhu	a6,0(a0)
 288:../Firmware/GD32VF103_standard_peripheral/Source/gd32vf103_can.c ****         /* 32 bits mask or second 32 bits list */
 701              		.loc 1 288 33
 702 00e2 835E2500 		lhu	t4,2(a0)
 291:../Firmware/GD32VF103_standard_peripheral/Source/gd32vf103_can.c ****                                 FDATA_MASK_LOW((can_filter_parameter_init->filter_mask_low) & CAN_F
 703              		.loc 1 291 33
 704 00e6 03564500 		lhu	a2,4(a0)
 292:../Firmware/GD32VF103_standard_peripheral/Source/gd32vf103_can.c ****     }
 705              		.loc 1 292 33
 706 00ea 035E6500 		lhu	t3,6(a0)
 284:../Firmware/GD32VF103_standard_peripheral/Source/gd32vf103_can.c ****         /* 32 bits list or first 32 bits list */
 707              		.loc 1 284 25
 708 00ee B3E8B800 		or	a7,a7,a1
 709 00f2 99BF     		j	.L58
 710              		.cfi_endproc
 711              	.LFE5:
 713              		.section	.text.can1_filter_start_bank,"ax",@progbits
 714              		.align	1
 715              		.globl	can1_filter_start_bank
 717              	can1_filter_start_bank:
 718              	.LFB6:
 322:../Firmware/GD32VF103_standard_peripheral/Source/gd32vf103_can.c **** 
 323:../Firmware/GD32VF103_standard_peripheral/Source/gd32vf103_can.c **** /*!
 324:../Firmware/GD32VF103_standard_peripheral/Source/gd32vf103_can.c ****     \brief      set CAN1 fliter start bank number
 325:../Firmware/GD32VF103_standard_peripheral/Source/gd32vf103_can.c ****     \param[in]  start_bank: CAN1 start bank number
 326:../Firmware/GD32VF103_standard_peripheral/Source/gd32vf103_can.c ****                 only one parameter can be selected which is shown as below:
 327:../Firmware/GD32VF103_standard_peripheral/Source/gd32vf103_can.c ****       \arg        (1..27)
 328:../Firmware/GD32VF103_standard_peripheral/Source/gd32vf103_can.c ****     \param[out] none
 329:../Firmware/GD32VF103_standard_peripheral/Source/gd32vf103_can.c ****     \retval     none
 330:../Firmware/GD32VF103_standard_peripheral/Source/gd32vf103_can.c **** */
 331:../Firmware/GD32VF103_standard_peripheral/Source/gd32vf103_can.c **** void can1_filter_start_bank(uint8_t start_bank)
 332:../Firmware/GD32VF103_standard_peripheral/Source/gd32vf103_can.c **** {
 719              		.loc 1 332 1 is_stmt 1
 720              		.cfi_startproc
 721              	.LVL25:
 333:../Firmware/GD32VF103_standard_peripheral/Source/gd32vf103_can.c ****     /* filter lock disable */
 334:../Firmware/GD32VF103_standard_peripheral/Source/gd32vf103_can.c ****     CAN_FCTL(CAN0) |= CAN_FCTL_FLD;
 722              		.loc 1 334 5
GAS LISTING /tmp/ccyQOTuX.s 			page 22


 723              		.loc 1 334 20 is_stmt 0
 724 0000 B7670040 		li	a5,1073766400
 725 0004 03A70760 		lw	a4,1536(a5)
 335:../Firmware/GD32VF103_standard_peripheral/Source/gd32vf103_can.c ****     /* set CAN1 filter start number */
 336:../Firmware/GD32VF103_standard_peripheral/Source/gd32vf103_can.c ****     CAN_FCTL(CAN0) &= ~(uint32_t)CAN_FCTL_HBC1F;
 726              		.loc 1 336 20
 727 0008 F176     		li	a3,-16384
 728 000a 9386F60F 		addi	a3,a3,255
 334:../Firmware/GD32VF103_standard_peripheral/Source/gd32vf103_can.c ****     /* set CAN1 filter start number */
 729              		.loc 1 334 20
 730 000e 13671700 		ori	a4,a4,1
 731 0012 23A0E760 		sw	a4,1536(a5)
 732              		.loc 1 336 5 is_stmt 1
 733              		.loc 1 336 20 is_stmt 0
 734 0016 03A70760 		lw	a4,1536(a5)
 337:../Firmware/GD32VF103_standard_peripheral/Source/gd32vf103_can.c ****     CAN_FCTL(CAN0) |= FCTL_HBC1F(start_bank);
 735              		.loc 1 337 23
 736 001a 2205     		slli	a0,a0,8
 737              	.LVL26:
 336:../Firmware/GD32VF103_standard_peripheral/Source/gd32vf103_can.c ****     CAN_FCTL(CAN0) |= FCTL_HBC1F(start_bank);
 738              		.loc 1 336 20
 739 001c 758F     		and	a4,a4,a3
 740 001e 23A0E760 		sw	a4,1536(a5)
 741              		.loc 1 337 5 is_stmt 1
 742              		.loc 1 337 20 is_stmt 0
 743 0022 83A60760 		lw	a3,1536(a5)
 744              		.loc 1 337 23
 745 0026 1167     		li	a4,16384
 746 0028 130707F0 		addi	a4,a4,-256
 747 002c 798D     		and	a0,a0,a4
 748              		.loc 1 337 20
 749 002e 558D     		or	a0,a0,a3
 750 0030 23A0A760 		sw	a0,1536(a5)
 338:../Firmware/GD32VF103_standard_peripheral/Source/gd32vf103_can.c ****     /* filter lock enaable */
 339:../Firmware/GD32VF103_standard_peripheral/Source/gd32vf103_can.c ****     CAN_FCTL(CAN0) &= ~CAN_FCTL_FLD;
 751              		.loc 1 339 5 is_stmt 1
 752              		.loc 1 339 20 is_stmt 0
 753 0034 03A70760 		lw	a4,1536(a5)
 754 0038 799B     		andi	a4,a4,-2
 755 003a 23A0E760 		sw	a4,1536(a5)
 340:../Firmware/GD32VF103_standard_peripheral/Source/gd32vf103_can.c **** }
 756              		.loc 1 340 1
 757 003e 8280     		ret
 758              		.cfi_endproc
 759              	.LFE6:
 761              		.section	.text.can_debug_freeze_enable,"ax",@progbits
 762              		.align	1
 763              		.globl	can_debug_freeze_enable
 765              	can_debug_freeze_enable:
 766              	.LFB7:
 341:../Firmware/GD32VF103_standard_peripheral/Source/gd32vf103_can.c **** 
 342:../Firmware/GD32VF103_standard_peripheral/Source/gd32vf103_can.c **** /*!
 343:../Firmware/GD32VF103_standard_peripheral/Source/gd32vf103_can.c ****     \brief      enable CAN debug freeze
 344:../Firmware/GD32VF103_standard_peripheral/Source/gd32vf103_can.c ****     \param[in]  can_periph
 345:../Firmware/GD32VF103_standard_peripheral/Source/gd32vf103_can.c ****       \arg        CANx(x=0,1)
 346:../Firmware/GD32VF103_standard_peripheral/Source/gd32vf103_can.c ****     \param[out] none
 347:../Firmware/GD32VF103_standard_peripheral/Source/gd32vf103_can.c ****     \retval     none
GAS LISTING /tmp/ccyQOTuX.s 			page 23


 348:../Firmware/GD32VF103_standard_peripheral/Source/gd32vf103_can.c **** */
 349:../Firmware/GD32VF103_standard_peripheral/Source/gd32vf103_can.c **** void can_debug_freeze_enable(uint32_t can_periph)
 350:../Firmware/GD32VF103_standard_peripheral/Source/gd32vf103_can.c **** {
 767              		.loc 1 350 1 is_stmt 1
 768              		.cfi_startproc
 769              	.LVL27:
 351:../Firmware/GD32VF103_standard_peripheral/Source/gd32vf103_can.c ****     /* set DFZ bit */
 352:../Firmware/GD32VF103_standard_peripheral/Source/gd32vf103_can.c ****     CAN_CTL(can_periph) |= CAN_CTL_DFZ;
 770              		.loc 1 352 5
 771              		.loc 1 352 25 is_stmt 0
 772 0000 1C41     		lw	a5,0(a0)
 773 0002 4167     		li	a4,65536
 774 0004 D98F     		or	a5,a5,a4
 775 0006 1CC1     		sw	a5,0(a0)
 353:../Firmware/GD32VF103_standard_peripheral/Source/gd32vf103_can.c ****     if(CAN0 == can_periph){
 776              		.loc 1 353 5 is_stmt 1
 777              		.loc 1 353 7 is_stmt 0
 778 0008 B7670040 		li	a5,1073766400
 779 000c 93870740 		addi	a5,a5,1024
 780 0010 6308F500 		beq	a0,a5,.L62
 354:../Firmware/GD32VF103_standard_peripheral/Source/gd32vf103_can.c ****         dbg_periph_enable(DBG_CAN0_HOLD);
 355:../Firmware/GD32VF103_standard_peripheral/Source/gd32vf103_can.c ****     }else{
 356:../Firmware/GD32VF103_standard_peripheral/Source/gd32vf103_can.c ****         dbg_periph_enable(DBG_CAN1_HOLD);
 781              		.loc 1 356 9 is_stmt 1
 782 0014 37052000 		li	a0,2097152
 783              	.LVL28:
 784 0018 17030000 		tail	dbg_periph_enable
 784      67000300 
 785              	.LVL29:
 786              	.L62:
 354:../Firmware/GD32VF103_standard_peripheral/Source/gd32vf103_can.c ****         dbg_periph_enable(DBG_CAN0_HOLD);
 787              		.loc 1 354 9
 788 0020 1165     		li	a0,16384
 789              	.LVL30:
 790 0022 17030000 		tail	dbg_periph_enable
 790      67000300 
 791              	.LVL31:
 792              		.cfi_endproc
 793              	.LFE7:
 795              		.section	.text.can_debug_freeze_disable,"ax",@progbits
 796              		.align	1
 797              		.globl	can_debug_freeze_disable
 799              	can_debug_freeze_disable:
 800              	.LFB8:
 357:../Firmware/GD32VF103_standard_peripheral/Source/gd32vf103_can.c ****     }
 358:../Firmware/GD32VF103_standard_peripheral/Source/gd32vf103_can.c **** }
 359:../Firmware/GD32VF103_standard_peripheral/Source/gd32vf103_can.c **** 
 360:../Firmware/GD32VF103_standard_peripheral/Source/gd32vf103_can.c **** /*!
 361:../Firmware/GD32VF103_standard_peripheral/Source/gd32vf103_can.c ****     \brief      disable CAN debug freeze
 362:../Firmware/GD32VF103_standard_peripheral/Source/gd32vf103_can.c ****     \param[in]  can_periph
 363:../Firmware/GD32VF103_standard_peripheral/Source/gd32vf103_can.c ****       \arg        CANx(x=0,1)
 364:../Firmware/GD32VF103_standard_peripheral/Source/gd32vf103_can.c ****     \param[out] none
 365:../Firmware/GD32VF103_standard_peripheral/Source/gd32vf103_can.c ****     \retval     none
 366:../Firmware/GD32VF103_standard_peripheral/Source/gd32vf103_can.c **** */
 367:../Firmware/GD32VF103_standard_peripheral/Source/gd32vf103_can.c **** void can_debug_freeze_disable(uint32_t can_periph)
 368:../Firmware/GD32VF103_standard_peripheral/Source/gd32vf103_can.c **** {
 801              		.loc 1 368 1
GAS LISTING /tmp/ccyQOTuX.s 			page 24


 802              		.cfi_startproc
 803              	.LVL32:
 369:../Firmware/GD32VF103_standard_peripheral/Source/gd32vf103_can.c ****     /* set DFZ bit */
 370:../Firmware/GD32VF103_standard_peripheral/Source/gd32vf103_can.c ****     CAN_CTL(can_periph) &= ~CAN_CTL_DFZ;
 804              		.loc 1 370 5
 805              		.loc 1 370 25 is_stmt 0
 806 0000 1C41     		lw	a5,0(a0)
 807 0002 4177     		li	a4,-65536
 808 0004 7D17     		addi	a4,a4,-1
 809 0006 F98F     		and	a5,a5,a4
 810 0008 1CC1     		sw	a5,0(a0)
 371:../Firmware/GD32VF103_standard_peripheral/Source/gd32vf103_can.c ****     if(CAN0 == can_periph){
 811              		.loc 1 371 5 is_stmt 1
 812              		.loc 1 371 7 is_stmt 0
 813 000a B7670040 		li	a5,1073766400
 814 000e 93870740 		addi	a5,a5,1024
 815 0012 6308F500 		beq	a0,a5,.L65
 372:../Firmware/GD32VF103_standard_peripheral/Source/gd32vf103_can.c ****         dbg_periph_disable(DBG_CAN0_HOLD);
 373:../Firmware/GD32VF103_standard_peripheral/Source/gd32vf103_can.c ****     }else{
 374:../Firmware/GD32VF103_standard_peripheral/Source/gd32vf103_can.c ****         dbg_periph_disable(DBG_CAN1_HOLD);
 816              		.loc 1 374 9 is_stmt 1
 817 0016 37052000 		li	a0,2097152
 818              	.LVL33:
 819 001a 17030000 		tail	dbg_periph_disable
 819      67000300 
 820              	.LVL34:
 821              	.L65:
 372:../Firmware/GD32VF103_standard_peripheral/Source/gd32vf103_can.c ****         dbg_periph_disable(DBG_CAN0_HOLD);
 822              		.loc 1 372 9
 823 0022 1165     		li	a0,16384
 824              	.LVL35:
 825 0024 17030000 		tail	dbg_periph_disable
 825      67000300 
 826              	.LVL36:
 827              		.cfi_endproc
 828              	.LFE8:
 830              		.section	.text.can_time_trigger_mode_enable,"ax",@progbits
 831              		.align	1
 832              		.globl	can_time_trigger_mode_enable
 834              	can_time_trigger_mode_enable:
 835              	.LFB9:
 375:../Firmware/GD32VF103_standard_peripheral/Source/gd32vf103_can.c ****     }
 376:../Firmware/GD32VF103_standard_peripheral/Source/gd32vf103_can.c **** }
 377:../Firmware/GD32VF103_standard_peripheral/Source/gd32vf103_can.c **** 
 378:../Firmware/GD32VF103_standard_peripheral/Source/gd32vf103_can.c **** /*!
 379:../Firmware/GD32VF103_standard_peripheral/Source/gd32vf103_can.c ****     \brief      enable CAN time trigger mode
 380:../Firmware/GD32VF103_standard_peripheral/Source/gd32vf103_can.c ****     \param[in]  can_periph
 381:../Firmware/GD32VF103_standard_peripheral/Source/gd32vf103_can.c ****       \arg        CANx(x=0,1)
 382:../Firmware/GD32VF103_standard_peripheral/Source/gd32vf103_can.c ****     \param[out] none
 383:../Firmware/GD32VF103_standard_peripheral/Source/gd32vf103_can.c ****     \retval     none
 384:../Firmware/GD32VF103_standard_peripheral/Source/gd32vf103_can.c **** */
 385:../Firmware/GD32VF103_standard_peripheral/Source/gd32vf103_can.c **** void can_time_trigger_mode_enable(uint32_t can_periph)
 386:../Firmware/GD32VF103_standard_peripheral/Source/gd32vf103_can.c **** {
 836              		.loc 1 386 1
 837              		.cfi_startproc
 838              	.LVL37:
 387:../Firmware/GD32VF103_standard_peripheral/Source/gd32vf103_can.c ****     uint8_t mailbox_number;
GAS LISTING /tmp/ccyQOTuX.s 			page 25


 839              		.loc 1 387 5
 388:../Firmware/GD32VF103_standard_peripheral/Source/gd32vf103_can.c ****     
 389:../Firmware/GD32VF103_standard_peripheral/Source/gd32vf103_can.c ****     /* enable the tcc mode */
 390:../Firmware/GD32VF103_standard_peripheral/Source/gd32vf103_can.c ****     CAN_CTL(can_periph) |= CAN_CTL_TTC;
 840              		.loc 1 390 5
 841              		.loc 1 390 25 is_stmt 0
 842 0000 1C41     		lw	a5,0(a0)
 843 0002 93E70708 		ori	a5,a5,128
 844 0006 1CC1     		sw	a5,0(a0)
 391:../Firmware/GD32VF103_standard_peripheral/Source/gd32vf103_can.c ****     /* enable time stamp */
 392:../Firmware/GD32VF103_standard_peripheral/Source/gd32vf103_can.c ****     for(mailbox_number = 0U; mailbox_number < 3U; mailbox_number++){
 845              		.loc 1 392 5 is_stmt 1
 846              	.LVL38:
 847              		.loc 1 392 30
 393:../Firmware/GD32VF103_standard_peripheral/Source/gd32vf103_can.c ****         CAN_TMP(can_periph, mailbox_number) |= CAN_TMP_TSEN;
 848              		.loc 1 393 9
 849              		.loc 1 393 45 is_stmt 0
 850 0008 83274518 		lw	a5,388(a0)
 851 000c 93E70710 		ori	a5,a5,256
 852 0010 2322F518 		sw	a5,388(a0)
 392:../Firmware/GD32VF103_standard_peripheral/Source/gd32vf103_can.c ****         CAN_TMP(can_periph, mailbox_number) |= CAN_TMP_TSEN;
 853              		.loc 1 392 51 is_stmt 1
 854              	.LVL39:
 392:../Firmware/GD32VF103_standard_peripheral/Source/gd32vf103_can.c ****         CAN_TMP(can_periph, mailbox_number) |= CAN_TMP_TSEN;
 855              		.loc 1 392 30
 856              		.loc 1 393 9
 857              		.loc 1 393 45 is_stmt 0
 858 0014 83274519 		lw	a5,404(a0)
 859 0018 93E70710 		ori	a5,a5,256
 860 001c 232AF518 		sw	a5,404(a0)
 392:../Firmware/GD32VF103_standard_peripheral/Source/gd32vf103_can.c ****         CAN_TMP(can_periph, mailbox_number) |= CAN_TMP_TSEN;
 861              		.loc 1 392 51 is_stmt 1
 862              	.LVL40:
 392:../Firmware/GD32VF103_standard_peripheral/Source/gd32vf103_can.c ****         CAN_TMP(can_periph, mailbox_number) |= CAN_TMP_TSEN;
 863              		.loc 1 392 30
 864              		.loc 1 393 9
 865              		.loc 1 393 45 is_stmt 0
 866 0020 8327451A 		lw	a5,420(a0)
 867 0024 93E70710 		ori	a5,a5,256
 868 0028 2322F51A 		sw	a5,420(a0)
 392:../Firmware/GD32VF103_standard_peripheral/Source/gd32vf103_can.c ****         CAN_TMP(can_periph, mailbox_number) |= CAN_TMP_TSEN;
 869              		.loc 1 392 51 is_stmt 1
 870              	.LVL41:
 392:../Firmware/GD32VF103_standard_peripheral/Source/gd32vf103_can.c ****         CAN_TMP(can_periph, mailbox_number) |= CAN_TMP_TSEN;
 871              		.loc 1 392 30
 394:../Firmware/GD32VF103_standard_peripheral/Source/gd32vf103_can.c ****     }
 395:../Firmware/GD32VF103_standard_peripheral/Source/gd32vf103_can.c **** }
 872              		.loc 1 395 1 is_stmt 0
 873 002c 8280     		ret
 874              		.cfi_endproc
 875              	.LFE9:
 877              		.section	.text.can_time_trigger_mode_disable,"ax",@progbits
 878              		.align	1
 879              		.globl	can_time_trigger_mode_disable
 881              	can_time_trigger_mode_disable:
 882              	.LFB10:
 396:../Firmware/GD32VF103_standard_peripheral/Source/gd32vf103_can.c **** 
GAS LISTING /tmp/ccyQOTuX.s 			page 26


 397:../Firmware/GD32VF103_standard_peripheral/Source/gd32vf103_can.c **** /*!
 398:../Firmware/GD32VF103_standard_peripheral/Source/gd32vf103_can.c ****     \brief      disable CAN time trigger mode
 399:../Firmware/GD32VF103_standard_peripheral/Source/gd32vf103_can.c ****     \param[in]  can_periph
 400:../Firmware/GD32VF103_standard_peripheral/Source/gd32vf103_can.c ****       \arg        CANx(x=0,1)
 401:../Firmware/GD32VF103_standard_peripheral/Source/gd32vf103_can.c ****     \param[out] none
 402:../Firmware/GD32VF103_standard_peripheral/Source/gd32vf103_can.c ****     \retval     none
 403:../Firmware/GD32VF103_standard_peripheral/Source/gd32vf103_can.c **** */
 404:../Firmware/GD32VF103_standard_peripheral/Source/gd32vf103_can.c **** void can_time_trigger_mode_disable(uint32_t can_periph)
 405:../Firmware/GD32VF103_standard_peripheral/Source/gd32vf103_can.c **** {
 883              		.loc 1 405 1 is_stmt 1
 884              		.cfi_startproc
 885              	.LVL42:
 406:../Firmware/GD32VF103_standard_peripheral/Source/gd32vf103_can.c ****     uint8_t mailbox_number; 
 886              		.loc 1 406 5
 407:../Firmware/GD32VF103_standard_peripheral/Source/gd32vf103_can.c ****     
 408:../Firmware/GD32VF103_standard_peripheral/Source/gd32vf103_can.c ****     /* disable the TCC mode */
 409:../Firmware/GD32VF103_standard_peripheral/Source/gd32vf103_can.c ****     CAN_CTL(can_periph) &= ~CAN_CTL_TTC;
 887              		.loc 1 409 5
 888              		.loc 1 409 25 is_stmt 0
 889 0000 1C41     		lw	a5,0(a0)
 890 0002 93F7F7F7 		andi	a5,a5,-129
 891 0006 1CC1     		sw	a5,0(a0)
 410:../Firmware/GD32VF103_standard_peripheral/Source/gd32vf103_can.c ****     /* reset TSEN bits */
 411:../Firmware/GD32VF103_standard_peripheral/Source/gd32vf103_can.c ****     for(mailbox_number = 0U; mailbox_number < 3U; mailbox_number++){
 892              		.loc 1 411 5 is_stmt 1
 893              	.LVL43:
 894              		.loc 1 411 30
 412:../Firmware/GD32VF103_standard_peripheral/Source/gd32vf103_can.c ****         CAN_TMP(can_periph, mailbox_number) &= ~CAN_TMP_TSEN;
 895              		.loc 1 412 9
 896              		.loc 1 412 45 is_stmt 0
 897 0008 83274518 		lw	a5,388(a0)
 898 000c 93F7F7EF 		andi	a5,a5,-257
 899 0010 2322F518 		sw	a5,388(a0)
 411:../Firmware/GD32VF103_standard_peripheral/Source/gd32vf103_can.c ****         CAN_TMP(can_periph, mailbox_number) &= ~CAN_TMP_TSEN;
 900              		.loc 1 411 51 is_stmt 1
 901              	.LVL44:
 411:../Firmware/GD32VF103_standard_peripheral/Source/gd32vf103_can.c ****         CAN_TMP(can_periph, mailbox_number) &= ~CAN_TMP_TSEN;
 902              		.loc 1 411 30
 903              		.loc 1 412 9
 904              		.loc 1 412 45 is_stmt 0
 905 0014 83274519 		lw	a5,404(a0)
 906 0018 93F7F7EF 		andi	a5,a5,-257
 907 001c 232AF518 		sw	a5,404(a0)
 411:../Firmware/GD32VF103_standard_peripheral/Source/gd32vf103_can.c ****         CAN_TMP(can_periph, mailbox_number) &= ~CAN_TMP_TSEN;
 908              		.loc 1 411 51 is_stmt 1
 909              	.LVL45:
 411:../Firmware/GD32VF103_standard_peripheral/Source/gd32vf103_can.c ****         CAN_TMP(can_periph, mailbox_number) &= ~CAN_TMP_TSEN;
 910              		.loc 1 411 30
 911              		.loc 1 412 9
 912              		.loc 1 412 45 is_stmt 0
 913 0020 8327451A 		lw	a5,420(a0)
 914 0024 93F7F7EF 		andi	a5,a5,-257
 915 0028 2322F51A 		sw	a5,420(a0)
 411:../Firmware/GD32VF103_standard_peripheral/Source/gd32vf103_can.c ****         CAN_TMP(can_periph, mailbox_number) &= ~CAN_TMP_TSEN;
 916              		.loc 1 411 51 is_stmt 1
 917              	.LVL46:
 411:../Firmware/GD32VF103_standard_peripheral/Source/gd32vf103_can.c ****         CAN_TMP(can_periph, mailbox_number) &= ~CAN_TMP_TSEN;
GAS LISTING /tmp/ccyQOTuX.s 			page 27


 918              		.loc 1 411 30
 413:../Firmware/GD32VF103_standard_peripheral/Source/gd32vf103_can.c ****     }
 414:../Firmware/GD32VF103_standard_peripheral/Source/gd32vf103_can.c **** }
 919              		.loc 1 414 1 is_stmt 0
 920 002c 8280     		ret
 921              		.cfi_endproc
 922              	.LFE10:
 924              		.section	.text.can_message_transmit,"ax",@progbits
 925              		.align	1
 926              		.globl	can_message_transmit
 928              	can_message_transmit:
 929              	.LFB11:
 415:../Firmware/GD32VF103_standard_peripheral/Source/gd32vf103_can.c **** 
 416:../Firmware/GD32VF103_standard_peripheral/Source/gd32vf103_can.c **** /*!
 417:../Firmware/GD32VF103_standard_peripheral/Source/gd32vf103_can.c ****     \brief       transmit CAN message
 418:../Firmware/GD32VF103_standard_peripheral/Source/gd32vf103_can.c ****     \param[in]  can_periph
 419:../Firmware/GD32VF103_standard_peripheral/Source/gd32vf103_can.c ****       \arg        CANx(x=0,1)
 420:../Firmware/GD32VF103_standard_peripheral/Source/gd32vf103_can.c ****     \param[in]  transmit_message: struct for CAN transmit message
 421:../Firmware/GD32VF103_standard_peripheral/Source/gd32vf103_can.c ****       \arg        tx_sfid: 0x00000000 - 0x000007FF
 422:../Firmware/GD32VF103_standard_peripheral/Source/gd32vf103_can.c ****       \arg        tx_efid: 0x00000000 - 0x1FFFFFFF
 423:../Firmware/GD32VF103_standard_peripheral/Source/gd32vf103_can.c ****       \arg        tx_ff: CAN_FF_STANDARD, CAN_FF_EXTENDED
 424:../Firmware/GD32VF103_standard_peripheral/Source/gd32vf103_can.c ****       \arg        tx_ft: CAN_FT_DATA, CAN_FT_REMOTE
 425:../Firmware/GD32VF103_standard_peripheral/Source/gd32vf103_can.c ****       \arg        tx_dlenc: 1 - 7
 426:../Firmware/GD32VF103_standard_peripheral/Source/gd32vf103_can.c ****       \arg        tx_data[]: 0x00 - 0xFF
 427:../Firmware/GD32VF103_standard_peripheral/Source/gd32vf103_can.c ****     \param[out] none
 428:../Firmware/GD32VF103_standard_peripheral/Source/gd32vf103_can.c ****     \retval     mailbox_number
 429:../Firmware/GD32VF103_standard_peripheral/Source/gd32vf103_can.c **** */
 430:../Firmware/GD32VF103_standard_peripheral/Source/gd32vf103_can.c **** uint8_t can_message_transmit(uint32_t can_periph, can_trasnmit_message_struct* transmit_message)
 431:../Firmware/GD32VF103_standard_peripheral/Source/gd32vf103_can.c **** {
 930              		.loc 1 431 1 is_stmt 1
 931              		.cfi_startproc
 932              	.LVL47:
 432:../Firmware/GD32VF103_standard_peripheral/Source/gd32vf103_can.c ****     uint8_t mailbox_number = CAN_MAILBOX0;
 933              		.loc 1 432 5
 433:../Firmware/GD32VF103_standard_peripheral/Source/gd32vf103_can.c **** 
 434:../Firmware/GD32VF103_standard_peripheral/Source/gd32vf103_can.c ****     /* select one empty mailbox */
 435:../Firmware/GD32VF103_standard_peripheral/Source/gd32vf103_can.c ****     if(CAN_TSTAT_TME0 == (CAN_TSTAT(can_periph)&CAN_TSTAT_TME0)){
 934              		.loc 1 435 5
 935              		.loc 1 435 27 is_stmt 0
 936 0000 1845     		lw	a4,8(a0)
 937              		.loc 1 435 48
 938 0002 B7060004 		li	a3,67108864
 431:../Firmware/GD32VF103_standard_peripheral/Source/gd32vf103_can.c ****     uint8_t mailbox_number = CAN_MAILBOX0;
 939              		.loc 1 431 1
 940 0006 AA87     		mv	a5,a0
 941              		.loc 1 435 48
 942 0008 758F     		and	a4,a4,a3
 943              		.loc 1 435 27
 944 000a 93068500 		addi	a3,a0,8
 945              		.loc 1 435 7
 946 000e 45E7     		bne	a4,zero,.L74
 436:../Firmware/GD32VF103_standard_peripheral/Source/gd32vf103_can.c ****         mailbox_number = CAN_MAILBOX0;
 437:../Firmware/GD32VF103_standard_peripheral/Source/gd32vf103_can.c ****     }else if(CAN_TSTAT_TME1 == (CAN_TSTAT(can_periph)&CAN_TSTAT_TME1)){
 947              		.loc 1 437 11 is_stmt 1
 948              		.loc 1 437 33 is_stmt 0
 949 0010 1845     		lw	a4,8(a0)
 950              		.loc 1 437 54
GAS LISTING /tmp/ccyQOTuX.s 			page 28


 951 0012 37060008 		li	a2,134217728
 952 0016 718F     		and	a4,a4,a2
 953              		.loc 1 437 13
 954 0018 69C7     		beq	a4,zero,.L70
 438:../Firmware/GD32VF103_standard_peripheral/Source/gd32vf103_can.c ****         mailbox_number = CAN_MAILBOX1;
 439:../Firmware/GD32VF103_standard_peripheral/Source/gd32vf103_can.c ****     }else if(CAN_TSTAT_TME2 == (CAN_TSTAT(can_periph)&CAN_TSTAT_TME2)){
 440:../Firmware/GD32VF103_standard_peripheral/Source/gd32vf103_can.c ****         mailbox_number = CAN_MAILBOX2;
 441:../Firmware/GD32VF103_standard_peripheral/Source/gd32vf103_can.c ****     }else{
 442:../Firmware/GD32VF103_standard_peripheral/Source/gd32vf103_can.c ****         mailbox_number = CAN_NOMAILBOX;
 443:../Firmware/GD32VF103_standard_peripheral/Source/gd32vf103_can.c ****     }
 444:../Firmware/GD32VF103_standard_peripheral/Source/gd32vf103_can.c ****     /* return no mailbox empty */
 445:../Firmware/GD32VF103_standard_peripheral/Source/gd32vf103_can.c ****     if(CAN_NOMAILBOX == mailbox_number){
 446:../Firmware/GD32VF103_standard_peripheral/Source/gd32vf103_can.c ****         return CAN_NOMAILBOX;
 447:../Firmware/GD32VF103_standard_peripheral/Source/gd32vf103_can.c ****     }
 448:../Firmware/GD32VF103_standard_peripheral/Source/gd32vf103_can.c ****     
 449:../Firmware/GD32VF103_standard_peripheral/Source/gd32vf103_can.c ****     CAN_TMI(can_periph, mailbox_number) &= CAN_TMI_TEN;
 955              		.loc 1 449 41
 956 001a 03270519 		lw	a4,400(a0)
 957 001e 93070501 		addi	a5,a0,16
 958 0022 13880718 		addi	a6,a5,384
 959 0026 058B     		andi	a4,a4,1
 960 0028 23A0E718 		sw	a4,384(a5)
 450:../Firmware/GD32VF103_standard_peripheral/Source/gd32vf103_can.c ****     if(CAN_FF_STANDARD == transmit_message->tx_ff){
 961              		.loc 1 450 43
 962 002c 83C68500 		lbu	a3,8(a1)
 438:../Firmware/GD32VF103_standard_peripheral/Source/gd32vf103_can.c ****         mailbox_number = CAN_MAILBOX1;
 963              		.loc 1 438 24
 964 0030 0545     		li	a0,1
 965              	.LVL48:
 449:../Firmware/GD32VF103_standard_peripheral/Source/gd32vf103_can.c ****     if(CAN_FF_STANDARD == transmit_message->tx_ff){
 966              		.loc 1 449 5 is_stmt 1
 967              		.loc 1 450 5
 968              		.loc 1 450 7 is_stmt 0
 969 0032 C9CE     		beq	a3,zero,.L77
 970              	.LVL49:
 971              	.L72:
 451:../Firmware/GD32VF103_standard_peripheral/Source/gd32vf103_can.c ****         /* set transmit mailbox standard identifier */
 452:../Firmware/GD32VF103_standard_peripheral/Source/gd32vf103_can.c ****         CAN_TMI(can_periph, mailbox_number) |= (uint32_t)(TMI_SFID(transmit_message->tx_sfid) | \
 453:../Firmware/GD32VF103_standard_peripheral/Source/gd32vf103_can.c ****                                                 transmit_message->tx_ft);
 454:../Firmware/GD32VF103_standard_peripheral/Source/gd32vf103_can.c ****     }else{
 455:../Firmware/GD32VF103_standard_peripheral/Source/gd32vf103_can.c ****         /* set transmit mailbox extended identifier */
 456:../Firmware/GD32VF103_standard_peripheral/Source/gd32vf103_can.c ****         CAN_TMI(can_periph, mailbox_number) |= (uint32_t)(TMI_EFID(transmit_message->tx_efid) | \
 972              		.loc 1 456 9 is_stmt 1
 973              		.loc 1 456 59 is_stmt 0
 974 0034 D841     		lw	a4,4(a1)
 457:../Firmware/GD32VF103_standard_peripheral/Source/gd32vf103_can.c ****                                                 transmit_message->tx_ff | \
 458:../Firmware/GD32VF103_standard_peripheral/Source/gd32vf103_can.c ****                                                 transmit_message->tx_ft);
 975              		.loc 1 458 65
 976 0036 83C89500 		lbu	a7,9(a1)
 456:../Firmware/GD32VF103_standard_peripheral/Source/gd32vf103_can.c ****                                                 transmit_message->tx_ff | \
 977              		.loc 1 456 45
 978 003a 03A60718 		lw	a2,384(a5)
 456:../Firmware/GD32VF103_standard_peripheral/Source/gd32vf103_can.c ****                                                 transmit_message->tx_ff | \
 979              		.loc 1 456 59
 980 003e 0E07     		slli	a4,a4,3
 456:../Firmware/GD32VF103_standard_peripheral/Source/gd32vf103_can.c ****                                                 transmit_message->tx_ff | \
 981              		.loc 1 456 95
GAS LISTING /tmp/ccyQOTuX.s 			page 29


 982 0040 558F     		or	a4,a4,a3
 456:../Firmware/GD32VF103_standard_peripheral/Source/gd32vf103_can.c ****                                                 transmit_message->tx_ff | \
 983              		.loc 1 456 48
 984 0042 33671701 		or	a4,a4,a7
 456:../Firmware/GD32VF103_standard_peripheral/Source/gd32vf103_can.c ****                                                 transmit_message->tx_ff | \
 985              		.loc 1 456 45
 986 0046 518F     		or	a4,a4,a2
 987 0048 23A0E718 		sw	a4,384(a5)
 988              	.L73:
 459:../Firmware/GD32VF103_standard_peripheral/Source/gd32vf103_can.c ****     }
 460:../Firmware/GD32VF103_standard_peripheral/Source/gd32vf103_can.c ****     /* set the data length */
 461:../Firmware/GD32VF103_standard_peripheral/Source/gd32vf103_can.c ****     CAN_TMP(can_periph, mailbox_number) &= ~CAN_TMP_DLENC;
 989              		.loc 1 461 5 is_stmt 1
 990              		.loc 1 461 41 is_stmt 0
 991 004c 03A74718 		lw	a4,388(a5)
 992 0050 419B     		andi	a4,a4,-16
 993 0052 23A2E718 		sw	a4,388(a5)
 462:../Firmware/GD32VF103_standard_peripheral/Source/gd32vf103_can.c ****     CAN_TMP(can_periph, mailbox_number) |= transmit_message->tx_dlen;
 994              		.loc 1 462 5 is_stmt 1
 995              		.loc 1 462 41 is_stmt 0
 996 0056 83A64718 		lw	a3,388(a5)
 997              		.loc 1 462 60
 998 005a 03C7A500 		lbu	a4,10(a1)
 999              		.loc 1 462 41
 1000 005e 558F     		or	a4,a4,a3
 1001 0060 23A2E718 		sw	a4,388(a5)
 463:../Firmware/GD32VF103_standard_peripheral/Source/gd32vf103_can.c ****     /* set the data */
 464:../Firmware/GD32VF103_standard_peripheral/Source/gd32vf103_can.c ****     CAN_TMDATA0(can_periph, mailbox_number) = TMDATA0_DB3(transmit_message->tx_data[3]) | \
 1002              		.loc 1 464 5 is_stmt 1
 465:../Firmware/GD32VF103_standard_peripheral/Source/gd32vf103_can.c ****                                               TMDATA0_DB2(transmit_message->tx_data[2]) | \
 466:../Firmware/GD32VF103_standard_peripheral/Source/gd32vf103_can.c ****                                               TMDATA0_DB1(transmit_message->tx_data[1]) | \
 1003              		.loc 1 466 89 is_stmt 0
 1004 0064 03C6C500 		lbu	a2,12(a1)
 1005 0068 83C8B500 		lbu	a7,11(a1)
 1006 006c 83C6D500 		lbu	a3,13(a1)
 1007 0070 03C7E500 		lbu	a4,14(a1)
 1008 0074 2206     		slli	a2,a2,8
 1009 0076 33661601 		or	a2,a2,a7
 1010 007a C206     		slli	a3,a3,16
 1011 007c D18E     		or	a3,a3,a2
 1012 007e 6207     		slli	a4,a4,24
 1013 0080 558F     		or	a4,a4,a3
 464:../Firmware/GD32VF103_standard_peripheral/Source/gd32vf103_can.c ****                                               TMDATA0_DB2(transmit_message->tx_data[2]) | \
 1014              		.loc 1 464 45
 1015 0082 23A4E718 		sw	a4,392(a5)
 467:../Firmware/GD32VF103_standard_peripheral/Source/gd32vf103_can.c ****                                               TMDATA0_DB0(transmit_message->tx_data[0]);
 468:../Firmware/GD32VF103_standard_peripheral/Source/gd32vf103_can.c ****     CAN_TMDATA1(can_periph, mailbox_number) = TMDATA1_DB7(transmit_message->tx_data[7]) | \
 1016              		.loc 1 468 5 is_stmt 1
 469:../Firmware/GD32VF103_standard_peripheral/Source/gd32vf103_can.c ****                                               TMDATA1_DB6(transmit_message->tx_data[6]) | \
 470:../Firmware/GD32VF103_standard_peripheral/Source/gd32vf103_can.c ****                                               TMDATA1_DB5(transmit_message->tx_data[5]) | \
 1017              		.loc 1 470 89 is_stmt 0
 1018 0086 03C60501 		lbu	a2,16(a1)
 1019 008a 83C8F500 		lbu	a7,15(a1)
 1020 008e 83C61501 		lbu	a3,17(a1)
 1021 0092 03C72501 		lbu	a4,18(a1)
 1022 0096 2206     		slli	a2,a2,8
 1023 0098 33661601 		or	a2,a2,a7
GAS LISTING /tmp/ccyQOTuX.s 			page 30


 1024 009c C206     		slli	a3,a3,16
 1025 009e D18E     		or	a3,a3,a2
 1026 00a0 6207     		slli	a4,a4,24
 1027 00a2 558F     		or	a4,a4,a3
 468:../Firmware/GD32VF103_standard_peripheral/Source/gd32vf103_can.c ****                                               TMDATA1_DB6(transmit_message->tx_data[6]) | \
 1028              		.loc 1 468 45
 1029 00a4 23A6E718 		sw	a4,396(a5)
 471:../Firmware/GD32VF103_standard_peripheral/Source/gd32vf103_can.c ****                                               TMDATA1_DB4(transmit_message->tx_data[4]);
 472:../Firmware/GD32VF103_standard_peripheral/Source/gd32vf103_can.c ****     /* enable transmission */
 473:../Firmware/GD32VF103_standard_peripheral/Source/gd32vf103_can.c ****     CAN_TMI(can_periph, mailbox_number) |= CAN_TMI_TEN;
 1030              		.loc 1 473 5 is_stmt 1
 1031              		.loc 1 473 41 is_stmt 0
 1032 00a8 83270800 		lw	a5,0(a6)
 1033 00ac 93E71700 		ori	a5,a5,1
 1034 00b0 2320F800 		sw	a5,0(a6)
 474:../Firmware/GD32VF103_standard_peripheral/Source/gd32vf103_can.c **** 
 475:../Firmware/GD32VF103_standard_peripheral/Source/gd32vf103_can.c ****     return mailbox_number;
 1035              		.loc 1 475 5 is_stmt 1
 1036              	.L71:
 476:../Firmware/GD32VF103_standard_peripheral/Source/gd32vf103_can.c **** }
 1037              		.loc 1 476 1 is_stmt 0
 1038 00b4 8280     		ret
 1039              	.LVL50:
 1040              	.L74:
 436:../Firmware/GD32VF103_standard_peripheral/Source/gd32vf103_can.c ****     }else if(CAN_TSTAT_TME1 == (CAN_TSTAT(can_periph)&CAN_TSTAT_TME1)){
 1041              		.loc 1 436 24
 1042 00b6 0145     		li	a0,0
 1043              	.LVL51:
 1044              	.L69:
 449:../Firmware/GD32VF103_standard_peripheral/Source/gd32vf103_can.c ****     if(CAN_FF_STANDARD == transmit_message->tx_ff){
 1045              		.loc 1 449 5 is_stmt 1
 449:../Firmware/GD32VF103_standard_peripheral/Source/gd32vf103_can.c ****     if(CAN_FF_STANDARD == transmit_message->tx_ff){
 1046              		.loc 1 449 41 is_stmt 0
 1047 00b8 03A70718 		lw	a4,384(a5)
 1048 00bc 13880718 		addi	a6,a5,384
 1049 00c0 058B     		andi	a4,a4,1
 1050 00c2 23A0E718 		sw	a4,384(a5)
 450:../Firmware/GD32VF103_standard_peripheral/Source/gd32vf103_can.c ****         /* set transmit mailbox standard identifier */
 1051              		.loc 1 450 5 is_stmt 1
 450:../Firmware/GD32VF103_standard_peripheral/Source/gd32vf103_can.c ****         /* set transmit mailbox standard identifier */
 1052              		.loc 1 450 43 is_stmt 0
 1053 00c6 83C68500 		lbu	a3,8(a1)
 450:../Firmware/GD32VF103_standard_peripheral/Source/gd32vf103_can.c ****         /* set transmit mailbox standard identifier */
 1054              		.loc 1 450 7
 1055 00ca ADF6     		bne	a3,zero,.L72
 1056              	.L77:
 452:../Firmware/GD32VF103_standard_peripheral/Source/gd32vf103_can.c ****                                                 transmit_message->tx_ft);
 1057              		.loc 1 452 9 is_stmt 1
 452:../Firmware/GD32VF103_standard_peripheral/Source/gd32vf103_can.c ****                                                 transmit_message->tx_ft);
 1058              		.loc 1 452 59 is_stmt 0
 1059 00cc 9841     		lw	a4,0(a1)
 453:../Firmware/GD32VF103_standard_peripheral/Source/gd32vf103_can.c ****     }else{
 1060              		.loc 1 453 65
 1061 00ce 03C69500 		lbu	a2,9(a1)
 452:../Firmware/GD32VF103_standard_peripheral/Source/gd32vf103_can.c ****                                                 transmit_message->tx_ft);
 1062              		.loc 1 452 45
 1063 00d2 83A60718 		lw	a3,384(a5)
GAS LISTING /tmp/ccyQOTuX.s 			page 31


 452:../Firmware/GD32VF103_standard_peripheral/Source/gd32vf103_can.c ****                                                 transmit_message->tx_ft);
 1064              		.loc 1 452 59
 1065 00d6 5607     		slli	a4,a4,21
 452:../Firmware/GD32VF103_standard_peripheral/Source/gd32vf103_can.c ****                                                 transmit_message->tx_ft);
 1066              		.loc 1 452 48
 1067 00d8 518F     		or	a4,a4,a2
 452:../Firmware/GD32VF103_standard_peripheral/Source/gd32vf103_can.c ****                                                 transmit_message->tx_ft);
 1068              		.loc 1 452 45
 1069 00da 558F     		or	a4,a4,a3
 1070 00dc 23A0E718 		sw	a4,384(a5)
 1071 00e0 B5B7     		j	.L73
 1072              	.LVL52:
 1073              	.L70:
 439:../Firmware/GD32VF103_standard_peripheral/Source/gd32vf103_can.c ****         mailbox_number = CAN_MAILBOX2;
 1074              		.loc 1 439 11 is_stmt 1
 439:../Firmware/GD32VF103_standard_peripheral/Source/gd32vf103_can.c ****         mailbox_number = CAN_MAILBOX2;
 1075              		.loc 1 439 33 is_stmt 0
 1076 00e2 9842     		lw	a4,0(a3)
 439:../Firmware/GD32VF103_standard_peripheral/Source/gd32vf103_can.c ****         mailbox_number = CAN_MAILBOX2;
 1077              		.loc 1 439 54
 1078 00e4 B7060010 		li	a3,268435456
 446:../Firmware/GD32VF103_standard_peripheral/Source/gd32vf103_can.c ****     }
 1079              		.loc 1 446 16
 1080 00e8 0D45     		li	a0,3
 1081              	.LVL53:
 439:../Firmware/GD32VF103_standard_peripheral/Source/gd32vf103_can.c ****         mailbox_number = CAN_MAILBOX2;
 1082              		.loc 1 439 54
 1083 00ea 758F     		and	a4,a4,a3
 439:../Firmware/GD32VF103_standard_peripheral/Source/gd32vf103_can.c ****         mailbox_number = CAN_MAILBOX2;
 1084              		.loc 1 439 13
 1085 00ec 61D7     		beq	a4,zero,.L71
 449:../Firmware/GD32VF103_standard_peripheral/Source/gd32vf103_can.c ****     if(CAN_FF_STANDARD == transmit_message->tx_ff){
 1086              		.loc 1 449 41
 1087 00ee 93870702 		addi	a5,a5,32
 1088              	.LVL54:
 440:../Firmware/GD32VF103_standard_peripheral/Source/gd32vf103_can.c ****     }else{
 1089              		.loc 1 440 24
 1090 00f2 0945     		li	a0,2
 1091 00f4 D1B7     		j	.L69
 1092              		.cfi_endproc
 1093              	.LFE11:
 1095              		.section	.text.can_transmit_states,"ax",@progbits
 1096              		.align	1
 1097              		.globl	can_transmit_states
 1099              	can_transmit_states:
 1100              	.LFB12:
 477:../Firmware/GD32VF103_standard_peripheral/Source/gd32vf103_can.c **** 
 478:../Firmware/GD32VF103_standard_peripheral/Source/gd32vf103_can.c **** /*!
 479:../Firmware/GD32VF103_standard_peripheral/Source/gd32vf103_can.c ****     \brief      get CAN transmit state 
 480:../Firmware/GD32VF103_standard_peripheral/Source/gd32vf103_can.c ****     \param[in]  can_periph
 481:../Firmware/GD32VF103_standard_peripheral/Source/gd32vf103_can.c ****       \arg        CANx(x=0,1)
 482:../Firmware/GD32VF103_standard_peripheral/Source/gd32vf103_can.c ****     \param[in]  mailbox_number
 483:../Firmware/GD32VF103_standard_peripheral/Source/gd32vf103_can.c ****                 only one parameter can be selected which is shown as below:
 484:../Firmware/GD32VF103_standard_peripheral/Source/gd32vf103_can.c ****       \arg        CAN_MAILBOX(x=0,1,2)
 485:../Firmware/GD32VF103_standard_peripheral/Source/gd32vf103_can.c ****     \param[out] none
 486:../Firmware/GD32VF103_standard_peripheral/Source/gd32vf103_can.c ****     \retval     can_transmit_state_enum
 487:../Firmware/GD32VF103_standard_peripheral/Source/gd32vf103_can.c **** */
GAS LISTING /tmp/ccyQOTuX.s 			page 32


 488:../Firmware/GD32VF103_standard_peripheral/Source/gd32vf103_can.c **** can_transmit_state_enum can_transmit_states(uint32_t can_periph, uint8_t mailbox_number)
 489:../Firmware/GD32VF103_standard_peripheral/Source/gd32vf103_can.c **** {
 1101              		.loc 1 489 1 is_stmt 1
 1102              		.cfi_startproc
 1103              	.LVL55:
 490:../Firmware/GD32VF103_standard_peripheral/Source/gd32vf103_can.c ****     can_transmit_state_enum state = CAN_TRANSMIT_FAILED;
 1104              		.loc 1 490 5
 491:../Firmware/GD32VF103_standard_peripheral/Source/gd32vf103_can.c ****     uint32_t val = 0U;
 1105              		.loc 1 491 5
 492:../Firmware/GD32VF103_standard_peripheral/Source/gd32vf103_can.c ****     
 493:../Firmware/GD32VF103_standard_peripheral/Source/gd32vf103_can.c ****     /* check selected mailbox state */    
 494:../Firmware/GD32VF103_standard_peripheral/Source/gd32vf103_can.c ****     switch(mailbox_number){
 1106              		.loc 1 494 5
 1107 0000 0547     		li	a4,1
 489:../Firmware/GD32VF103_standard_peripheral/Source/gd32vf103_can.c ****     can_transmit_state_enum state = CAN_TRANSMIT_FAILED;
 1108              		.loc 1 489 1 is_stmt 0
 1109 0002 AA87     		mv	a5,a0
 1110              		.loc 1 494 5
 1111 0004 6385E504 		beq	a1,a4,.L79
 1112 0008 0947     		li	a4,2
 1113 000a 6383E502 		beq	a1,a4,.L80
 1114 000e 0945     		li	a0,2
 1115              	.LVL56:
 1116 0010 91C1     		beq	a1,zero,.L90
 1117              	.LVL57:
 1118              	.L78:
 495:../Firmware/GD32VF103_standard_peripheral/Source/gd32vf103_can.c ****     /* mailbox0 */
 496:../Firmware/GD32VF103_standard_peripheral/Source/gd32vf103_can.c ****     case CAN_MAILBOX0:
 497:../Firmware/GD32VF103_standard_peripheral/Source/gd32vf103_can.c ****         val = CAN_TSTAT(can_periph) & (CAN_TSTAT_MTF0 | CAN_TSTAT_MTFNERR0 | CAN_TSTAT_TME0);
 498:../Firmware/GD32VF103_standard_peripheral/Source/gd32vf103_can.c ****         break;
 499:../Firmware/GD32VF103_standard_peripheral/Source/gd32vf103_can.c ****     /* mailbox1 */
 500:../Firmware/GD32VF103_standard_peripheral/Source/gd32vf103_can.c ****     case CAN_MAILBOX1:
 501:../Firmware/GD32VF103_standard_peripheral/Source/gd32vf103_can.c ****         val = CAN_TSTAT(can_periph) & (CAN_TSTAT_MTF1 | CAN_TSTAT_MTFNERR1 | CAN_TSTAT_TME1);
 502:../Firmware/GD32VF103_standard_peripheral/Source/gd32vf103_can.c ****         break;
 503:../Firmware/GD32VF103_standard_peripheral/Source/gd32vf103_can.c ****     /* mailbox2 */
 504:../Firmware/GD32VF103_standard_peripheral/Source/gd32vf103_can.c ****     case CAN_MAILBOX2:
 505:../Firmware/GD32VF103_standard_peripheral/Source/gd32vf103_can.c ****         val = CAN_TSTAT(can_periph) & (CAN_TSTAT_MTF2 | CAN_TSTAT_MTFNERR2 | CAN_TSTAT_TME2);
 506:../Firmware/GD32VF103_standard_peripheral/Source/gd32vf103_can.c ****         break;
 507:../Firmware/GD32VF103_standard_peripheral/Source/gd32vf103_can.c ****     default:
 508:../Firmware/GD32VF103_standard_peripheral/Source/gd32vf103_can.c ****         val = CAN_TRANSMIT_FAILED;
 509:../Firmware/GD32VF103_standard_peripheral/Source/gd32vf103_can.c ****         break;
 510:../Firmware/GD32VF103_standard_peripheral/Source/gd32vf103_can.c ****     }
 511:../Firmware/GD32VF103_standard_peripheral/Source/gd32vf103_can.c ****     
 512:../Firmware/GD32VF103_standard_peripheral/Source/gd32vf103_can.c ****     switch(val){
 513:../Firmware/GD32VF103_standard_peripheral/Source/gd32vf103_can.c ****         /* transmit pending */
 514:../Firmware/GD32VF103_standard_peripheral/Source/gd32vf103_can.c ****     case (CAN_STATE_PENDING): 
 515:../Firmware/GD32VF103_standard_peripheral/Source/gd32vf103_can.c ****         state = CAN_TRANSMIT_PENDING;
 516:../Firmware/GD32VF103_standard_peripheral/Source/gd32vf103_can.c ****         break;
 517:../Firmware/GD32VF103_standard_peripheral/Source/gd32vf103_can.c ****         /* mailbox0 transmit succeeded */
 518:../Firmware/GD32VF103_standard_peripheral/Source/gd32vf103_can.c ****     case (CAN_TSTAT_MTF0 | CAN_TSTAT_MTFNERR0 | CAN_TSTAT_TME0):
 519:../Firmware/GD32VF103_standard_peripheral/Source/gd32vf103_can.c ****         state = CAN_TRANSMIT_OK;
 520:../Firmware/GD32VF103_standard_peripheral/Source/gd32vf103_can.c ****         break;
 521:../Firmware/GD32VF103_standard_peripheral/Source/gd32vf103_can.c ****         /* mailbox1 transmit succeeded */
 522:../Firmware/GD32VF103_standard_peripheral/Source/gd32vf103_can.c ****     case (CAN_TSTAT_MTF1 | CAN_TSTAT_MTFNERR1 | CAN_TSTAT_TME1):
 523:../Firmware/GD32VF103_standard_peripheral/Source/gd32vf103_can.c ****         state = CAN_TRANSMIT_OK;
 524:../Firmware/GD32VF103_standard_peripheral/Source/gd32vf103_can.c ****         break;
 525:../Firmware/GD32VF103_standard_peripheral/Source/gd32vf103_can.c ****         /* mailbox2 transmit succeeded */
GAS LISTING /tmp/ccyQOTuX.s 			page 33


 526:../Firmware/GD32VF103_standard_peripheral/Source/gd32vf103_can.c ****     case (CAN_TSTAT_MTF2 | CAN_TSTAT_MTFNERR2 | CAN_TSTAT_TME2):
 527:../Firmware/GD32VF103_standard_peripheral/Source/gd32vf103_can.c ****         state = CAN_TRANSMIT_OK;
 528:../Firmware/GD32VF103_standard_peripheral/Source/gd32vf103_can.c ****         break;
 529:../Firmware/GD32VF103_standard_peripheral/Source/gd32vf103_can.c ****         /* transmit failed */
 530:../Firmware/GD32VF103_standard_peripheral/Source/gd32vf103_can.c ****     default: 
 531:../Firmware/GD32VF103_standard_peripheral/Source/gd32vf103_can.c ****         state = CAN_TRANSMIT_FAILED;
 532:../Firmware/GD32VF103_standard_peripheral/Source/gd32vf103_can.c ****         break;
 533:../Firmware/GD32VF103_standard_peripheral/Source/gd32vf103_can.c ****     }
 534:../Firmware/GD32VF103_standard_peripheral/Source/gd32vf103_can.c ****     return state;
 535:../Firmware/GD32VF103_standard_peripheral/Source/gd32vf103_can.c **** }
 1119              		.loc 1 535 1
 1120 0012 8280     		ret
 1121              	.LVL58:
 1122              	.L90:
 497:../Firmware/GD32VF103_standard_peripheral/Source/gd32vf103_can.c ****         break;
 1123              		.loc 1 497 9 is_stmt 1
 497:../Firmware/GD32VF103_standard_peripheral/Source/gd32vf103_can.c ****         break;
 1124              		.loc 1 497 15 is_stmt 0
 1125 0014 9C47     		lw	a5,8(a5)
 1126              	.LVL59:
 497:../Firmware/GD32VF103_standard_peripheral/Source/gd32vf103_can.c ****         break;
 1127              		.loc 1 497 13
 1128 0016 37070004 		li	a4,67108864
 1129 001a 0D07     		addi	a4,a4,3
 1130 001c F98F     		and	a5,a5,a4
 1131              	.LVL60:
 498:../Firmware/GD32VF103_standard_peripheral/Source/gd32vf103_can.c ****     /* mailbox1 */
 1132              		.loc 1 498 9 is_stmt 1
 512:../Firmware/GD32VF103_standard_peripheral/Source/gd32vf103_can.c ****         /* transmit pending */
 1133              		.loc 1 512 5
 1134              	.L82:
 515:../Firmware/GD32VF103_standard_peripheral/Source/gd32vf103_can.c ****         break;
 1135              		.loc 1 515 15 is_stmt 0
 1136 001e 0945     		li	a0,2
 512:../Firmware/GD32VF103_standard_peripheral/Source/gd32vf103_can.c ****         /* transmit pending */
 1137              		.loc 1 512 5
 1138 0020 EDDB     		beq	a5,zero,.L78
 1139 0022 370500FC 		li	a0,-67108864
 1140 0026 7515     		addi	a0,a0,-3
 1141 0028 AA97     		add	a5,a5,a0
 1142              	.LVL61:
 1143 002a 13B51700 		seqz	a0,a5
 1144              		.loc 1 535 1
 1145 002e 8280     		ret
 1146              	.LVL62:
 1147              	.L80:
 505:../Firmware/GD32VF103_standard_peripheral/Source/gd32vf103_can.c ****         break;
 1148              		.loc 1 505 9 is_stmt 1
 505:../Firmware/GD32VF103_standard_peripheral/Source/gd32vf103_can.c ****         break;
 1149              		.loc 1 505 15 is_stmt 0
 1150 0030 1C45     		lw	a5,8(a0)
 505:../Firmware/GD32VF103_standard_peripheral/Source/gd32vf103_can.c ****         break;
 1151              		.loc 1 505 13
 1152 0032 37050310 		li	a0,268632064
 1153              	.LVL63:
 512:../Firmware/GD32VF103_standard_peripheral/Source/gd32vf103_can.c ****         /* transmit pending */
 1154              		.loc 1 512 5
GAS LISTING /tmp/ccyQOTuX.s 			page 34


 1155 0036 37070008 		li	a4,134217728
 505:../Firmware/GD32VF103_standard_peripheral/Source/gd32vf103_can.c ****         break;
 1156              		.loc 1 505 13
 1157 003a E98F     		and	a5,a5,a0
 1158              	.LVL64:
 506:../Firmware/GD32VF103_standard_peripheral/Source/gd32vf103_can.c ****     default:
 1159              		.loc 1 506 9 is_stmt 1
 512:../Firmware/GD32VF103_standard_peripheral/Source/gd32vf103_can.c ****         /* transmit pending */
 1160              		.loc 1 512 5
 1161 003c 3385A740 		sub	a0,a5,a0
 1162 0040 13070730 		addi	a4,a4,768
 1163 0044 13351500 		seqz	a0,a0
 1164 0048 E37BF7FC 		bleu	a5,a4,.L82
 1165              		.loc 1 535 1 is_stmt 0
 1166 004c 8280     		ret
 1167              	.LVL65:
 1168              	.L79:
 501:../Firmware/GD32VF103_standard_peripheral/Source/gd32vf103_can.c ****         break;
 1169              		.loc 1 501 9 is_stmt 1
 501:../Firmware/GD32VF103_standard_peripheral/Source/gd32vf103_can.c ****         break;
 1170              		.loc 1 501 15 is_stmt 0
 1171 004e 1C45     		lw	a5,8(a0)
 501:../Firmware/GD32VF103_standard_peripheral/Source/gd32vf103_can.c ****         break;
 1172              		.loc 1 501 13
 1173 0050 37070008 		li	a4,134217728
 1174 0054 13070730 		addi	a4,a4,768
 1175 0058 F98F     		and	a5,a5,a4
 1176              	.LVL66:
 502:../Firmware/GD32VF103_standard_peripheral/Source/gd32vf103_can.c ****     /* mailbox2 */
 1177              		.loc 1 502 9 is_stmt 1
 512:../Firmware/GD32VF103_standard_peripheral/Source/gd32vf103_can.c ****         /* transmit pending */
 1178              		.loc 1 512 5
 1179 005a 0545     		li	a0,1
 1180              	.LVL67:
 1181 005c E391E7FC 		bne	a5,a4,.L82
 1182              		.loc 1 535 1 is_stmt 0
 1183 0060 8280     		ret
 1184              		.cfi_endproc
 1185              	.LFE12:
 1187              		.section	.text.can_transmission_stop,"ax",@progbits
 1188              		.align	1
 1189              		.globl	can_transmission_stop
 1191              	can_transmission_stop:
 1192              	.LFB13:
 536:../Firmware/GD32VF103_standard_peripheral/Source/gd32vf103_can.c **** 
 537:../Firmware/GD32VF103_standard_peripheral/Source/gd32vf103_can.c **** /*!
 538:../Firmware/GD32VF103_standard_peripheral/Source/gd32vf103_can.c ****     \brief      stop CAN transmission
 539:../Firmware/GD32VF103_standard_peripheral/Source/gd32vf103_can.c ****     \param[in]  can_periph
 540:../Firmware/GD32VF103_standard_peripheral/Source/gd32vf103_can.c ****       \arg        CANx(x=0,1)
 541:../Firmware/GD32VF103_standard_peripheral/Source/gd32vf103_can.c ****     \param[in]  mailbox_number
 542:../Firmware/GD32VF103_standard_peripheral/Source/gd32vf103_can.c ****                 only one parameter can be selected which is shown as below:
 543:../Firmware/GD32VF103_standard_peripheral/Source/gd32vf103_can.c ****       \arg        CAN_MAILBOXx(x=0,1,2)
 544:../Firmware/GD32VF103_standard_peripheral/Source/gd32vf103_can.c ****     \param[out] none
 545:../Firmware/GD32VF103_standard_peripheral/Source/gd32vf103_can.c ****     \retval     none
 546:../Firmware/GD32VF103_standard_peripheral/Source/gd32vf103_can.c **** */
 547:../Firmware/GD32VF103_standard_peripheral/Source/gd32vf103_can.c **** void can_transmission_stop(uint32_t can_periph, uint8_t mailbox_number)
 548:../Firmware/GD32VF103_standard_peripheral/Source/gd32vf103_can.c **** {
GAS LISTING /tmp/ccyQOTuX.s 			page 35


 1193              		.loc 1 548 1 is_stmt 1
 1194              		.cfi_startproc
 1195              	.LVL68:
 549:../Firmware/GD32VF103_standard_peripheral/Source/gd32vf103_can.c ****     if(CAN_MAILBOX0 == mailbox_number){
 1196              		.loc 1 549 5
 1197              		.loc 1 549 7 is_stmt 0
 1198 0000 81ED     		bne	a1,zero,.L92
 550:../Firmware/GD32VF103_standard_peripheral/Source/gd32vf103_can.c ****         CAN_TSTAT(can_periph) |= CAN_TSTAT_MST0;
 1199              		.loc 1 550 9 is_stmt 1
 1200              		.loc 1 550 31 is_stmt 0
 1201 0002 1C45     		lw	a5,8(a0)
 1202 0004 13078500 		addi	a4,a0,8
 1203 0008 93E70708 		ori	a5,a5,128
 1204 000c 1CC5     		sw	a5,8(a0)
 551:../Firmware/GD32VF103_standard_peripheral/Source/gd32vf103_can.c ****         while(CAN_TSTAT_MST0 == (CAN_TSTAT(can_periph) & CAN_TSTAT_MST0)){
 1205              		.loc 1 551 9 is_stmt 1
 1206              	.L93:
 552:../Firmware/GD32VF103_standard_peripheral/Source/gd32vf103_can.c ****         }
 1207              		.loc 1 552 9 discriminator 1
 551:../Firmware/GD32VF103_standard_peripheral/Source/gd32vf103_can.c ****         while(CAN_TSTAT_MST0 == (CAN_TSTAT(can_periph) & CAN_TSTAT_MST0)){
 1208              		.loc 1 551 14 discriminator 1
 551:../Firmware/GD32VF103_standard_peripheral/Source/gd32vf103_can.c ****         while(CAN_TSTAT_MST0 == (CAN_TSTAT(can_periph) & CAN_TSTAT_MST0)){
 1209              		.loc 1 551 34 is_stmt 0 discriminator 1
 1210 000e 1C43     		lw	a5,0(a4)
 551:../Firmware/GD32VF103_standard_peripheral/Source/gd32vf103_can.c ****         while(CAN_TSTAT_MST0 == (CAN_TSTAT(can_periph) & CAN_TSTAT_MST0)){
 1211              		.loc 1 551 56 discriminator 1
 1212 0010 93F70708 		andi	a5,a5,128
 551:../Firmware/GD32VF103_standard_peripheral/Source/gd32vf103_can.c ****         while(CAN_TSTAT_MST0 == (CAN_TSTAT(can_periph) & CAN_TSTAT_MST0)){
 1213              		.loc 1 551 14 discriminator 1
 1214 0014 EDFF     		bne	a5,zero,.L93
 1215 0016 8280     		ret
 1216              	.L92:
 553:../Firmware/GD32VF103_standard_peripheral/Source/gd32vf103_can.c ****     }else if(CAN_MAILBOX1 == mailbox_number){
 1217              		.loc 1 553 11 is_stmt 1
 1218              		.loc 1 553 13 is_stmt 0
 1219 0018 8547     		li	a5,1
 1220 001a 6386F500 		beq	a1,a5,.L101
 554:../Firmware/GD32VF103_standard_peripheral/Source/gd32vf103_can.c ****         CAN_TSTAT(can_periph) |= CAN_TSTAT_MST1;
 555:../Firmware/GD32VF103_standard_peripheral/Source/gd32vf103_can.c ****         while(CAN_TSTAT_MST1 == (CAN_TSTAT(can_periph) & CAN_TSTAT_MST1)){
 556:../Firmware/GD32VF103_standard_peripheral/Source/gd32vf103_can.c ****         }
 557:../Firmware/GD32VF103_standard_peripheral/Source/gd32vf103_can.c ****     }else if(CAN_MAILBOX2 == mailbox_number){
 1221              		.loc 1 557 11 is_stmt 1
 1222              		.loc 1 557 13 is_stmt 0
 1223 001e 8947     		li	a5,2
 1224 0020 638DF500 		beq	a1,a5,.L102
 558:../Firmware/GD32VF103_standard_peripheral/Source/gd32vf103_can.c ****         CAN_TSTAT(can_periph) |= CAN_TSTAT_MST2;
 559:../Firmware/GD32VF103_standard_peripheral/Source/gd32vf103_can.c ****         while(CAN_TSTAT_MST2 == (CAN_TSTAT(can_periph) & CAN_TSTAT_MST2)){
 560:../Firmware/GD32VF103_standard_peripheral/Source/gd32vf103_can.c ****         }
 561:../Firmware/GD32VF103_standard_peripheral/Source/gd32vf103_can.c ****     }else{
 562:../Firmware/GD32VF103_standard_peripheral/Source/gd32vf103_can.c ****         /* illegal parameters */
 563:../Firmware/GD32VF103_standard_peripheral/Source/gd32vf103_can.c ****     }
 564:../Firmware/GD32VF103_standard_peripheral/Source/gd32vf103_can.c **** }
 1225              		.loc 1 564 1
 1226 0024 8280     		ret
 1227              	.L101:
 554:../Firmware/GD32VF103_standard_peripheral/Source/gd32vf103_can.c ****         CAN_TSTAT(can_periph) |= CAN_TSTAT_MST1;
 1228              		.loc 1 554 9 is_stmt 1
GAS LISTING /tmp/ccyQOTuX.s 			page 36


 554:../Firmware/GD32VF103_standard_peripheral/Source/gd32vf103_can.c ****         CAN_TSTAT(can_periph) |= CAN_TSTAT_MST1;
 1229              		.loc 1 554 31 is_stmt 0
 1230 0026 1C45     		lw	a5,8(a0)
 1231 0028 2167     		li	a4,32768
 1232 002a 93068500 		addi	a3,a0,8
 1233 002e D98F     		or	a5,a5,a4
 1234 0030 1CC5     		sw	a5,8(a0)
 555:../Firmware/GD32VF103_standard_peripheral/Source/gd32vf103_can.c ****         }
 1235              		.loc 1 555 9 is_stmt 1
 1236              	.L96:
 556:../Firmware/GD32VF103_standard_peripheral/Source/gd32vf103_can.c ****     }else if(CAN_MAILBOX2 == mailbox_number){
 1237              		.loc 1 556 9 discriminator 1
 555:../Firmware/GD32VF103_standard_peripheral/Source/gd32vf103_can.c ****         }
 1238              		.loc 1 555 14 discriminator 1
 555:../Firmware/GD32VF103_standard_peripheral/Source/gd32vf103_can.c ****         }
 1239              		.loc 1 555 34 is_stmt 0 discriminator 1
 1240 0032 9C42     		lw	a5,0(a3)
 555:../Firmware/GD32VF103_standard_peripheral/Source/gd32vf103_can.c ****         }
 1241              		.loc 1 555 56 discriminator 1
 1242 0034 F98F     		and	a5,a5,a4
 555:../Firmware/GD32VF103_standard_peripheral/Source/gd32vf103_can.c ****         }
 1243              		.loc 1 555 14 discriminator 1
 1244 0036 F5FF     		bne	a5,zero,.L96
 1245 0038 8280     		ret
 1246              	.L102:
 558:../Firmware/GD32VF103_standard_peripheral/Source/gd32vf103_can.c ****         CAN_TSTAT(can_periph) |= CAN_TSTAT_MST2;
 1247              		.loc 1 558 9 is_stmt 1
 558:../Firmware/GD32VF103_standard_peripheral/Source/gd32vf103_can.c ****         CAN_TSTAT(can_periph) |= CAN_TSTAT_MST2;
 1248              		.loc 1 558 31 is_stmt 0
 1249 003a 1C45     		lw	a5,8(a0)
 1250 003c 37078000 		li	a4,8388608
 1251 0040 93068500 		addi	a3,a0,8
 1252 0044 D98F     		or	a5,a5,a4
 1253 0046 1CC5     		sw	a5,8(a0)
 559:../Firmware/GD32VF103_standard_peripheral/Source/gd32vf103_can.c ****         }
 1254              		.loc 1 559 9 is_stmt 1
 1255              	.L97:
 560:../Firmware/GD32VF103_standard_peripheral/Source/gd32vf103_can.c ****     }else{
 1256              		.loc 1 560 9 discriminator 1
 559:../Firmware/GD32VF103_standard_peripheral/Source/gd32vf103_can.c ****         }
 1257              		.loc 1 559 14 discriminator 1
 559:../Firmware/GD32VF103_standard_peripheral/Source/gd32vf103_can.c ****         }
 1258              		.loc 1 559 34 is_stmt 0 discriminator 1
 1259 0048 9C42     		lw	a5,0(a3)
 559:../Firmware/GD32VF103_standard_peripheral/Source/gd32vf103_can.c ****         }
 1260              		.loc 1 559 56 discriminator 1
 1261 004a F98F     		and	a5,a5,a4
 559:../Firmware/GD32VF103_standard_peripheral/Source/gd32vf103_can.c ****         }
 1262              		.loc 1 559 14 discriminator 1
 1263 004c F5FF     		bne	a5,zero,.L97
 1264              		.loc 1 564 1
 1265 004e 8280     		ret
 1266              		.cfi_endproc
 1267              	.LFE13:
 1269              		.section	.text.can_message_receive,"ax",@progbits
 1270              		.align	1
 1271              		.globl	can_message_receive
GAS LISTING /tmp/ccyQOTuX.s 			page 37


 1273              	can_message_receive:
 1274              	.LFB14:
 565:../Firmware/GD32VF103_standard_peripheral/Source/gd32vf103_can.c **** 
 566:../Firmware/GD32VF103_standard_peripheral/Source/gd32vf103_can.c **** /*!
 567:../Firmware/GD32VF103_standard_peripheral/Source/gd32vf103_can.c ****     \brief      CAN receive message
 568:../Firmware/GD32VF103_standard_peripheral/Source/gd32vf103_can.c ****     \param[in]  can_periph
 569:../Firmware/GD32VF103_standard_peripheral/Source/gd32vf103_can.c ****       \arg        CANx(x=0,1)
 570:../Firmware/GD32VF103_standard_peripheral/Source/gd32vf103_can.c ****     \param[in]  fifo_number
 571:../Firmware/GD32VF103_standard_peripheral/Source/gd32vf103_can.c ****       \arg        CAN_FIFOx(x=0,1)
 572:../Firmware/GD32VF103_standard_peripheral/Source/gd32vf103_can.c ****     \param[out] receive_message: struct for CAN receive message
 573:../Firmware/GD32VF103_standard_peripheral/Source/gd32vf103_can.c ****       \arg        rx_sfid: 0x00000000 - 0x000007FF
 574:../Firmware/GD32VF103_standard_peripheral/Source/gd32vf103_can.c ****       \arg        rx_efid: 0x00000000 - 0x1FFFFFFF
 575:../Firmware/GD32VF103_standard_peripheral/Source/gd32vf103_can.c ****       \arg        rx_ff: CAN_FF_STANDARD, CAN_FF_EXTENDED
 576:../Firmware/GD32VF103_standard_peripheral/Source/gd32vf103_can.c ****       \arg        rx_ft: CAN_FT_DATA, CAN_FT_REMOTE
 577:../Firmware/GD32VF103_standard_peripheral/Source/gd32vf103_can.c ****       \arg        rx_dlenc: 1 - 7
 578:../Firmware/GD32VF103_standard_peripheral/Source/gd32vf103_can.c ****       \arg        rx_data[]: 0x00 - 0xFF
 579:../Firmware/GD32VF103_standard_peripheral/Source/gd32vf103_can.c ****       \arg        rx_fi: 0 - 27
 580:../Firmware/GD32VF103_standard_peripheral/Source/gd32vf103_can.c ****     \retval     none
 581:../Firmware/GD32VF103_standard_peripheral/Source/gd32vf103_can.c **** */
 582:../Firmware/GD32VF103_standard_peripheral/Source/gd32vf103_can.c **** void can_message_receive(uint32_t can_periph, uint8_t fifo_number, can_receive_message_struct* rece
 583:../Firmware/GD32VF103_standard_peripheral/Source/gd32vf103_can.c **** {
 1275              		.loc 1 583 1 is_stmt 1
 1276              		.cfi_startproc
 1277              	.LVL69:
 584:../Firmware/GD32VF103_standard_peripheral/Source/gd32vf103_can.c ****     /* get the frame format */
 585:../Firmware/GD32VF103_standard_peripheral/Source/gd32vf103_can.c ****     receive_message->rx_ff = (uint8_t)(CAN_RFIFOMI_FF & CAN_RFIFOMI(can_periph, fifo_number));
 1278              		.loc 1 585 5
 1279              		.loc 1 585 57 is_stmt 0
 1280 0000 93974500 		slli	a5,a1,4
 1281 0004 AA97     		add	a5,a5,a0
 1282 0006 03A7071B 		lw	a4,432(a5)
 1283              		.loc 1 585 30
 1284 000a 118B     		andi	a4,a4,4
 1285              		.loc 1 585 28
 1286 000c 2304E600 		sb	a4,8(a2)
 586:../Firmware/GD32VF103_standard_peripheral/Source/gd32vf103_can.c ****     if(CAN_FF_STANDARD == receive_message->rx_ff){
 1287              		.loc 1 586 5 is_stmt 1
 1288              		.loc 1 586 7 is_stmt 0
 1289 0010 41E3     		bne	a4,zero,.L104
 587:../Firmware/GD32VF103_standard_peripheral/Source/gd32vf103_can.c ****         /* get standard identifier */
 588:../Firmware/GD32VF103_standard_peripheral/Source/gd32vf103_can.c ****         receive_message->rx_sfid = (uint32_t)(GET_RFIFOMI_SFID(CAN_RFIFOMI(can_periph, fifo_number)
 1290              		.loc 1 588 9 is_stmt 1
 1291              		.loc 1 588 47 is_stmt 0
 1292 0012 03A7071B 		lw	a4,432(a5)
 1293              		.loc 1 588 36
 1294 0016 5583     		srli	a4,a4,21
 1295              		.loc 1 588 34
 1296 0018 18C2     		sw	a4,0(a2)
 1297              	.L105:
 589:../Firmware/GD32VF103_standard_peripheral/Source/gd32vf103_can.c ****     }else{
 590:../Firmware/GD32VF103_standard_peripheral/Source/gd32vf103_can.c ****         /* get extended identifier */
 591:../Firmware/GD32VF103_standard_peripheral/Source/gd32vf103_can.c ****         receive_message->rx_efid = (uint32_t)(GET_RFIFOMI_EFID(CAN_RFIFOMI(can_periph, fifo_number)
 592:../Firmware/GD32VF103_standard_peripheral/Source/gd32vf103_can.c ****     }
 593:../Firmware/GD32VF103_standard_peripheral/Source/gd32vf103_can.c ****     
 594:../Firmware/GD32VF103_standard_peripheral/Source/gd32vf103_can.c ****     /* get frame type */
 595:../Firmware/GD32VF103_standard_peripheral/Source/gd32vf103_can.c ****     receive_message->rx_ft = (uint8_t)(CAN_RFIFOMI_FT & CAN_RFIFOMI(can_periph, fifo_number));     
 1298              		.loc 1 595 5 is_stmt 1
GAS LISTING /tmp/ccyQOTuX.s 			page 38


 1299              		.loc 1 595 57 is_stmt 0
 1300 001a 03A7071B 		lw	a4,432(a5)
 1301              		.loc 1 595 30
 1302 001e 098B     		andi	a4,a4,2
 1303              		.loc 1 595 28
 1304 0020 A304E600 		sb	a4,9(a2)
 596:../Firmware/GD32VF103_standard_peripheral/Source/gd32vf103_can.c ****     /* filtering index */
 597:../Firmware/GD32VF103_standard_peripheral/Source/gd32vf103_can.c ****     receive_message->rx_fi = (uint8_t)(GET_RFIFOMP_FI(CAN_RFIFOMP(can_periph, fifo_number)));
 1305              		.loc 1 597 5 is_stmt 1
 1306              		.loc 1 597 40 is_stmt 0
 1307 0024 03A7471B 		lw	a4,436(a5)
 1308 0028 2183     		srli	a4,a4,8
 1309              		.loc 1 597 30
 1310 002a A309E600 		sb	a4,19(a2)
 598:../Firmware/GD32VF103_standard_peripheral/Source/gd32vf103_can.c ****     /* get recevie data length */
 599:../Firmware/GD32VF103_standard_peripheral/Source/gd32vf103_can.c ****     receive_message->rx_dlen = (uint8_t)(GET_RFIFOMP_DLENC(CAN_RFIFOMP(can_periph, fifo_number)));
 1311              		.loc 1 599 5 is_stmt 1
 1312              		.loc 1 599 42 is_stmt 0
 1313 002e 03A7471B 		lw	a4,436(a5)
 1314              		.loc 1 599 32
 1315 0032 3D8B     		andi	a4,a4,15
 1316              		.loc 1 599 30
 1317 0034 2305E600 		sb	a4,10(a2)
 600:../Firmware/GD32VF103_standard_peripheral/Source/gd32vf103_can.c ****     
 601:../Firmware/GD32VF103_standard_peripheral/Source/gd32vf103_can.c ****     /* receive data */
 602:../Firmware/GD32VF103_standard_peripheral/Source/gd32vf103_can.c ****     receive_message -> rx_data[0] = (uint8_t)(GET_RFIFOMDATA0_DB0(CAN_RFIFOMDATA0(can_periph, fifo_
 1318              		.loc 1 602 5 is_stmt 1
 1319              		.loc 1 602 47 is_stmt 0
 1320 0038 03A7871B 		lw	a4,440(a5)
 1321              		.loc 1 602 37
 1322 003c A305E600 		sb	a4,11(a2)
 603:../Firmware/GD32VF103_standard_peripheral/Source/gd32vf103_can.c ****     receive_message -> rx_data[1] = (uint8_t)(GET_RFIFOMDATA0_DB1(CAN_RFIFOMDATA0(can_periph, fifo_
 1323              		.loc 1 603 5 is_stmt 1
 1324              		.loc 1 603 47 is_stmt 0
 1325 0040 03A7871B 		lw	a4,440(a5)
 1326 0044 2183     		srli	a4,a4,8
 1327              		.loc 1 603 37
 1328 0046 2306E600 		sb	a4,12(a2)
 604:../Firmware/GD32VF103_standard_peripheral/Source/gd32vf103_can.c ****     receive_message -> rx_data[2] = (uint8_t)(GET_RFIFOMDATA0_DB2(CAN_RFIFOMDATA0(can_periph, fifo_
 1329              		.loc 1 604 5 is_stmt 1
 1330              		.loc 1 604 47 is_stmt 0
 1331 004a 03A7871B 		lw	a4,440(a5)
 1332 004e 4183     		srli	a4,a4,16
 1333              		.loc 1 604 37
 1334 0050 A306E600 		sb	a4,13(a2)
 605:../Firmware/GD32VF103_standard_peripheral/Source/gd32vf103_can.c ****     receive_message -> rx_data[3] = (uint8_t)(GET_RFIFOMDATA0_DB3(CAN_RFIFOMDATA0(can_periph, fifo_
 1335              		.loc 1 605 5 is_stmt 1
 1336              		.loc 1 605 47 is_stmt 0
 1337 0054 03A7871B 		lw	a4,440(a5)
 1338 0058 6183     		srli	a4,a4,24
 1339              		.loc 1 605 37
 1340 005a 2307E600 		sb	a4,14(a2)
 606:../Firmware/GD32VF103_standard_peripheral/Source/gd32vf103_can.c ****     receive_message -> rx_data[4] = (uint8_t)(GET_RFIFOMDATA1_DB4(CAN_RFIFOMDATA1(can_periph, fifo_
 1341              		.loc 1 606 5 is_stmt 1
 1342              		.loc 1 606 47 is_stmt 0
 1343 005e 03A7C71B 		lw	a4,444(a5)
 1344              		.loc 1 606 37
GAS LISTING /tmp/ccyQOTuX.s 			page 39


 1345 0062 A307E600 		sb	a4,15(a2)
 607:../Firmware/GD32VF103_standard_peripheral/Source/gd32vf103_can.c ****     receive_message -> rx_data[5] = (uint8_t)(GET_RFIFOMDATA1_DB5(CAN_RFIFOMDATA1(can_periph, fifo_
 1346              		.loc 1 607 5 is_stmt 1
 1347              		.loc 1 607 47 is_stmt 0
 1348 0066 03A7C71B 		lw	a4,444(a5)
 1349 006a 2183     		srli	a4,a4,8
 1350              		.loc 1 607 37
 1351 006c 2308E600 		sb	a4,16(a2)
 608:../Firmware/GD32VF103_standard_peripheral/Source/gd32vf103_can.c ****     receive_message -> rx_data[6] = (uint8_t)(GET_RFIFOMDATA1_DB6(CAN_RFIFOMDATA1(can_periph, fifo_
 1352              		.loc 1 608 5 is_stmt 1
 1353              		.loc 1 608 47 is_stmt 0
 1354 0070 03A7C71B 		lw	a4,444(a5)
 1355 0074 4183     		srli	a4,a4,16
 1356              		.loc 1 608 37
 1357 0076 A308E600 		sb	a4,17(a2)
 609:../Firmware/GD32VF103_standard_peripheral/Source/gd32vf103_can.c ****     receive_message -> rx_data[7] = (uint8_t)(GET_RFIFOMDATA1_DB7(CAN_RFIFOMDATA1(can_periph, fifo_
 1358              		.loc 1 609 5 is_stmt 1
 1359              		.loc 1 609 47 is_stmt 0
 1360 007a 83A7C71B 		lw	a5,444(a5)
 1361 007e E183     		srli	a5,a5,24
 1362              		.loc 1 609 37
 1363 0080 2309F600 		sb	a5,18(a2)
 610:../Firmware/GD32VF103_standard_peripheral/Source/gd32vf103_can.c ****     
 611:../Firmware/GD32VF103_standard_peripheral/Source/gd32vf103_can.c ****     /* release FIFO */
 612:../Firmware/GD32VF103_standard_peripheral/Source/gd32vf103_can.c ****     if(CAN_FIFO0 == fifo_number){
 1364              		.loc 1 612 5 is_stmt 1
 1365              		.loc 1 612 7 is_stmt 0
 1366 0084 99E9     		bne	a1,zero,.L106
 613:../Firmware/GD32VF103_standard_peripheral/Source/gd32vf103_can.c ****         CAN_RFIFO0(can_periph) |= CAN_RFIFO0_RFD0;
 1367              		.loc 1 613 9 is_stmt 1
 1368              		.loc 1 613 32 is_stmt 0
 1369 0086 5C45     		lw	a5,12(a0)
 1370 0088 93E70702 		ori	a5,a5,32
 1371 008c 5CC5     		sw	a5,12(a0)
 1372 008e 8280     		ret
 1373              	.L104:
 591:../Firmware/GD32VF103_standard_peripheral/Source/gd32vf103_can.c ****     }
 1374              		.loc 1 591 9 is_stmt 1
 591:../Firmware/GD32VF103_standard_peripheral/Source/gd32vf103_can.c ****     }
 1375              		.loc 1 591 47 is_stmt 0
 1376 0090 03A7071B 		lw	a4,432(a5)
 591:../Firmware/GD32VF103_standard_peripheral/Source/gd32vf103_can.c ****     }
 1377              		.loc 1 591 36
 1378 0094 0D83     		srli	a4,a4,3
 591:../Firmware/GD32VF103_standard_peripheral/Source/gd32vf103_can.c ****     }
 1379              		.loc 1 591 34
 1380 0096 58C2     		sw	a4,4(a2)
 1381 0098 49B7     		j	.L105
 1382              	.L106:
 614:../Firmware/GD32VF103_standard_peripheral/Source/gd32vf103_can.c ****     }else{
 615:../Firmware/GD32VF103_standard_peripheral/Source/gd32vf103_can.c ****         CAN_RFIFO1(can_periph) |= CAN_RFIFO1_RFD1;
 1383              		.loc 1 615 9 is_stmt 1
 1384              		.loc 1 615 32 is_stmt 0
 1385 009a 1C49     		lw	a5,16(a0)
 1386 009c 93E70702 		ori	a5,a5,32
 1387 00a0 1CC9     		sw	a5,16(a0)
 616:../Firmware/GD32VF103_standard_peripheral/Source/gd32vf103_can.c ****     }
GAS LISTING /tmp/ccyQOTuX.s 			page 40


 617:../Firmware/GD32VF103_standard_peripheral/Source/gd32vf103_can.c **** }
 1388              		.loc 1 617 1
 1389 00a2 8280     		ret
 1390              		.cfi_endproc
 1391              	.LFE14:
 1393              		.section	.text.can_fifo_release,"ax",@progbits
 1394              		.align	1
 1395              		.globl	can_fifo_release
 1397              	can_fifo_release:
 1398              	.LFB15:
 618:../Firmware/GD32VF103_standard_peripheral/Source/gd32vf103_can.c **** 
 619:../Firmware/GD32VF103_standard_peripheral/Source/gd32vf103_can.c **** /*!
 620:../Firmware/GD32VF103_standard_peripheral/Source/gd32vf103_can.c ****     \brief      release FIFO0
 621:../Firmware/GD32VF103_standard_peripheral/Source/gd32vf103_can.c ****     \param[in]  can_periph
 622:../Firmware/GD32VF103_standard_peripheral/Source/gd32vf103_can.c ****       \arg        CANx(x=0,1)
 623:../Firmware/GD32VF103_standard_peripheral/Source/gd32vf103_can.c ****     \param[in]  fifo_number
 624:../Firmware/GD32VF103_standard_peripheral/Source/gd32vf103_can.c ****                 only one parameter can be selected which is shown as below:
 625:../Firmware/GD32VF103_standard_peripheral/Source/gd32vf103_can.c ****       \arg        CAN_FIFOx(x=0,1)
 626:../Firmware/GD32VF103_standard_peripheral/Source/gd32vf103_can.c ****     \param[out] none
 627:../Firmware/GD32VF103_standard_peripheral/Source/gd32vf103_can.c ****     \retval     none
 628:../Firmware/GD32VF103_standard_peripheral/Source/gd32vf103_can.c **** */
 629:../Firmware/GD32VF103_standard_peripheral/Source/gd32vf103_can.c **** void can_fifo_release(uint32_t can_periph, uint8_t fifo_number)
 630:../Firmware/GD32VF103_standard_peripheral/Source/gd32vf103_can.c **** {
 1399              		.loc 1 630 1 is_stmt 1
 1400              		.cfi_startproc
 1401              	.LVL70:
 631:../Firmware/GD32VF103_standard_peripheral/Source/gd32vf103_can.c ****     if(CAN_FIFO0 == fifo_number){
 1402              		.loc 1 631 5
 1403              		.loc 1 631 7 is_stmt 0
 1404 0000 91E5     		bne	a1,zero,.L109
 632:../Firmware/GD32VF103_standard_peripheral/Source/gd32vf103_can.c ****         CAN_RFIFO0(can_periph) |= CAN_RFIFO0_RFD0;
 1405              		.loc 1 632 9 is_stmt 1
 1406              		.loc 1 632 32 is_stmt 0
 1407 0002 5C45     		lw	a5,12(a0)
 1408 0004 93E70702 		ori	a5,a5,32
 1409 0008 5CC5     		sw	a5,12(a0)
 1410 000a 8280     		ret
 1411              	.L109:
 633:../Firmware/GD32VF103_standard_peripheral/Source/gd32vf103_can.c ****     }else if(CAN_FIFO1 == fifo_number){
 1412              		.loc 1 633 11 is_stmt 1
 1413              		.loc 1 633 13 is_stmt 0
 1414 000c 8547     		li	a5,1
 1415 000e 6383F500 		beq	a1,a5,.L113
 1416              	.L111:
 634:../Firmware/GD32VF103_standard_peripheral/Source/gd32vf103_can.c ****         CAN_RFIFO1(can_periph) |= CAN_RFIFO1_RFD1;
 635:../Firmware/GD32VF103_standard_peripheral/Source/gd32vf103_can.c ****     }else{
 636:../Firmware/GD32VF103_standard_peripheral/Source/gd32vf103_can.c ****         /* illegal parameters */
 637:../Firmware/GD32VF103_standard_peripheral/Source/gd32vf103_can.c ****         CAN_ERROR_HANDLE("CAN FIFO NUM is invalid \r\n");
 1417              		.loc 1 637 9 is_stmt 1 discriminator 1
 1418              		.loc 1 637 9 discriminator 1
 1419              		.loc 1 637 9 discriminator 1
 1420              		.loc 1 637 9 discriminator 1
 1421              		.loc 1 637 9 discriminator 1
 1422              		.loc 1 637 9 discriminator 1
 1423 0012 01A0     		j	.L111
 1424              	.L113:
 634:../Firmware/GD32VF103_standard_peripheral/Source/gd32vf103_can.c ****         CAN_RFIFO1(can_periph) |= CAN_RFIFO1_RFD1;
GAS LISTING /tmp/ccyQOTuX.s 			page 41


 1425              		.loc 1 634 9
 634:../Firmware/GD32VF103_standard_peripheral/Source/gd32vf103_can.c ****         CAN_RFIFO1(can_periph) |= CAN_RFIFO1_RFD1;
 1426              		.loc 1 634 32 is_stmt 0
 1427 0014 1C49     		lw	a5,16(a0)
 1428 0016 93E70702 		ori	a5,a5,32
 1429 001a 1CC9     		sw	a5,16(a0)
 638:../Firmware/GD32VF103_standard_peripheral/Source/gd32vf103_can.c ****     }
 639:../Firmware/GD32VF103_standard_peripheral/Source/gd32vf103_can.c **** }
 1430              		.loc 1 639 1
 1431 001c 8280     		ret
 1432              		.cfi_endproc
 1433              	.LFE15:
 1435              		.section	.text.can_receive_message_length_get,"ax",@progbits
 1436              		.align	1
 1437              		.globl	can_receive_message_length_get
 1439              	can_receive_message_length_get:
 1440              	.LFB16:
 640:../Firmware/GD32VF103_standard_peripheral/Source/gd32vf103_can.c **** 
 641:../Firmware/GD32VF103_standard_peripheral/Source/gd32vf103_can.c **** /*!
 642:../Firmware/GD32VF103_standard_peripheral/Source/gd32vf103_can.c ****     \brief      CAN receive message length
 643:../Firmware/GD32VF103_standard_peripheral/Source/gd32vf103_can.c ****     \param[in]  can_periph
 644:../Firmware/GD32VF103_standard_peripheral/Source/gd32vf103_can.c ****       \arg        CANx(x=0,1)
 645:../Firmware/GD32VF103_standard_peripheral/Source/gd32vf103_can.c ****     \param[in]  fifo_number
 646:../Firmware/GD32VF103_standard_peripheral/Source/gd32vf103_can.c ****                 only one parameter can be selected which is shown as below:
 647:../Firmware/GD32VF103_standard_peripheral/Source/gd32vf103_can.c ****       \arg        CAN_FIFOx(x=0,1) 
 648:../Firmware/GD32VF103_standard_peripheral/Source/gd32vf103_can.c ****     \param[out] none
 649:../Firmware/GD32VF103_standard_peripheral/Source/gd32vf103_can.c ****     \retval     message length
 650:../Firmware/GD32VF103_standard_peripheral/Source/gd32vf103_can.c **** */
 651:../Firmware/GD32VF103_standard_peripheral/Source/gd32vf103_can.c **** uint8_t can_receive_message_length_get(uint32_t can_periph, uint8_t fifo_number)
 652:../Firmware/GD32VF103_standard_peripheral/Source/gd32vf103_can.c **** {
 1441              		.loc 1 652 1 is_stmt 1
 1442              		.cfi_startproc
 1443              	.LVL71:
 653:../Firmware/GD32VF103_standard_peripheral/Source/gd32vf103_can.c ****     uint8_t val = 0U;
 1444              		.loc 1 653 5
 654:../Firmware/GD32VF103_standard_peripheral/Source/gd32vf103_can.c ****     
 655:../Firmware/GD32VF103_standard_peripheral/Source/gd32vf103_can.c ****     if(CAN_FIFO0 == fifo_number){
 1445              		.loc 1 655 5
 652:../Firmware/GD32VF103_standard_peripheral/Source/gd32vf103_can.c ****     uint8_t val = 0U;
 1446              		.loc 1 652 1 is_stmt 0
 1447 0000 AA87     		mv	a5,a0
 1448              		.loc 1 655 7
 1449 0002 81E5     		bne	a1,zero,.L115
 656:../Firmware/GD32VF103_standard_peripheral/Source/gd32vf103_can.c ****         /* FIFO0 */
 657:../Firmware/GD32VF103_standard_peripheral/Source/gd32vf103_can.c ****         val = (uint8_t)(CAN_RFIFO0(can_periph) & CAN_RFIF_RFL_MASK);
 1450              		.loc 1 657 9 is_stmt 1
 1451              		.loc 1 657 25 is_stmt 0
 1452 0004 4845     		lw	a0,12(a0)
 1453              	.LVL72:
 1454              		.loc 1 657 13
 1455 0006 0D89     		andi	a0,a0,3
 1456              	.LVL73:
 1457 0008 8280     		ret
 1458              	.LVL74:
 1459              	.L115:
 658:../Firmware/GD32VF103_standard_peripheral/Source/gd32vf103_can.c ****     }else if(CAN_FIFO1 == fifo_number){
 1460              		.loc 1 658 11 is_stmt 1
GAS LISTING /tmp/ccyQOTuX.s 			page 42


 1461              		.loc 1 658 13 is_stmt 0
 1462 000a 0547     		li	a4,1
 653:../Firmware/GD32VF103_standard_peripheral/Source/gd32vf103_can.c ****     
 1463              		.loc 1 653 13
 1464 000c 0145     		li	a0,0
 1465              	.LVL75:
 1466              		.loc 1 658 13
 1467 000e 6383E500 		beq	a1,a4,.L118
 1468              	.LVL76:
 659:../Firmware/GD32VF103_standard_peripheral/Source/gd32vf103_can.c ****         /* FIFO1 */
 660:../Firmware/GD32VF103_standard_peripheral/Source/gd32vf103_can.c ****         val = (uint8_t)(CAN_RFIFO1(can_periph) & CAN_RFIF_RFL_MASK);
 661:../Firmware/GD32VF103_standard_peripheral/Source/gd32vf103_can.c ****     }else{
 662:../Firmware/GD32VF103_standard_peripheral/Source/gd32vf103_can.c ****         /* illegal parameters */
 663:../Firmware/GD32VF103_standard_peripheral/Source/gd32vf103_can.c ****     }
 1469              		.loc 1 663 5 is_stmt 1
 664:../Firmware/GD32VF103_standard_peripheral/Source/gd32vf103_can.c ****     return val;
 1470              		.loc 1 664 5
 665:../Firmware/GD32VF103_standard_peripheral/Source/gd32vf103_can.c **** }
 1471              		.loc 1 665 1 is_stmt 0
 1472 0012 8280     		ret
 1473              	.LVL77:
 1474              	.L118:
 660:../Firmware/GD32VF103_standard_peripheral/Source/gd32vf103_can.c ****     }else{
 1475              		.loc 1 660 9 is_stmt 1
 660:../Firmware/GD32VF103_standard_peripheral/Source/gd32vf103_can.c ****     }else{
 1476              		.loc 1 660 25 is_stmt 0
 1477 0014 884B     		lw	a0,16(a5)
 660:../Firmware/GD32VF103_standard_peripheral/Source/gd32vf103_can.c ****     }else{
 1478              		.loc 1 660 13
 1479 0016 0D89     		andi	a0,a0,3
 1480              	.LVL78:
 663:../Firmware/GD32VF103_standard_peripheral/Source/gd32vf103_can.c ****     return val;
 1481              		.loc 1 663 5 is_stmt 1
 664:../Firmware/GD32VF103_standard_peripheral/Source/gd32vf103_can.c **** }
 1482              		.loc 1 664 5
 1483              		.loc 1 665 1 is_stmt 0
 1484 0018 8280     		ret
 1485              		.cfi_endproc
 1486              	.LFE16:
 1488              		.section	.text.can_working_mode_set,"ax",@progbits
 1489              		.align	1
 1490              		.globl	can_working_mode_set
 1492              	can_working_mode_set:
 1493              	.LFB17:
 666:../Firmware/GD32VF103_standard_peripheral/Source/gd32vf103_can.c **** 
 667:../Firmware/GD32VF103_standard_peripheral/Source/gd32vf103_can.c **** /*!
 668:../Firmware/GD32VF103_standard_peripheral/Source/gd32vf103_can.c ****     \brief      set CAN working mode
 669:../Firmware/GD32VF103_standard_peripheral/Source/gd32vf103_can.c ****     \param[in]  can_periph
 670:../Firmware/GD32VF103_standard_peripheral/Source/gd32vf103_can.c ****       \arg        CANx(x=0,1)
 671:../Firmware/GD32VF103_standard_peripheral/Source/gd32vf103_can.c ****     \param[in]  can_working_mode
 672:../Firmware/GD32VF103_standard_peripheral/Source/gd32vf103_can.c ****                 only one parameter can be selected which is shown as below:
 673:../Firmware/GD32VF103_standard_peripheral/Source/gd32vf103_can.c ****       \arg        CAN_MODE_INITIALIZE
 674:../Firmware/GD32VF103_standard_peripheral/Source/gd32vf103_can.c ****       \arg        CAN_MODE_NORMAL
 675:../Firmware/GD32VF103_standard_peripheral/Source/gd32vf103_can.c ****       \arg        CAN_MODE_SLEEP
 676:../Firmware/GD32VF103_standard_peripheral/Source/gd32vf103_can.c ****     \param[out] none
 677:../Firmware/GD32VF103_standard_peripheral/Source/gd32vf103_can.c ****     \retval     ErrStatus: SUCCESS or ERROR
 678:../Firmware/GD32VF103_standard_peripheral/Source/gd32vf103_can.c **** */
GAS LISTING /tmp/ccyQOTuX.s 			page 43


 679:../Firmware/GD32VF103_standard_peripheral/Source/gd32vf103_can.c **** ErrStatus can_working_mode_set(uint32_t can_periph, uint8_t working_mode)
 680:../Firmware/GD32VF103_standard_peripheral/Source/gd32vf103_can.c **** {
 1494              		.loc 1 680 1 is_stmt 1
 1495              		.cfi_startproc
 1496              	.LVL79:
 681:../Firmware/GD32VF103_standard_peripheral/Source/gd32vf103_can.c ****     ErrStatus flag = ERROR;
 1497              		.loc 1 681 5
 682:../Firmware/GD32VF103_standard_peripheral/Source/gd32vf103_can.c ****     /* timeout for IWS or also for SLPWS bits */
 683:../Firmware/GD32VF103_standard_peripheral/Source/gd32vf103_can.c ****     uint32_t timeout = CAN_TIMEOUT; 
 1498              		.loc 1 683 5
 684:../Firmware/GD32VF103_standard_peripheral/Source/gd32vf103_can.c ****     
 685:../Firmware/GD32VF103_standard_peripheral/Source/gd32vf103_can.c ****     if(CAN_MODE_INITIALIZE == working_mode){
 1499              		.loc 1 685 5
 1500              		.loc 1 685 7 is_stmt 0
 1501 0000 8547     		li	a5,1
 680:../Firmware/GD32VF103_standard_peripheral/Source/gd32vf103_can.c ****     ErrStatus flag = ERROR;
 1502              		.loc 1 680 1
 1503 0002 AA86     		mv	a3,a0
 1504              		.loc 1 685 7
 1505 0004 638FF502 		beq	a1,a5,.L139
 686:../Firmware/GD32VF103_standard_peripheral/Source/gd32vf103_can.c ****         /* disable sleep mode */
 687:../Firmware/GD32VF103_standard_peripheral/Source/gd32vf103_can.c ****         CAN_CTL(can_periph) &= (~(uint32_t)CAN_CTL_SLPWMOD);
 688:../Firmware/GD32VF103_standard_peripheral/Source/gd32vf103_can.c ****         /* set initialize mode */
 689:../Firmware/GD32VF103_standard_peripheral/Source/gd32vf103_can.c ****         CAN_CTL(can_periph) |= (uint8_t)CAN_CTL_IWMOD;
 690:../Firmware/GD32VF103_standard_peripheral/Source/gd32vf103_can.c ****         /* wait the acknowledge */
 691:../Firmware/GD32VF103_standard_peripheral/Source/gd32vf103_can.c ****         while((CAN_STAT_IWS != (CAN_STAT(can_periph) & CAN_STAT_IWS)) && (0U != timeout)){
 692:../Firmware/GD32VF103_standard_peripheral/Source/gd32vf103_can.c ****             timeout--;
 693:../Firmware/GD32VF103_standard_peripheral/Source/gd32vf103_can.c ****         }
 694:../Firmware/GD32VF103_standard_peripheral/Source/gd32vf103_can.c ****         if(CAN_STAT_IWS != (CAN_STAT(can_periph) & CAN_STAT_IWS)){
 695:../Firmware/GD32VF103_standard_peripheral/Source/gd32vf103_can.c ****             flag = ERROR;
 696:../Firmware/GD32VF103_standard_peripheral/Source/gd32vf103_can.c ****         }else{
 697:../Firmware/GD32VF103_standard_peripheral/Source/gd32vf103_can.c ****             flag = SUCCESS;
 698:../Firmware/GD32VF103_standard_peripheral/Source/gd32vf103_can.c ****         }
 699:../Firmware/GD32VF103_standard_peripheral/Source/gd32vf103_can.c ****     }else if(CAN_MODE_NORMAL == working_mode){
 1506              		.loc 1 699 11 is_stmt 1
 1507              		.loc 1 699 13 is_stmt 0
 1508 0008 8947     		li	a5,2
 1509 000a 6387F500 		beq	a1,a5,.L140
 700:../Firmware/GD32VF103_standard_peripheral/Source/gd32vf103_can.c ****         /* enter normal mode */
 701:../Firmware/GD32VF103_standard_peripheral/Source/gd32vf103_can.c ****         CAN_CTL(can_periph) &= ~(uint32_t)(CAN_CTL_SLPWMOD | CAN_CTL_IWMOD);
 702:../Firmware/GD32VF103_standard_peripheral/Source/gd32vf103_can.c ****         /* wait the acknowledge */
 703:../Firmware/GD32VF103_standard_peripheral/Source/gd32vf103_can.c ****         while((0U != (CAN_STAT(can_periph) & (CAN_STAT_IWS | CAN_STAT_SLPWS))) && (0U != timeout)){
 704:../Firmware/GD32VF103_standard_peripheral/Source/gd32vf103_can.c ****             timeout--;
 705:../Firmware/GD32VF103_standard_peripheral/Source/gd32vf103_can.c ****         }
 706:../Firmware/GD32VF103_standard_peripheral/Source/gd32vf103_can.c ****         if(0U != (CAN_STAT(can_periph) & (CAN_STAT_IWS | CAN_STAT_SLPWS))){
 707:../Firmware/GD32VF103_standard_peripheral/Source/gd32vf103_can.c ****             flag = ERROR;
 708:../Firmware/GD32VF103_standard_peripheral/Source/gd32vf103_can.c ****         }else{
 709:../Firmware/GD32VF103_standard_peripheral/Source/gd32vf103_can.c ****             flag = SUCCESS;
 710:../Firmware/GD32VF103_standard_peripheral/Source/gd32vf103_can.c ****         }
 711:../Firmware/GD32VF103_standard_peripheral/Source/gd32vf103_can.c ****     }else if(CAN_MODE_SLEEP == working_mode){
 1510              		.loc 1 711 11 is_stmt 1
 1511              		.loc 1 711 13 is_stmt 0
 1512 000e 9147     		li	a5,4
 712:../Firmware/GD32VF103_standard_peripheral/Source/gd32vf103_can.c ****         /* disable initialize mode */
 713:../Firmware/GD32VF103_standard_peripheral/Source/gd32vf103_can.c ****         CAN_CTL(can_periph) &= (~(uint32_t)CAN_CTL_IWMOD);
 714:../Firmware/GD32VF103_standard_peripheral/Source/gd32vf103_can.c ****         /* set sleep mode */
 715:../Firmware/GD32VF103_standard_peripheral/Source/gd32vf103_can.c ****         CAN_CTL(can_periph) |= (uint8_t)CAN_CTL_SLPWMOD;
GAS LISTING /tmp/ccyQOTuX.s 			page 44


 716:../Firmware/GD32VF103_standard_peripheral/Source/gd32vf103_can.c ****         /* wait the acknowledge */
 717:../Firmware/GD32VF103_standard_peripheral/Source/gd32vf103_can.c ****         while((CAN_STAT_SLPWS != (CAN_STAT(can_periph) & CAN_STAT_SLPWS)) && (0U != timeout)){
 718:../Firmware/GD32VF103_standard_peripheral/Source/gd32vf103_can.c ****             timeout--;
 719:../Firmware/GD32VF103_standard_peripheral/Source/gd32vf103_can.c ****         }
 720:../Firmware/GD32VF103_standard_peripheral/Source/gd32vf103_can.c ****         if(CAN_STAT_SLPWS != (CAN_STAT(can_periph) & CAN_STAT_SLPWS)){
 721:../Firmware/GD32VF103_standard_peripheral/Source/gd32vf103_can.c ****             flag = ERROR;
 722:../Firmware/GD32VF103_standard_peripheral/Source/gd32vf103_can.c ****         }else{
 723:../Firmware/GD32VF103_standard_peripheral/Source/gd32vf103_can.c ****             flag = SUCCESS;
 724:../Firmware/GD32VF103_standard_peripheral/Source/gd32vf103_can.c ****         }
 725:../Firmware/GD32VF103_standard_peripheral/Source/gd32vf103_can.c ****     }else{
 726:../Firmware/GD32VF103_standard_peripheral/Source/gd32vf103_can.c ****         flag = ERROR;
 1513              		.loc 1 726 14
 1514 0010 0145     		li	a0,0
 1515              	.LVL80:
 711:../Firmware/GD32VF103_standard_peripheral/Source/gd32vf103_can.c ****         /* disable initialize mode */
 1516              		.loc 1 711 13
 1517 0012 638FF504 		beq	a1,a5,.L141
 727:../Firmware/GD32VF103_standard_peripheral/Source/gd32vf103_can.c ****     }
 728:../Firmware/GD32VF103_standard_peripheral/Source/gd32vf103_can.c ****     return flag;
 729:../Firmware/GD32VF103_standard_peripheral/Source/gd32vf103_can.c **** }
 1518              		.loc 1 729 1
 1519 0016 8280     		ret
 1520              	.LVL81:
 1521              	.L140:
 701:../Firmware/GD32VF103_standard_peripheral/Source/gd32vf103_can.c ****         /* wait the acknowledge */
 1522              		.loc 1 701 9 is_stmt 1
 701:../Firmware/GD32VF103_standard_peripheral/Source/gd32vf103_can.c ****         /* wait the acknowledge */
 1523              		.loc 1 701 29 is_stmt 0
 1524 0018 1C41     		lw	a5,0(a0)
 703:../Firmware/GD32VF103_standard_peripheral/Source/gd32vf103_can.c ****             timeout--;
 1525              		.loc 1 703 23
 1526 001a 13064500 		addi	a2,a0,4
 701:../Firmware/GD32VF103_standard_peripheral/Source/gd32vf103_can.c ****         /* wait the acknowledge */
 1527              		.loc 1 701 29
 1528 001e F19B     		andi	a5,a5,-4
 1529 0020 1CC1     		sw	a5,0(a0)
 703:../Firmware/GD32VF103_standard_peripheral/Source/gd32vf103_can.c ****             timeout--;
 1530              		.loc 1 703 9 is_stmt 1
 703:../Firmware/GD32VF103_standard_peripheral/Source/gd32vf103_can.c ****             timeout--;
 1531              		.loc 1 703 14
 703:../Firmware/GD32VF103_standard_peripheral/Source/gd32vf103_can.c ****             timeout--;
 1532              		.loc 1 703 23 is_stmt 0
 1533 0022 5C41     		lw	a5,4(a0)
 703:../Firmware/GD32VF103_standard_peripheral/Source/gd32vf103_can.c ****             timeout--;
 1534              		.loc 1 703 44
 1535 0024 8D8B     		andi	a5,a5,3
 703:../Firmware/GD32VF103_standard_peripheral/Source/gd32vf103_can.c ****             timeout--;
 1536              		.loc 1 703 14
 1537 0026 89CB     		beq	a5,zero,.L125
 1538 0028 4167     		li	a4,65536
 1539 002a 7D17     		addi	a4,a4,-1
 1540 002c 11A0     		j	.L126
 1541              	.LVL82:
 1542              	.L142:
 703:../Firmware/GD32VF103_standard_peripheral/Source/gd32vf103_can.c ****             timeout--;
 1543              		.loc 1 703 80 discriminator 1
 1544 002e 09C7     		beq	a4,zero,.L125
GAS LISTING /tmp/ccyQOTuX.s 			page 45


 1545              	.LVL83:
 1546              	.L126:
 704:../Firmware/GD32VF103_standard_peripheral/Source/gd32vf103_can.c ****         }
 1547              		.loc 1 704 13 is_stmt 1
 703:../Firmware/GD32VF103_standard_peripheral/Source/gd32vf103_can.c ****             timeout--;
 1548              		.loc 1 703 14
 703:../Firmware/GD32VF103_standard_peripheral/Source/gd32vf103_can.c ****             timeout--;
 1549              		.loc 1 703 23 is_stmt 0
 1550 0030 1C42     		lw	a5,0(a2)
 703:../Firmware/GD32VF103_standard_peripheral/Source/gd32vf103_can.c ****             timeout--;
 1551              		.loc 1 703 80
 1552 0032 7D17     		addi	a4,a4,-1
 1553              	.LVL84:
 703:../Firmware/GD32VF103_standard_peripheral/Source/gd32vf103_can.c ****             timeout--;
 1554              		.loc 1 703 44
 1555 0034 8D8B     		andi	a5,a5,3
 703:../Firmware/GD32VF103_standard_peripheral/Source/gd32vf103_can.c ****             timeout--;
 1556              		.loc 1 703 14
 1557 0036 E5FF     		bne	a5,zero,.L142
 1558              	.LVL85:
 1559              	.L125:
 706:../Firmware/GD32VF103_standard_peripheral/Source/gd32vf103_can.c ****             flag = ERROR;
 1560              		.loc 1 706 9 is_stmt 1
 706:../Firmware/GD32VF103_standard_peripheral/Source/gd32vf103_can.c ****             flag = ERROR;
 1561              		.loc 1 706 19 is_stmt 0
 1562 0038 C842     		lw	a0,4(a3)
 1563              	.LVL86:
 706:../Firmware/GD32VF103_standard_peripheral/Source/gd32vf103_can.c ****             flag = ERROR;
 1564              		.loc 1 706 40
 1565 003a 0D89     		andi	a0,a0,3
 706:../Firmware/GD32VF103_standard_peripheral/Source/gd32vf103_can.c ****             flag = ERROR;
 1566              		.loc 1 706 11
 1567 003c 13351500 		seqz	a0,a0
 1568 0040 8280     		ret
 1569              	.LVL87:
 1570              	.L139:
 687:../Firmware/GD32VF103_standard_peripheral/Source/gd32vf103_can.c ****         /* set initialize mode */
 1571              		.loc 1 687 9 is_stmt 1
 687:../Firmware/GD32VF103_standard_peripheral/Source/gd32vf103_can.c ****         /* set initialize mode */
 1572              		.loc 1 687 29 is_stmt 0
 1573 0042 1C41     		lw	a5,0(a0)
 691:../Firmware/GD32VF103_standard_peripheral/Source/gd32vf103_can.c ****             timeout--;
 1574              		.loc 1 691 33
 1575 0044 13064500 		addi	a2,a0,4
 687:../Firmware/GD32VF103_standard_peripheral/Source/gd32vf103_can.c ****         /* set initialize mode */
 1576              		.loc 1 687 29
 1577 0048 F59B     		andi	a5,a5,-3
 1578 004a 1CC1     		sw	a5,0(a0)
 689:../Firmware/GD32VF103_standard_peripheral/Source/gd32vf103_can.c ****         /* wait the acknowledge */
 1579              		.loc 1 689 9 is_stmt 1
 689:../Firmware/GD32VF103_standard_peripheral/Source/gd32vf103_can.c ****         /* wait the acknowledge */
 1580              		.loc 1 689 29 is_stmt 0
 1581 004c 1C41     		lw	a5,0(a0)
 1582 004e 93E71700 		ori	a5,a5,1
 1583 0052 1CC1     		sw	a5,0(a0)
 691:../Firmware/GD32VF103_standard_peripheral/Source/gd32vf103_can.c ****             timeout--;
 1584              		.loc 1 691 9 is_stmt 1
GAS LISTING /tmp/ccyQOTuX.s 			page 46


 691:../Firmware/GD32VF103_standard_peripheral/Source/gd32vf103_can.c ****             timeout--;
 1585              		.loc 1 691 14
 691:../Firmware/GD32VF103_standard_peripheral/Source/gd32vf103_can.c ****             timeout--;
 1586              		.loc 1 691 33 is_stmt 0
 1587 0054 5C41     		lw	a5,4(a0)
 691:../Firmware/GD32VF103_standard_peripheral/Source/gd32vf103_can.c ****             timeout--;
 1588              		.loc 1 691 54
 1589 0056 858B     		andi	a5,a5,1
 691:../Firmware/GD32VF103_standard_peripheral/Source/gd32vf103_can.c ****             timeout--;
 1590              		.loc 1 691 14
 1591 0058 89EB     		bne	a5,zero,.L121
 1592 005a 4167     		li	a4,65536
 1593 005c 7D17     		addi	a4,a4,-1
 1594 005e 11A0     		j	.L122
 1595              	.LVL88:
 1596              	.L143:
 691:../Firmware/GD32VF103_standard_peripheral/Source/gd32vf103_can.c ****             timeout--;
 1597              		.loc 1 691 71 discriminator 1
 1598 0060 09C7     		beq	a4,zero,.L121
 1599              	.LVL89:
 1600              	.L122:
 692:../Firmware/GD32VF103_standard_peripheral/Source/gd32vf103_can.c ****         }
 1601              		.loc 1 692 13 is_stmt 1
 691:../Firmware/GD32VF103_standard_peripheral/Source/gd32vf103_can.c ****             timeout--;
 1602              		.loc 1 691 14
 691:../Firmware/GD32VF103_standard_peripheral/Source/gd32vf103_can.c ****             timeout--;
 1603              		.loc 1 691 33 is_stmt 0
 1604 0062 1C42     		lw	a5,0(a2)
 691:../Firmware/GD32VF103_standard_peripheral/Source/gd32vf103_can.c ****             timeout--;
 1605              		.loc 1 691 71
 1606 0064 7D17     		addi	a4,a4,-1
 1607              	.LVL90:
 691:../Firmware/GD32VF103_standard_peripheral/Source/gd32vf103_can.c ****             timeout--;
 1608              		.loc 1 691 54
 1609 0066 858B     		andi	a5,a5,1
 691:../Firmware/GD32VF103_standard_peripheral/Source/gd32vf103_can.c ****             timeout--;
 1610              		.loc 1 691 14
 1611 0068 E5DF     		beq	a5,zero,.L143
 1612              	.LVL91:
 1613              	.L121:
 694:../Firmware/GD32VF103_standard_peripheral/Source/gd32vf103_can.c ****             flag = ERROR;
 1614              		.loc 1 694 9 is_stmt 1
 694:../Firmware/GD32VF103_standard_peripheral/Source/gd32vf103_can.c ****             flag = ERROR;
 1615              		.loc 1 694 29 is_stmt 0
 1616 006a C842     		lw	a0,4(a3)
 1617              	.LVL92:
 694:../Firmware/GD32VF103_standard_peripheral/Source/gd32vf103_can.c ****             flag = ERROR;
 1618              		.loc 1 694 50
 1619 006c 0589     		andi	a0,a0,1
 1620 006e 8280     		ret
 1621              	.LVL93:
 1622              	.L141:
 713:../Firmware/GD32VF103_standard_peripheral/Source/gd32vf103_can.c ****         /* set sleep mode */
 1623              		.loc 1 713 9 is_stmt 1
 713:../Firmware/GD32VF103_standard_peripheral/Source/gd32vf103_can.c ****         /* set sleep mode */
 1624              		.loc 1 713 29 is_stmt 0
 1625 0070 9C42     		lw	a5,0(a3)
GAS LISTING /tmp/ccyQOTuX.s 			page 47


 717:../Firmware/GD32VF103_standard_peripheral/Source/gd32vf103_can.c ****             timeout--;
 1626              		.loc 1 717 35
 1627 0072 13864600 		addi	a2,a3,4
 713:../Firmware/GD32VF103_standard_peripheral/Source/gd32vf103_can.c ****         /* set sleep mode */
 1628              		.loc 1 713 29
 1629 0076 F99B     		andi	a5,a5,-2
 1630 0078 9CC2     		sw	a5,0(a3)
 715:../Firmware/GD32VF103_standard_peripheral/Source/gd32vf103_can.c ****         /* wait the acknowledge */
 1631              		.loc 1 715 9 is_stmt 1
 715:../Firmware/GD32VF103_standard_peripheral/Source/gd32vf103_can.c ****         /* wait the acknowledge */
 1632              		.loc 1 715 29 is_stmt 0
 1633 007a 9C42     		lw	a5,0(a3)
 1634 007c 93E72700 		ori	a5,a5,2
 1635 0080 9CC2     		sw	a5,0(a3)
 717:../Firmware/GD32VF103_standard_peripheral/Source/gd32vf103_can.c ****             timeout--;
 1636              		.loc 1 717 9 is_stmt 1
 717:../Firmware/GD32VF103_standard_peripheral/Source/gd32vf103_can.c ****             timeout--;
 1637              		.loc 1 717 14
 717:../Firmware/GD32VF103_standard_peripheral/Source/gd32vf103_can.c ****             timeout--;
 1638              		.loc 1 717 35 is_stmt 0
 1639 0082 DC42     		lw	a5,4(a3)
 717:../Firmware/GD32VF103_standard_peripheral/Source/gd32vf103_can.c ****             timeout--;
 1640              		.loc 1 717 56
 1641 0084 898B     		andi	a5,a5,2
 717:../Firmware/GD32VF103_standard_peripheral/Source/gd32vf103_can.c ****             timeout--;
 1642              		.loc 1 717 14
 1643 0086 89EB     		bne	a5,zero,.L127
 1644 0088 4167     		li	a4,65536
 1645 008a 7D17     		addi	a4,a4,-1
 1646 008c 11A0     		j	.L128
 1647              	.LVL94:
 1648              	.L144:
 717:../Firmware/GD32VF103_standard_peripheral/Source/gd32vf103_can.c ****             timeout--;
 1649              		.loc 1 717 75 discriminator 1
 1650 008e 09C7     		beq	a4,zero,.L127
 1651              	.LVL95:
 1652              	.L128:
 718:../Firmware/GD32VF103_standard_peripheral/Source/gd32vf103_can.c ****         }
 1653              		.loc 1 718 13 is_stmt 1
 717:../Firmware/GD32VF103_standard_peripheral/Source/gd32vf103_can.c ****             timeout--;
 1654              		.loc 1 717 14
 717:../Firmware/GD32VF103_standard_peripheral/Source/gd32vf103_can.c ****             timeout--;
 1655              		.loc 1 717 35 is_stmt 0
 1656 0090 1C42     		lw	a5,0(a2)
 717:../Firmware/GD32VF103_standard_peripheral/Source/gd32vf103_can.c ****             timeout--;
 1657              		.loc 1 717 75
 1658 0092 7D17     		addi	a4,a4,-1
 1659              	.LVL96:
 717:../Firmware/GD32VF103_standard_peripheral/Source/gd32vf103_can.c ****             timeout--;
 1660              		.loc 1 717 56
 1661 0094 898B     		andi	a5,a5,2
 717:../Firmware/GD32VF103_standard_peripheral/Source/gd32vf103_can.c ****             timeout--;
 1662              		.loc 1 717 14
 1663 0096 E5DF     		beq	a5,zero,.L144
 1664              	.LVL97:
 1665              	.L127:
 720:../Firmware/GD32VF103_standard_peripheral/Source/gd32vf103_can.c ****             flag = ERROR;
GAS LISTING /tmp/ccyQOTuX.s 			page 48


 1666              		.loc 1 720 9 is_stmt 1
 720:../Firmware/GD32VF103_standard_peripheral/Source/gd32vf103_can.c ****             flag = ERROR;
 1667              		.loc 1 720 31 is_stmt 0
 1668 0098 C842     		lw	a0,4(a3)
 720:../Firmware/GD32VF103_standard_peripheral/Source/gd32vf103_can.c ****             flag = ERROR;
 1669              		.loc 1 720 11
 1670 009a 0581     		srli	a0,a0,1
 1671 009c 0589     		andi	a0,a0,1
 1672              		.loc 1 729 1
 1673 009e 8280     		ret
 1674              		.cfi_endproc
 1675              	.LFE17:
 1677              		.section	.text.can_wakeup,"ax",@progbits
 1678              		.align	1
 1679              		.globl	can_wakeup
 1681              	can_wakeup:
 1682              	.LFB18:
 730:../Firmware/GD32VF103_standard_peripheral/Source/gd32vf103_can.c **** 
 731:../Firmware/GD32VF103_standard_peripheral/Source/gd32vf103_can.c **** /*!
 732:../Firmware/GD32VF103_standard_peripheral/Source/gd32vf103_can.c ****     \brief      wake up CAN
 733:../Firmware/GD32VF103_standard_peripheral/Source/gd32vf103_can.c ****     \param[in]  can_periph
 734:../Firmware/GD32VF103_standard_peripheral/Source/gd32vf103_can.c ****       \arg        CANx(x=0,1)
 735:../Firmware/GD32VF103_standard_peripheral/Source/gd32vf103_can.c ****     \param[out] none
 736:../Firmware/GD32VF103_standard_peripheral/Source/gd32vf103_can.c ****     \retval     ErrStatus: SUCCESS or ERROR
 737:../Firmware/GD32VF103_standard_peripheral/Source/gd32vf103_can.c **** */
 738:../Firmware/GD32VF103_standard_peripheral/Source/gd32vf103_can.c **** ErrStatus can_wakeup(uint32_t can_periph)
 739:../Firmware/GD32VF103_standard_peripheral/Source/gd32vf103_can.c **** {
 1683              		.loc 1 739 1 is_stmt 1
 1684              		.cfi_startproc
 1685              	.LVL98:
 740:../Firmware/GD32VF103_standard_peripheral/Source/gd32vf103_can.c ****     ErrStatus flag = ERROR;
 1686              		.loc 1 740 5
 741:../Firmware/GD32VF103_standard_peripheral/Source/gd32vf103_can.c ****     uint32_t timeout = CAN_TIMEOUT;
 1687              		.loc 1 741 5
 742:../Firmware/GD32VF103_standard_peripheral/Source/gd32vf103_can.c ****     
 743:../Firmware/GD32VF103_standard_peripheral/Source/gd32vf103_can.c ****     /* wakeup */
 744:../Firmware/GD32VF103_standard_peripheral/Source/gd32vf103_can.c ****     CAN_CTL(can_periph) &= ~CAN_CTL_SLPWMOD;
 1688              		.loc 1 744 5
 1689              		.loc 1 744 25 is_stmt 0
 1690 0000 1C41     		lw	a5,0(a0)
 745:../Firmware/GD32VF103_standard_peripheral/Source/gd32vf103_can.c ****     
 746:../Firmware/GD32VF103_standard_peripheral/Source/gd32vf103_can.c ****     while((0U != (CAN_STAT(can_periph) & CAN_STAT_SLPWS)) && (0x00U != timeout)){
 1691              		.loc 1 746 19
 1692 0002 93064500 		addi	a3,a0,4
 744:../Firmware/GD32VF103_standard_peripheral/Source/gd32vf103_can.c ****     
 1693              		.loc 1 744 25
 1694 0006 F59B     		andi	a5,a5,-3
 1695 0008 1CC1     		sw	a5,0(a0)
 1696              		.loc 1 746 5 is_stmt 1
 1697              		.loc 1 746 10
 1698              		.loc 1 746 19 is_stmt 0
 1699 000a 5C41     		lw	a5,4(a0)
 1700              		.loc 1 746 40
 1701 000c 898B     		andi	a5,a5,2
 1702              		.loc 1 746 10
 1703 000e 89CB     		beq	a5,zero,.L146
 1704 0010 4167     		li	a4,65536
GAS LISTING /tmp/ccyQOTuX.s 			page 49


 1705 0012 7D17     		addi	a4,a4,-1
 1706 0014 11A0     		j	.L147
 1707              	.LVL99:
 1708              	.L155:
 1709              		.loc 1 746 59 discriminator 1
 1710 0016 09C7     		beq	a4,zero,.L146
 1711              	.LVL100:
 1712              	.L147:
 747:../Firmware/GD32VF103_standard_peripheral/Source/gd32vf103_can.c ****         timeout--;
 1713              		.loc 1 747 9 is_stmt 1
 746:../Firmware/GD32VF103_standard_peripheral/Source/gd32vf103_can.c ****         timeout--;
 1714              		.loc 1 746 10
 746:../Firmware/GD32VF103_standard_peripheral/Source/gd32vf103_can.c ****         timeout--;
 1715              		.loc 1 746 19 is_stmt 0
 1716 0018 9C42     		lw	a5,0(a3)
 746:../Firmware/GD32VF103_standard_peripheral/Source/gd32vf103_can.c ****         timeout--;
 1717              		.loc 1 746 59
 1718 001a 7D17     		addi	a4,a4,-1
 1719              	.LVL101:
 746:../Firmware/GD32VF103_standard_peripheral/Source/gd32vf103_can.c ****         timeout--;
 1720              		.loc 1 746 40
 1721 001c 898B     		andi	a5,a5,2
 746:../Firmware/GD32VF103_standard_peripheral/Source/gd32vf103_can.c ****         timeout--;
 1722              		.loc 1 746 10
 1723 001e E5FF     		bne	a5,zero,.L155
 1724              	.LVL102:
 1725              	.L146:
 748:../Firmware/GD32VF103_standard_peripheral/Source/gd32vf103_can.c ****     }
 749:../Firmware/GD32VF103_standard_peripheral/Source/gd32vf103_can.c ****     /* check state */
 750:../Firmware/GD32VF103_standard_peripheral/Source/gd32vf103_can.c ****     if(0U != (CAN_STAT(can_periph) & CAN_STAT_SLPWS)){
 1726              		.loc 1 750 5 is_stmt 1
 1727              		.loc 1 750 15 is_stmt 0
 1728 0020 4841     		lw	a0,4(a0)
 1729              	.LVL103:
 751:../Firmware/GD32VF103_standard_peripheral/Source/gd32vf103_can.c ****         flag = ERROR;
 752:../Firmware/GD32VF103_standard_peripheral/Source/gd32vf103_can.c ****     }else{
 753:../Firmware/GD32VF103_standard_peripheral/Source/gd32vf103_can.c ****         flag = SUCCESS;
 754:../Firmware/GD32VF103_standard_peripheral/Source/gd32vf103_can.c ****     }
 755:../Firmware/GD32VF103_standard_peripheral/Source/gd32vf103_can.c ****     return flag;
 1730              		.loc 1 755 5 is_stmt 1
 750:../Firmware/GD32VF103_standard_peripheral/Source/gd32vf103_can.c ****         flag = ERROR;
 1731              		.loc 1 750 7 is_stmt 0
 1732 0022 0581     		srli	a0,a0,1
 1733              	.LVL104:
 1734 0024 13451500 		xori	a0,a0,1
 756:../Firmware/GD32VF103_standard_peripheral/Source/gd32vf103_can.c **** }
 1735              		.loc 1 756 1
 1736 0028 0589     		andi	a0,a0,1
 1737 002a 8280     		ret
 1738              		.cfi_endproc
 1739              	.LFE18:
 1741              		.section	.text.can_error_get,"ax",@progbits
 1742              		.align	1
 1743              		.globl	can_error_get
 1745              	can_error_get:
 1746              	.LFB19:
 757:../Firmware/GD32VF103_standard_peripheral/Source/gd32vf103_can.c **** 
GAS LISTING /tmp/ccyQOTuX.s 			page 50


 758:../Firmware/GD32VF103_standard_peripheral/Source/gd32vf103_can.c **** /*!
 759:../Firmware/GD32VF103_standard_peripheral/Source/gd32vf103_can.c ****     \brief      get CAN error type
 760:../Firmware/GD32VF103_standard_peripheral/Source/gd32vf103_can.c ****     \param[in]  can_periph
 761:../Firmware/GD32VF103_standard_peripheral/Source/gd32vf103_can.c ****       \arg        CANx(x=0,1)
 762:../Firmware/GD32VF103_standard_peripheral/Source/gd32vf103_can.c ****     \param[out] none
 763:../Firmware/GD32VF103_standard_peripheral/Source/gd32vf103_can.c ****     \retval     can_error_enum
 764:../Firmware/GD32VF103_standard_peripheral/Source/gd32vf103_can.c ****       \arg        CAN_ERROR_NONE: no error
 765:../Firmware/GD32VF103_standard_peripheral/Source/gd32vf103_can.c ****       \arg        CAN_ERROR_FILL: fill error
 766:../Firmware/GD32VF103_standard_peripheral/Source/gd32vf103_can.c ****       \arg        CAN_ERROR_FORMATE: format error
 767:../Firmware/GD32VF103_standard_peripheral/Source/gd32vf103_can.c ****       \arg        CAN_ERROR_ACK: ACK error
 768:../Firmware/GD32VF103_standard_peripheral/Source/gd32vf103_can.c ****       \arg        CAN_ERROR_BITRECESSIVE: bit recessive
 769:../Firmware/GD32VF103_standard_peripheral/Source/gd32vf103_can.c ****       \arg        CAN_ERROR_BITDOMINANTER: bit dominant error
 770:../Firmware/GD32VF103_standard_peripheral/Source/gd32vf103_can.c ****       \arg        CAN_ERROR_CRC: CRC error
 771:../Firmware/GD32VF103_standard_peripheral/Source/gd32vf103_can.c ****       \arg        CAN_ERROR_SOFTWARECFG: software configure
 772:../Firmware/GD32VF103_standard_peripheral/Source/gd32vf103_can.c **** */
 773:../Firmware/GD32VF103_standard_peripheral/Source/gd32vf103_can.c **** can_error_enum can_error_get(uint32_t can_periph)
 774:../Firmware/GD32VF103_standard_peripheral/Source/gd32vf103_can.c **** {
 1747              		.loc 1 774 1 is_stmt 1
 1748              		.cfi_startproc
 1749              	.LVL105:
 775:../Firmware/GD32VF103_standard_peripheral/Source/gd32vf103_can.c ****     can_error_enum error;
 1750              		.loc 1 775 5
 776:../Firmware/GD32VF103_standard_peripheral/Source/gd32vf103_can.c ****     error = CAN_ERROR_NONE;
 1751              		.loc 1 776 5
 777:../Firmware/GD32VF103_standard_peripheral/Source/gd32vf103_can.c ****     
 778:../Firmware/GD32VF103_standard_peripheral/Source/gd32vf103_can.c ****     /* get error type */
 779:../Firmware/GD32VF103_standard_peripheral/Source/gd32vf103_can.c ****     error = (can_error_enum)(GET_ERR_ERRN(CAN_ERR(can_periph)));
 1752              		.loc 1 779 5
 1753              		.loc 1 779 30 is_stmt 0
 1754 0000 084D     		lw	a0,24(a0)
 1755              	.LVL106:
 780:../Firmware/GD32VF103_standard_peripheral/Source/gd32vf103_can.c ****     return error;
 1756              		.loc 1 780 5 is_stmt 1
 779:../Firmware/GD32VF103_standard_peripheral/Source/gd32vf103_can.c ****     return error;
 1757              		.loc 1 779 30 is_stmt 0
 1758 0002 1181     		srli	a0,a0,4
 1759              	.LVL107:
 781:../Firmware/GD32VF103_standard_peripheral/Source/gd32vf103_can.c **** }
 1760              		.loc 1 781 1
 1761 0004 1D89     		andi	a0,a0,7
 1762              	.LVL108:
 1763 0006 8280     		ret
 1764              		.cfi_endproc
 1765              	.LFE19:
 1767              		.section	.text.can_receive_error_number_get,"ax",@progbits
 1768              		.align	1
 1769              		.globl	can_receive_error_number_get
 1771              	can_receive_error_number_get:
 1772              	.LFB20:
 782:../Firmware/GD32VF103_standard_peripheral/Source/gd32vf103_can.c **** 
 783:../Firmware/GD32VF103_standard_peripheral/Source/gd32vf103_can.c **** /*!
 784:../Firmware/GD32VF103_standard_peripheral/Source/gd32vf103_can.c ****     \brief      get CAN receive error number
 785:../Firmware/GD32VF103_standard_peripheral/Source/gd32vf103_can.c ****     \param[in]  can_periph
 786:../Firmware/GD32VF103_standard_peripheral/Source/gd32vf103_can.c ****       \arg        CANx(x=0,1)
 787:../Firmware/GD32VF103_standard_peripheral/Source/gd32vf103_can.c ****     \param[out] none
 788:../Firmware/GD32VF103_standard_peripheral/Source/gd32vf103_can.c ****     \retval     error number
 789:../Firmware/GD32VF103_standard_peripheral/Source/gd32vf103_can.c **** */
GAS LISTING /tmp/ccyQOTuX.s 			page 51


 790:../Firmware/GD32VF103_standard_peripheral/Source/gd32vf103_can.c **** uint8_t can_receive_error_number_get(uint32_t can_periph)
 791:../Firmware/GD32VF103_standard_peripheral/Source/gd32vf103_can.c **** {
 1773              		.loc 1 791 1 is_stmt 1
 1774              		.cfi_startproc
 1775              	.LVL109:
 792:../Firmware/GD32VF103_standard_peripheral/Source/gd32vf103_can.c ****     uint8_t val;
 1776              		.loc 1 792 5
 793:../Firmware/GD32VF103_standard_peripheral/Source/gd32vf103_can.c ****     
 794:../Firmware/GD32VF103_standard_peripheral/Source/gd32vf103_can.c ****     /* get error count */
 795:../Firmware/GD32VF103_standard_peripheral/Source/gd32vf103_can.c ****     val = (uint8_t)(GET_ERR_RECNT(CAN_ERR(can_periph)));
 1777              		.loc 1 795 5
 1778              		.loc 1 795 21 is_stmt 0
 1779 0000 084D     		lw	a0,24(a0)
 1780              	.LVL110:
 796:../Firmware/GD32VF103_standard_peripheral/Source/gd32vf103_can.c ****     return val;
 1781              		.loc 1 796 5 is_stmt 1
 797:../Firmware/GD32VF103_standard_peripheral/Source/gd32vf103_can.c **** }
 1782              		.loc 1 797 1 is_stmt 0
 1783 0002 6181     		srli	a0,a0,24
 1784              	.LVL111:
 1785 0004 8280     		ret
 1786              		.cfi_endproc
 1787              	.LFE20:
 1789              		.section	.text.can_transmit_error_number_get,"ax",@progbits
 1790              		.align	1
 1791              		.globl	can_transmit_error_number_get
 1793              	can_transmit_error_number_get:
 1794              	.LFB21:
 798:../Firmware/GD32VF103_standard_peripheral/Source/gd32vf103_can.c **** 
 799:../Firmware/GD32VF103_standard_peripheral/Source/gd32vf103_can.c **** /*!
 800:../Firmware/GD32VF103_standard_peripheral/Source/gd32vf103_can.c ****     \brief      get CAN transmit error number
 801:../Firmware/GD32VF103_standard_peripheral/Source/gd32vf103_can.c ****     \param[in]  can_periph
 802:../Firmware/GD32VF103_standard_peripheral/Source/gd32vf103_can.c ****       \arg        CANx(x=0,1)
 803:../Firmware/GD32VF103_standard_peripheral/Source/gd32vf103_can.c ****     \param[out] none
 804:../Firmware/GD32VF103_standard_peripheral/Source/gd32vf103_can.c ****     \retval     error number
 805:../Firmware/GD32VF103_standard_peripheral/Source/gd32vf103_can.c **** */
 806:../Firmware/GD32VF103_standard_peripheral/Source/gd32vf103_can.c **** uint8_t can_transmit_error_number_get(uint32_t can_periph)
 807:../Firmware/GD32VF103_standard_peripheral/Source/gd32vf103_can.c **** {
 1795              		.loc 1 807 1 is_stmt 1
 1796              		.cfi_startproc
 1797              	.LVL112:
 808:../Firmware/GD32VF103_standard_peripheral/Source/gd32vf103_can.c ****     uint8_t val;
 1798              		.loc 1 808 5
 809:../Firmware/GD32VF103_standard_peripheral/Source/gd32vf103_can.c ****     
 810:../Firmware/GD32VF103_standard_peripheral/Source/gd32vf103_can.c ****     val = (uint8_t)(GET_ERR_TECNT(CAN_ERR(can_periph)));
 1799              		.loc 1 810 5
 1800              		.loc 1 810 21 is_stmt 0
 1801 0000 084D     		lw	a0,24(a0)
 1802              	.LVL113:
 811:../Firmware/GD32VF103_standard_peripheral/Source/gd32vf103_can.c ****     return val;
 1803              		.loc 1 811 5 is_stmt 1
 810:../Firmware/GD32VF103_standard_peripheral/Source/gd32vf103_can.c ****     return val;
 1804              		.loc 1 810 21 is_stmt 0
 1805 0002 4181     		srli	a0,a0,16
 1806              	.LVL114:
 812:../Firmware/GD32VF103_standard_peripheral/Source/gd32vf103_can.c **** }
 1807              		.loc 1 812 1
GAS LISTING /tmp/ccyQOTuX.s 			page 52


 1808 0004 1375F50F 		andi	a0,a0,0xff
 1809 0008 8280     		ret
 1810              		.cfi_endproc
 1811              	.LFE21:
 1813              		.section	.text.can_interrupt_enable,"ax",@progbits
 1814              		.align	1
 1815              		.globl	can_interrupt_enable
 1817              	can_interrupt_enable:
 1818              	.LFB22:
 813:../Firmware/GD32VF103_standard_peripheral/Source/gd32vf103_can.c **** 
 814:../Firmware/GD32VF103_standard_peripheral/Source/gd32vf103_can.c **** /*!
 815:../Firmware/GD32VF103_standard_peripheral/Source/gd32vf103_can.c ****     \brief      enable CAN interrupt 
 816:../Firmware/GD32VF103_standard_peripheral/Source/gd32vf103_can.c ****     \param[in]  can_periph
 817:../Firmware/GD32VF103_standard_peripheral/Source/gd32vf103_can.c ****       \arg        CANx(x=0,1)
 818:../Firmware/GD32VF103_standard_peripheral/Source/gd32vf103_can.c ****     \param[in]  interrupt 
 819:../Firmware/GD32VF103_standard_peripheral/Source/gd32vf103_can.c ****                 one or more parameters can be selected which are shown as below:
 820:../Firmware/GD32VF103_standard_peripheral/Source/gd32vf103_can.c ****       \arg        CAN_INT_TME: transmit mailbox empty interrupt enable
 821:../Firmware/GD32VF103_standard_peripheral/Source/gd32vf103_can.c ****       \arg        CAN_INT_RFNE0: receive FIFO0 not empty interrupt enable
 822:../Firmware/GD32VF103_standard_peripheral/Source/gd32vf103_can.c ****       \arg        CAN_INT_RFF0: receive FIFO0 full interrupt enable
 823:../Firmware/GD32VF103_standard_peripheral/Source/gd32vf103_can.c ****       \arg        CAN_INT_RFO0: receive FIFO0 overfull interrupt enable
 824:../Firmware/GD32VF103_standard_peripheral/Source/gd32vf103_can.c ****       \arg        CAN_INT_RFNE1: receive FIFO1 not empty interrupt enable
 825:../Firmware/GD32VF103_standard_peripheral/Source/gd32vf103_can.c ****       \arg        CAN_INT_RFF1: receive FIFO1 full interrupt enable
 826:../Firmware/GD32VF103_standard_peripheral/Source/gd32vf103_can.c ****       \arg        CAN_INT_RFO1: receive FIFO1 overfull interrupt enable
 827:../Firmware/GD32VF103_standard_peripheral/Source/gd32vf103_can.c ****       \arg        CAN_INT_WERR: warning error interrupt enable
 828:../Firmware/GD32VF103_standard_peripheral/Source/gd32vf103_can.c ****       \arg        CAN_INT_PERR: passive error interrupt enable
 829:../Firmware/GD32VF103_standard_peripheral/Source/gd32vf103_can.c ****       \arg        CAN_INT_BO: bus-off interrupt enable
 830:../Firmware/GD32VF103_standard_peripheral/Source/gd32vf103_can.c ****       \arg        CAN_INT_ERRN: error number interrupt enable
 831:../Firmware/GD32VF103_standard_peripheral/Source/gd32vf103_can.c ****       \arg        CAN_INT_ERR: error interrupt enable
 832:../Firmware/GD32VF103_standard_peripheral/Source/gd32vf103_can.c ****       \arg        CAN_INT_WU: wakeup interrupt enable
 833:../Firmware/GD32VF103_standard_peripheral/Source/gd32vf103_can.c ****       \arg        CAN_INT_SLPW: sleep working interrupt enable
 834:../Firmware/GD32VF103_standard_peripheral/Source/gd32vf103_can.c ****     \param[out] none
 835:../Firmware/GD32VF103_standard_peripheral/Source/gd32vf103_can.c ****     \retval     none
 836:../Firmware/GD32VF103_standard_peripheral/Source/gd32vf103_can.c **** */
 837:../Firmware/GD32VF103_standard_peripheral/Source/gd32vf103_can.c **** void can_interrupt_enable(uint32_t can_periph, uint32_t interrupt)
 838:../Firmware/GD32VF103_standard_peripheral/Source/gd32vf103_can.c **** {
 1819              		.loc 1 838 1 is_stmt 1
 1820              		.cfi_startproc
 1821              	.LVL115:
 839:../Firmware/GD32VF103_standard_peripheral/Source/gd32vf103_can.c ****     CAN_INTEN(can_periph) |= interrupt;
 1822              		.loc 1 839 5
 1823              		.loc 1 839 27 is_stmt 0
 1824 0000 5C49     		lw	a5,20(a0)
 1825 0002 CD8F     		or	a5,a5,a1
 1826 0004 5CC9     		sw	a5,20(a0)
 840:../Firmware/GD32VF103_standard_peripheral/Source/gd32vf103_can.c **** }
 1827              		.loc 1 840 1
 1828 0006 8280     		ret
 1829              		.cfi_endproc
 1830              	.LFE22:
 1832              		.section	.text.can_interrupt_disable,"ax",@progbits
 1833              		.align	1
 1834              		.globl	can_interrupt_disable
 1836              	can_interrupt_disable:
 1837              	.LFB23:
 841:../Firmware/GD32VF103_standard_peripheral/Source/gd32vf103_can.c **** 
 842:../Firmware/GD32VF103_standard_peripheral/Source/gd32vf103_can.c **** /*!
 843:../Firmware/GD32VF103_standard_peripheral/Source/gd32vf103_can.c ****     \brief      disable CAN interrupt 
GAS LISTING /tmp/ccyQOTuX.s 			page 53


 844:../Firmware/GD32VF103_standard_peripheral/Source/gd32vf103_can.c ****     \param[in]  can_periph
 845:../Firmware/GD32VF103_standard_peripheral/Source/gd32vf103_can.c ****       \arg        CANx(x=0,1)
 846:../Firmware/GD32VF103_standard_peripheral/Source/gd32vf103_can.c ****     \param[in]  interrupt
 847:../Firmware/GD32VF103_standard_peripheral/Source/gd32vf103_can.c ****                 one or more parameters can be selected which are shown as below:
 848:../Firmware/GD32VF103_standard_peripheral/Source/gd32vf103_can.c ****       \arg        CAN_INT_TME: transmit mailbox empty interrupt enable
 849:../Firmware/GD32VF103_standard_peripheral/Source/gd32vf103_can.c ****       \arg        CAN_INT_RFNE0: receive FIFO0 not empty interrupt enable
 850:../Firmware/GD32VF103_standard_peripheral/Source/gd32vf103_can.c ****       \arg        CAN_INT_RFF0: receive FIFO0 full interrupt enable
 851:../Firmware/GD32VF103_standard_peripheral/Source/gd32vf103_can.c ****       \arg        CAN_INT_RFO0: receive FIFO0 overfull interrupt enable
 852:../Firmware/GD32VF103_standard_peripheral/Source/gd32vf103_can.c ****       \arg        CAN_INT_RFNE1: receive FIFO1 not empty interrupt enable
 853:../Firmware/GD32VF103_standard_peripheral/Source/gd32vf103_can.c ****       \arg        CAN_INT_RFF1: receive FIFO1 full interrupt enable
 854:../Firmware/GD32VF103_standard_peripheral/Source/gd32vf103_can.c ****       \arg        CAN_INT_RFO1: receive FIFO1 overfull interrupt enable
 855:../Firmware/GD32VF103_standard_peripheral/Source/gd32vf103_can.c ****       \arg        CAN_INT_WERR: warning error interrupt enable
 856:../Firmware/GD32VF103_standard_peripheral/Source/gd32vf103_can.c ****       \arg        CAN_INT_PERR: passive error interrupt enable
 857:../Firmware/GD32VF103_standard_peripheral/Source/gd32vf103_can.c ****       \arg        CAN_INT_BO: bus-off interrupt enable
 858:../Firmware/GD32VF103_standard_peripheral/Source/gd32vf103_can.c ****       \arg        CAN_INT_ERRN: error number interrupt enable
 859:../Firmware/GD32VF103_standard_peripheral/Source/gd32vf103_can.c ****       \arg        CAN_INT_ERR: error interrupt enable
 860:../Firmware/GD32VF103_standard_peripheral/Source/gd32vf103_can.c ****       \arg        CAN_INT_WU: wakeup interrupt enable
 861:../Firmware/GD32VF103_standard_peripheral/Source/gd32vf103_can.c ****       \arg        CAN_INT_SLPW: sleep working interrupt enable
 862:../Firmware/GD32VF103_standard_peripheral/Source/gd32vf103_can.c ****     \param[out] none
 863:../Firmware/GD32VF103_standard_peripheral/Source/gd32vf103_can.c ****     \retval     none
 864:../Firmware/GD32VF103_standard_peripheral/Source/gd32vf103_can.c **** */
 865:../Firmware/GD32VF103_standard_peripheral/Source/gd32vf103_can.c **** void can_interrupt_disable(uint32_t can_periph, uint32_t interrupt)
 866:../Firmware/GD32VF103_standard_peripheral/Source/gd32vf103_can.c **** {
 1838              		.loc 1 866 1 is_stmt 1
 1839              		.cfi_startproc
 1840              	.LVL116:
 867:../Firmware/GD32VF103_standard_peripheral/Source/gd32vf103_can.c ****     CAN_INTEN(can_periph) &= ~interrupt;
 1841              		.loc 1 867 5
 1842              		.loc 1 867 27 is_stmt 0
 1843 0000 5C49     		lw	a5,20(a0)
 1844              		.loc 1 867 30
 1845 0002 93C5F5FF 		not	a1,a1
 1846              	.LVL117:
 1847              		.loc 1 867 27
 1848 0006 FD8D     		and	a1,a1,a5
 1849              	.LVL118:
 1850 0008 4CC9     		sw	a1,20(a0)
 868:../Firmware/GD32VF103_standard_peripheral/Source/gd32vf103_can.c **** }
 1851              		.loc 1 868 1
 1852 000a 8280     		ret
 1853              		.cfi_endproc
 1854              	.LFE23:
 1856              		.section	.text.can_flag_get,"ax",@progbits
 1857              		.align	1
 1858              		.globl	can_flag_get
 1860              	can_flag_get:
 1861              	.LFB24:
 869:../Firmware/GD32VF103_standard_peripheral/Source/gd32vf103_can.c **** 
 870:../Firmware/GD32VF103_standard_peripheral/Source/gd32vf103_can.c **** /*!
 871:../Firmware/GD32VF103_standard_peripheral/Source/gd32vf103_can.c ****     \brief      get CAN flag state
 872:../Firmware/GD32VF103_standard_peripheral/Source/gd32vf103_can.c ****     \param[in]  can_periph
 873:../Firmware/GD32VF103_standard_peripheral/Source/gd32vf103_can.c ****       \arg        CANx(x=0,1)
 874:../Firmware/GD32VF103_standard_peripheral/Source/gd32vf103_can.c ****     \param[in]  flag: CAN flags, refer to can_flag_enum
 875:../Firmware/GD32VF103_standard_peripheral/Source/gd32vf103_can.c ****                 only one parameter can be selected which is shown as below:
 876:../Firmware/GD32VF103_standard_peripheral/Source/gd32vf103_can.c ****       \arg        CAN_FLAG_MTE2: mailbox 2 transmit error
 877:../Firmware/GD32VF103_standard_peripheral/Source/gd32vf103_can.c ****       \arg        CAN_FLAG_MTE1: mailbox 1 transmit error
 878:../Firmware/GD32VF103_standard_peripheral/Source/gd32vf103_can.c ****       \arg        CAN_FLAG_MTE0: mailbox 0 transmit error
GAS LISTING /tmp/ccyQOTuX.s 			page 54


 879:../Firmware/GD32VF103_standard_peripheral/Source/gd32vf103_can.c ****       \arg        CAN_FLAG_MTF2: mailbox 2 transmit finished
 880:../Firmware/GD32VF103_standard_peripheral/Source/gd32vf103_can.c ****       \arg        CAN_FLAG_MTF1: mailbox 1 transmit finished
 881:../Firmware/GD32VF103_standard_peripheral/Source/gd32vf103_can.c ****       \arg        CAN_FLAG_MTF0: mailbox 0 transmit finished
 882:../Firmware/GD32VF103_standard_peripheral/Source/gd32vf103_can.c ****       \arg        CAN_FLAG_RFO0: receive FIFO0 overfull
 883:../Firmware/GD32VF103_standard_peripheral/Source/gd32vf103_can.c ****       \arg        CAN_FLAG_RFF0: receive FIFO0 full
 884:../Firmware/GD32VF103_standard_peripheral/Source/gd32vf103_can.c ****       \arg        CAN_FLAG_RFO1: receive FIFO1 overfull
 885:../Firmware/GD32VF103_standard_peripheral/Source/gd32vf103_can.c ****       \arg        CAN_FLAG_RFF1: receive FIFO1 full
 886:../Firmware/GD32VF103_standard_peripheral/Source/gd32vf103_can.c ****       \arg        CAN_FLAG_BOERR: bus-off error
 887:../Firmware/GD32VF103_standard_peripheral/Source/gd32vf103_can.c ****       \arg        CAN_FLAG_PERR: passive error
 888:../Firmware/GD32VF103_standard_peripheral/Source/gd32vf103_can.c ****       \arg        CAN_FLAG_WERR: warning error
 889:../Firmware/GD32VF103_standard_peripheral/Source/gd32vf103_can.c ****     \param[out] none
 890:../Firmware/GD32VF103_standard_peripheral/Source/gd32vf103_can.c ****     \retval     FlagStatus: SET or RESET
 891:../Firmware/GD32VF103_standard_peripheral/Source/gd32vf103_can.c **** */
 892:../Firmware/GD32VF103_standard_peripheral/Source/gd32vf103_can.c **** FlagStatus can_flag_get(uint32_t can_periph, can_flag_enum flag)
 893:../Firmware/GD32VF103_standard_peripheral/Source/gd32vf103_can.c **** {  
 1862              		.loc 1 893 1 is_stmt 1
 1863              		.cfi_startproc
 1864              	.LVL119:
 894:../Firmware/GD32VF103_standard_peripheral/Source/gd32vf103_can.c ****     /* get flag and interrupt enable state */
 895:../Firmware/GD32VF103_standard_peripheral/Source/gd32vf103_can.c ****     if(RESET != (CAN_REG_VAL(can_periph, flag) & BIT(CAN_BIT_POS(flag)))){
 1865              		.loc 1 895 5
 1866              		.loc 1 895 18 is_stmt 0
 1867 0000 93D76500 		srli	a5,a1,6
 1868 0004 AA97     		add	a5,a5,a0
 1869 0006 8843     		lw	a0,0(a5)
 1870              	.LVL120:
 1871              		.loc 1 895 14
 1872 0008 3355B500 		srl	a0,a0,a1
 896:../Firmware/GD32VF103_standard_peripheral/Source/gd32vf103_can.c ****         return SET;
 897:../Firmware/GD32VF103_standard_peripheral/Source/gd32vf103_can.c ****     }else{
 898:../Firmware/GD32VF103_standard_peripheral/Source/gd32vf103_can.c ****         return RESET;
 899:../Firmware/GD32VF103_standard_peripheral/Source/gd32vf103_can.c ****     }
 900:../Firmware/GD32VF103_standard_peripheral/Source/gd32vf103_can.c **** }
 1873              		.loc 1 900 1
 1874 000c 0589     		andi	a0,a0,1
 1875 000e 8280     		ret
 1876              		.cfi_endproc
 1877              	.LFE24:
 1879              		.section	.text.can_flag_clear,"ax",@progbits
 1880              		.align	1
 1881              		.globl	can_flag_clear
 1883              	can_flag_clear:
 1884              	.LFB25:
 901:../Firmware/GD32VF103_standard_peripheral/Source/gd32vf103_can.c **** 
 902:../Firmware/GD32VF103_standard_peripheral/Source/gd32vf103_can.c **** /*!
 903:../Firmware/GD32VF103_standard_peripheral/Source/gd32vf103_can.c ****     \brief      clear CAN flag state
 904:../Firmware/GD32VF103_standard_peripheral/Source/gd32vf103_can.c ****     \param[in]  can_periph
 905:../Firmware/GD32VF103_standard_peripheral/Source/gd32vf103_can.c ****       \arg        CANx(x=0,1)
 906:../Firmware/GD32VF103_standard_peripheral/Source/gd32vf103_can.c ****     \param[in]  flag: CAN flags, refer to can_flag_enum
 907:../Firmware/GD32VF103_standard_peripheral/Source/gd32vf103_can.c ****                 only one parameter can be selected which is shown as below:
 908:../Firmware/GD32VF103_standard_peripheral/Source/gd32vf103_can.c ****       \arg        CAN_FLAG_MTE2: mailbox 2 transmit error
 909:../Firmware/GD32VF103_standard_peripheral/Source/gd32vf103_can.c ****       \arg        CAN_FLAG_MTE1: mailbox 1 transmit error
 910:../Firmware/GD32VF103_standard_peripheral/Source/gd32vf103_can.c ****       \arg        CAN_FLAG_MTE0: mailbox 0 transmit error
 911:../Firmware/GD32VF103_standard_peripheral/Source/gd32vf103_can.c ****       \arg        CAN_FLAG_MTF2: mailbox 2 transmit finished
 912:../Firmware/GD32VF103_standard_peripheral/Source/gd32vf103_can.c ****       \arg        CAN_FLAG_MTF1: mailbox 1 transmit finished
 913:../Firmware/GD32VF103_standard_peripheral/Source/gd32vf103_can.c ****       \arg        CAN_FLAG_MTF0: mailbox 0 transmit finished
 914:../Firmware/GD32VF103_standard_peripheral/Source/gd32vf103_can.c ****       \arg        CAN_FLAG_RFO0: receive FIFO0 overfull
GAS LISTING /tmp/ccyQOTuX.s 			page 55


 915:../Firmware/GD32VF103_standard_peripheral/Source/gd32vf103_can.c ****       \arg        CAN_FLAG_RFF0: receive FIFO0 full
 916:../Firmware/GD32VF103_standard_peripheral/Source/gd32vf103_can.c ****       \arg        CAN_FLAG_RFO1: receive FIFO1 overfull
 917:../Firmware/GD32VF103_standard_peripheral/Source/gd32vf103_can.c ****       \arg        CAN_FLAG_RFF1: receive FIFO1 full
 918:../Firmware/GD32VF103_standard_peripheral/Source/gd32vf103_can.c ****       \arg		  CAN_FLAG_BOERR: bus-off error
 919:../Firmware/GD32VF103_standard_peripheral/Source/gd32vf103_can.c **** 	  \arg		  CAN_FLAG_PERR: passive error
 920:../Firmware/GD32VF103_standard_peripheral/Source/gd32vf103_can.c **** 	  \arg		  CAN_FLAG_WERR: warning error
 921:../Firmware/GD32VF103_standard_peripheral/Source/gd32vf103_can.c ****     \param[out] none
 922:../Firmware/GD32VF103_standard_peripheral/Source/gd32vf103_can.c ****     \retval     none
 923:../Firmware/GD32VF103_standard_peripheral/Source/gd32vf103_can.c **** */
 924:../Firmware/GD32VF103_standard_peripheral/Source/gd32vf103_can.c **** void can_flag_clear(uint32_t can_periph, can_flag_enum flag)
 925:../Firmware/GD32VF103_standard_peripheral/Source/gd32vf103_can.c **** {
 1885              		.loc 1 925 1 is_stmt 1
 1886              		.cfi_startproc
 1887              	.LVL121:
 926:../Firmware/GD32VF103_standard_peripheral/Source/gd32vf103_can.c ****     CAN_REG_VAL(can_periph, flag) = BIT(CAN_BIT_POS(flag));
 1888              		.loc 1 926 5
 1889 0000 93D76500 		srli	a5,a1,6
 1890              		.loc 1 926 37 is_stmt 0
 1891 0004 0547     		li	a4,1
 1892              		.loc 1 926 5
 1893 0006 AA97     		add	a5,a5,a0
 1894              		.loc 1 926 37
 1895 0008 B315B700 		sll	a1,a4,a1
 1896              	.LVL122:
 1897              		.loc 1 926 35
 1898 000c 8CC3     		sw	a1,0(a5)
 927:../Firmware/GD32VF103_standard_peripheral/Source/gd32vf103_can.c **** }
 1899              		.loc 1 927 1
 1900 000e 8280     		ret
 1901              		.cfi_endproc
 1902              	.LFE25:
 1904              		.section	.text.can_interrupt_flag_get,"ax",@progbits
 1905              		.align	1
 1906              		.globl	can_interrupt_flag_get
 1908              	can_interrupt_flag_get:
 1909              	.LFB26:
 928:../Firmware/GD32VF103_standard_peripheral/Source/gd32vf103_can.c **** 
 929:../Firmware/GD32VF103_standard_peripheral/Source/gd32vf103_can.c **** /*!
 930:../Firmware/GD32VF103_standard_peripheral/Source/gd32vf103_can.c ****     \brief      get CAN interrupt flag state
 931:../Firmware/GD32VF103_standard_peripheral/Source/gd32vf103_can.c ****     \param[in]  can_periph
 932:../Firmware/GD32VF103_standard_peripheral/Source/gd32vf103_can.c ****       \arg        CANx(x=0,1)
 933:../Firmware/GD32VF103_standard_peripheral/Source/gd32vf103_can.c ****     \param[in]  flag: CAN interrupt flags, refer to can_interrupt_flag_enum
 934:../Firmware/GD32VF103_standard_peripheral/Source/gd32vf103_can.c ****                 only one parameter can be selected which is shown as below:
 935:../Firmware/GD32VF103_standard_peripheral/Source/gd32vf103_can.c ****       \arg        CAN_INT_FLAG_SLPIF: status change interrupt flag of sleep working mode entering
 936:../Firmware/GD32VF103_standard_peripheral/Source/gd32vf103_can.c ****       \arg        CAN_INT_FLAG_WUIF: status change interrupt flag of wakeup from sleep working mode
 937:../Firmware/GD32VF103_standard_peripheral/Source/gd32vf103_can.c ****       \arg        CAN_INT_FLAG_ERRIF: error interrupt flag
 938:../Firmware/GD32VF103_standard_peripheral/Source/gd32vf103_can.c ****       \arg        CAN_INT_FLAG_MTF2: mailbox 2 transmit finished interrupt flag
 939:../Firmware/GD32VF103_standard_peripheral/Source/gd32vf103_can.c ****       \arg        CAN_INT_FLAG_MTF1: mailbox 1 transmit finished interrupt flag
 940:../Firmware/GD32VF103_standard_peripheral/Source/gd32vf103_can.c ****       \arg        CAN_INT_FLAG_MTF0: mailbox 0 transmit finished interrupt flag
 941:../Firmware/GD32VF103_standard_peripheral/Source/gd32vf103_can.c ****       \arg        CAN_INT_FLAG_RFO0: receive FIFO0 overfull interrupt flag
 942:../Firmware/GD32VF103_standard_peripheral/Source/gd32vf103_can.c ****       \arg        CAN_INT_FLAG_RFF0: receive FIFO0 full interrupt flag
 943:../Firmware/GD32VF103_standard_peripheral/Source/gd32vf103_can.c ****       \arg        CAN_INT_FLAG_RFO1: receive FIFO1 overfull interrupt flag
 944:../Firmware/GD32VF103_standard_peripheral/Source/gd32vf103_can.c ****       \arg        CAN_INT_FLAG_RFF1: receive FIFO1 full interrupt flag
 945:../Firmware/GD32VF103_standard_peripheral/Source/gd32vf103_can.c ****     \param[out] none
 946:../Firmware/GD32VF103_standard_peripheral/Source/gd32vf103_can.c ****     \retval     FlagStatus: SET or RESET
 947:../Firmware/GD32VF103_standard_peripheral/Source/gd32vf103_can.c **** */
 948:../Firmware/GD32VF103_standard_peripheral/Source/gd32vf103_can.c **** FlagStatus can_interrupt_flag_get(uint32_t can_periph, can_interrupt_flag_enum flag)
GAS LISTING /tmp/ccyQOTuX.s 			page 56


 949:../Firmware/GD32VF103_standard_peripheral/Source/gd32vf103_can.c **** {  
 1910              		.loc 1 949 1 is_stmt 1
 1911              		.cfi_startproc
 1912              	.LVL123:
 950:../Firmware/GD32VF103_standard_peripheral/Source/gd32vf103_can.c **** 	uint32_t ret1 = RESET;
 1913              		.loc 1 950 2
 951:../Firmware/GD32VF103_standard_peripheral/Source/gd32vf103_can.c **** 	uint32_t ret2 = RESET;
 1914              		.loc 1 951 2
 952:../Firmware/GD32VF103_standard_peripheral/Source/gd32vf103_can.c ****     
 953:../Firmware/GD32VF103_standard_peripheral/Source/gd32vf103_can.c ****     /* get the staus of interrupt flag */
 954:../Firmware/GD32VF103_standard_peripheral/Source/gd32vf103_can.c ****     ret1 = CAN_REG_VALS(can_periph, flag) & BIT(CAN_BIT_POS0(flag));
 1915              		.loc 1 954 5
 1916              		.loc 1 954 12 is_stmt 0
 1917 0000 93D7C500 		srli	a5,a1,12
 1918 0004 AA97     		add	a5,a5,a0
 1919 0006 9443     		lw	a3,0(a5)
 1920              		.loc 1 954 45
 1921 0008 0547     		li	a4,1
 1922 000a 93D76500 		srli	a5,a1,6
 955:../Firmware/GD32VF103_standard_peripheral/Source/gd32vf103_can.c ****     /* get the staus of interrupt enale bit */
 956:../Firmware/GD32VF103_standard_peripheral/Source/gd32vf103_can.c ****     ret2 = CAN_INTEN(can_periph) & BIT(CAN_BIT_POS1(flag));
 1923              		.loc 1 956 12
 1924 000e 5049     		lw	a2,20(a0)
 954:../Firmware/GD32VF103_standard_peripheral/Source/gd32vf103_can.c ****     /* get the staus of interrupt enale bit */
 1925              		.loc 1 954 45
 1926 0010 B317F700 		sll	a5,a4,a5
 954:../Firmware/GD32VF103_standard_peripheral/Source/gd32vf103_can.c ****     /* get the staus of interrupt enale bit */
 1927              		.loc 1 954 10
 1928 0014 33F5D700 		and	a0,a5,a3
 1929              	.LVL124:
 1930              		.loc 1 956 5 is_stmt 1
 957:../Firmware/GD32VF103_standard_peripheral/Source/gd32vf103_can.c ****     if(ret1 && ret2){
 1931              		.loc 1 957 5
 1932              		.loc 1 957 7 is_stmt 0
 1933 0018 11C5     		beq	a0,zero,.L163
 956:../Firmware/GD32VF103_standard_peripheral/Source/gd32vf103_can.c ****     if(ret1 && ret2){
 1934              		.loc 1 956 36 discriminator 1
 1935 001a 3315B700 		sll	a0,a4,a1
 1936              	.LVL125:
 956:../Firmware/GD32VF103_standard_peripheral/Source/gd32vf103_can.c ****     if(ret1 && ret2){
 1937              		.loc 1 956 10 discriminator 1
 1938 001e 718D     		and	a0,a0,a2
 1939              		.loc 1 957 13 discriminator 1
 1940 0020 3335A000 		snez	a0,a0
 1941              	.L163:
 958:../Firmware/GD32VF103_standard_peripheral/Source/gd32vf103_can.c ****         return SET;
 959:../Firmware/GD32VF103_standard_peripheral/Source/gd32vf103_can.c ****     }else{
 960:../Firmware/GD32VF103_standard_peripheral/Source/gd32vf103_can.c ****         return RESET;
 961:../Firmware/GD32VF103_standard_peripheral/Source/gd32vf103_can.c ****     }
 962:../Firmware/GD32VF103_standard_peripheral/Source/gd32vf103_can.c **** }
 1942              		.loc 1 962 1
 1943 0024 8280     		ret
 1944              		.cfi_endproc
 1945              	.LFE26:
 1947              		.section	.text.can_interrupt_flag_clear,"ax",@progbits
 1948              		.align	1
 1949              		.globl	can_interrupt_flag_clear
GAS LISTING /tmp/ccyQOTuX.s 			page 57


 1951              	can_interrupt_flag_clear:
 1952              	.LFB27:
 963:../Firmware/GD32VF103_standard_peripheral/Source/gd32vf103_can.c **** 
 964:../Firmware/GD32VF103_standard_peripheral/Source/gd32vf103_can.c **** /*!
 965:../Firmware/GD32VF103_standard_peripheral/Source/gd32vf103_can.c ****     \brief      clear CAN interrupt flag state
 966:../Firmware/GD32VF103_standard_peripheral/Source/gd32vf103_can.c ****     \param[in]  can_periph
 967:../Firmware/GD32VF103_standard_peripheral/Source/gd32vf103_can.c ****       \arg        CANx(x=0,1)
 968:../Firmware/GD32VF103_standard_peripheral/Source/gd32vf103_can.c ****     \param[in]  flag: CAN interrupt flags, refer to can_interrupt_flag_enum
 969:../Firmware/GD32VF103_standard_peripheral/Source/gd32vf103_can.c ****                 only one parameter can be selected which is shown as below:
 970:../Firmware/GD32VF103_standard_peripheral/Source/gd32vf103_can.c ****       \arg        CAN_INT_FLAG_SLPIF: status change interrupt flag of sleep working mode entering
 971:../Firmware/GD32VF103_standard_peripheral/Source/gd32vf103_can.c ****       \arg        CAN_INT_FLAG_WUIF: status change interrupt flag of wakeup from sleep working mode
 972:../Firmware/GD32VF103_standard_peripheral/Source/gd32vf103_can.c ****       \arg        CAN_INT_FLAG_ERRIF: error interrupt flag
 973:../Firmware/GD32VF103_standard_peripheral/Source/gd32vf103_can.c ****       \arg        CAN_INT_FLAG_MTF2: mailbox 2 transmit finished interrupt flag
 974:../Firmware/GD32VF103_standard_peripheral/Source/gd32vf103_can.c ****       \arg        CAN_INT_FLAG_MTF1: mailbox 1 transmit finished interrupt flag
 975:../Firmware/GD32VF103_standard_peripheral/Source/gd32vf103_can.c ****       \arg        CAN_INT_FLAG_MTF0: mailbox 0 transmit finished interrupt flag
 976:../Firmware/GD32VF103_standard_peripheral/Source/gd32vf103_can.c ****       \arg        CAN_INT_FLAG_RFO0: receive FIFO0 overfull interrupt flag
 977:../Firmware/GD32VF103_standard_peripheral/Source/gd32vf103_can.c ****       \arg        CAN_INT_FLAG_RFF0: receive FIFO0 full interrupt flag
 978:../Firmware/GD32VF103_standard_peripheral/Source/gd32vf103_can.c ****       \arg        CAN_INT_FLAG_RFO1: receive FIFO1 overfull interrupt flag
 979:../Firmware/GD32VF103_standard_peripheral/Source/gd32vf103_can.c ****       \arg        CAN_INT_FLAG_RFF1: receive FIFO1 full interrupt flag
 980:../Firmware/GD32VF103_standard_peripheral/Source/gd32vf103_can.c **** 	  \arg		  CAN_FLAG_BOERR: bus-off error
 981:../Firmware/GD32VF103_standard_peripheral/Source/gd32vf103_can.c **** 	  \arg		  CAN_FLAG_PERR: passive error
 982:../Firmware/GD32VF103_standard_peripheral/Source/gd32vf103_can.c **** 	  \arg		  CAN_FLAG_WERR: warning error
 983:../Firmware/GD32VF103_standard_peripheral/Source/gd32vf103_can.c ****     \param[out] none
 984:../Firmware/GD32VF103_standard_peripheral/Source/gd32vf103_can.c ****     \retval     none
 985:../Firmware/GD32VF103_standard_peripheral/Source/gd32vf103_can.c **** */
 986:../Firmware/GD32VF103_standard_peripheral/Source/gd32vf103_can.c **** void can_interrupt_flag_clear(uint32_t can_periph, can_interrupt_flag_enum flag)
 987:../Firmware/GD32VF103_standard_peripheral/Source/gd32vf103_can.c **** {
 1953              		.loc 1 987 1 is_stmt 1
 1954              		.cfi_startproc
 1955              	.LVL126:
 988:../Firmware/GD32VF103_standard_peripheral/Source/gd32vf103_can.c ****     CAN_REG_VALS(can_periph, flag) = BIT(CAN_BIT_POS0(flag));
 1956              		.loc 1 988 5
 1957 0000 93D7C500 		srli	a5,a1,12
 1958              		.loc 1 988 38 is_stmt 0
 1959 0004 0547     		li	a4,1
 1960 0006 9981     		srli	a1,a1,6
 1961              	.LVL127:
 1962              		.loc 1 988 5
 1963 0008 AA97     		add	a5,a5,a0
 1964              		.loc 1 988 38
 1965 000a B315B700 		sll	a1,a4,a1
 1966              		.loc 1 988 36
 1967 000e 8CC3     		sw	a1,0(a5)
 989:../Firmware/GD32VF103_standard_peripheral/Source/gd32vf103_can.c **** }
 1968              		.loc 1 989 1
 1969 0010 8280     		ret
 1970              		.cfi_endproc
 1971              	.LFE27:
 1973              		.text
 1974              	.Letext0:
 1975              		.file 2 "/home/johnson/Documents/mpb-toolchain/build/riscv32-mapleboard-elf/include/machine/_defau
 1976              		.file 3 "/home/johnson/Documents/mpb-toolchain/build/riscv32-mapleboard-elf/include/sys/_stdint.h"
 1977              		.file 4 "../Firmware/GD32VF103_standard_peripheral/gd32vf103.h"
 1978              		.file 5 "../Firmware/GD32VF103_standard_peripheral/Include/gd32vf103_dbg.h"
 1979              		.file 6 "../Firmware/GD32VF103_standard_peripheral/Include/gd32vf103_rcu.h"
 1980              		.file 7 "../Firmware/GD32VF103_standard_peripheral/Include/gd32vf103_can.h"
GAS LISTING /tmp/ccyQOTuX.s 			page 58


DEFINED SYMBOLS
                            *ABS*:0000000000000000 gd32vf103_can.c
     /tmp/ccyQOTuX.s:13     .text.can_deinit:0000000000000000 can_deinit
     /tmp/ccyQOTuX.s:17     .text.can_deinit:0000000000000000 .L0 
     /tmp/ccyQOTuX.s:19     .text.can_deinit:0000000000000000 .L0 
     /tmp/ccyQOTuX.s:20     .text.can_deinit:0000000000000000 .L0 
     /tmp/ccyQOTuX.s:21     .text.can_deinit:0000000000000000 .L0 
     /tmp/ccyQOTuX.s:23     .text.can_deinit:0000000000000002 .L0 
     /tmp/ccyQOTuX.s:25     .text.can_deinit:0000000000000002 .L0 
     /tmp/ccyQOTuX.s:27     .text.can_deinit:0000000000000006 .L0 
     /tmp/ccyQOTuX.s:28     .text.can_deinit:0000000000000008 .L0 
     /tmp/ccyQOTuX.s:30     .text.can_deinit:0000000000000008 .L0 
     /tmp/ccyQOTuX.s:33     .text.can_deinit:0000000000000010 .L0 
     /tmp/ccyQOTuX.s:38     .text.can_deinit:000000000000001c .L0 
     /tmp/ccyQOTuX.s:39     .text.can_deinit:000000000000001c .L0 
     /tmp/ccyQOTuX.s:40     .text.can_deinit:000000000000001e .L0 
     /tmp/ccyQOTuX.s:41     .text.can_deinit:000000000000001e .L0 
     /tmp/ccyQOTuX.s:43     .text.can_deinit:000000000000001e .L0 
     /tmp/ccyQOTuX.s:45     .text.can_deinit:0000000000000022 .L0 
     /tmp/ccyQOTuX.s:47     .text.can_deinit:0000000000000024 .L0 
     /tmp/ccyQOTuX.s:49     .text.can_deinit:0000000000000024 .L0 
     /tmp/ccyQOTuX.s:53     .text.can_deinit:000000000000002c .L0 
     /tmp/ccyQOTuX.s:55     .text.can_deinit:000000000000002c .L0 
     /tmp/ccyQOTuX.s:60     .text.can_deinit:0000000000000038 .L0 
     /tmp/ccyQOTuX.s:61     .text.can_deinit:0000000000000038 .L0 
     /tmp/ccyQOTuX.s:62     .text.can_deinit:000000000000003a .L0 
     /tmp/ccyQOTuX.s:64     .text.can_deinit:000000000000003a .L0 
     /tmp/ccyQOTuX.s:66     .text.can_deinit:000000000000003e .L0 
     /tmp/ccyQOTuX.s:68     .text.can_deinit:0000000000000040 .L0 
     /tmp/ccyQOTuX.s:70     .text.can_deinit:0000000000000040 .L0 
     /tmp/ccyQOTuX.s:72     .text.can_deinit:0000000000000048 .L0 
     /tmp/ccyQOTuX.s:79     .text.can_struct_para_init:0000000000000000 can_struct_para_init
     /tmp/ccyQOTuX.s:82     .text.can_struct_para_init:0000000000000000 .L0 
     /tmp/ccyQOTuX.s:84     .text.can_struct_para_init:0000000000000000 .L0 
     /tmp/ccyQOTuX.s:85     .text.can_struct_para_init:0000000000000000 .L0 
     /tmp/ccyQOTuX.s:86     .text.can_struct_para_init:0000000000000000 .L0 
     /tmp/ccyQOTuX.s:91     .text.can_struct_para_init:000000000000000c .L0 
     /tmp/ccyQOTuX.s:92     .text.can_struct_para_init:000000000000000c .L0 
     /tmp/ccyQOTuX.s:93     .text.can_struct_para_init:000000000000000c .L0 
     /tmp/ccyQOTuX.s:94     .text.can_struct_para_init:000000000000000c .L0 
     /tmp/ccyQOTuX.s:95     .text.can_struct_para_init:000000000000000c .L0 
     /tmp/ccyQOTuX.s:96     .text.can_struct_para_init:000000000000000c .L0 
     /tmp/ccyQOTuX.s:97     .text.can_struct_para_init:000000000000000c .L0 
     /tmp/ccyQOTuX.s:98     .text.can_struct_para_init:000000000000000c .L0 
     /tmp/ccyQOTuX.s:99     .text.can_struct_para_init:000000000000000c .L0 
     /tmp/ccyQOTuX.s:100    .text.can_struct_para_init:000000000000000c .L0 
     /tmp/ccyQOTuX.s:102    .text.can_struct_para_init:000000000000000e .L0 
     /tmp/ccyQOTuX.s:104    .text.can_struct_para_init:0000000000000012 .L0 
     /tmp/ccyQOTuX.s:106    .text.can_struct_para_init:0000000000000016 .L0 
     /tmp/ccyQOTuX.s:108    .text.can_struct_para_init:000000000000001a .L0 
     /tmp/ccyQOTuX.s:110    .text.can_struct_para_init:000000000000001c .L0 
     /tmp/ccyQOTuX.s:112    .text.can_struct_para_init:0000000000000020 .L0 
     /tmp/ccyQOTuX.s:115    .text.can_struct_para_init:0000000000000022 .L0 
     /tmp/ccyQOTuX.s:118    .text.can_struct_para_init:0000000000000028 .L0 
     /tmp/ccyQOTuX.s:127    .text.can_struct_para_init:0000000000000048 .L0 
     /tmp/ccyQOTuX.s:128    .text.can_struct_para_init:0000000000000048 .L0 
     /tmp/ccyQOTuX.s:129    .text.can_struct_para_init:0000000000000048 .L0 
GAS LISTING /tmp/ccyQOTuX.s 			page 59


     /tmp/ccyQOTuX.s:130    .text.can_struct_para_init:0000000000000048 .L0 
     /tmp/ccyQOTuX.s:131    .text.can_struct_para_init:0000000000000048 .L0 
     /tmp/ccyQOTuX.s:133    .text.can_struct_para_init:000000000000004c .L0 
     /tmp/ccyQOTuX.s:134    .text.can_struct_para_init:000000000000004c .L0 
     /tmp/ccyQOTuX.s:135    .text.can_struct_para_init:000000000000004c .L0 
     /tmp/ccyQOTuX.s:137    .text.can_struct_para_init:0000000000000050 .L0 
     /tmp/ccyQOTuX.s:139    .text.can_struct_para_init:0000000000000054 .L0 
     /tmp/ccyQOTuX.s:141    .text.can_struct_para_init:0000000000000058 .L0 
     /tmp/ccyQOTuX.s:143    .text.can_struct_para_init:000000000000005c .L0 
     /tmp/ccyQOTuX.s:144    .text.can_struct_para_init:000000000000005c .L0 
     /tmp/ccyQOTuX.s:148    .text.can_struct_para_init:000000000000005e .L0 
     /tmp/ccyQOTuX.s:149    .text.can_struct_para_init:000000000000005e .L0 
     /tmp/ccyQOTuX.s:150    .text.can_struct_para_init:000000000000005e .L0 
     /tmp/ccyQOTuX.s:151    .text.can_struct_para_init:000000000000005e .L0 
     /tmp/ccyQOTuX.s:152    .text.can_struct_para_init:000000000000005e .L0 
     /tmp/ccyQOTuX.s:153    .text.can_struct_para_init:000000000000005e .L0 
     /tmp/ccyQOTuX.s:156    .text.can_struct_para_init:0000000000000060 .L0 
     /tmp/ccyQOTuX.s:157    .text.can_struct_para_init:0000000000000060 .L0 
     /tmp/ccyQOTuX.s:158    .text.can_struct_para_init:0000000000000060 .L0 
     /tmp/ccyQOTuX.s:159    .text.can_struct_para_init:0000000000000060 .L0 
     /tmp/ccyQOTuX.s:160    .text.can_struct_para_init:0000000000000060 .L0 
     /tmp/ccyQOTuX.s:161    .text.can_struct_para_init:0000000000000060 .L0 
     /tmp/ccyQOTuX.s:162    .text.can_struct_para_init:0000000000000060 .L0 
     /tmp/ccyQOTuX.s:163    .text.can_struct_para_init:0000000000000060 .L0 
     /tmp/ccyQOTuX.s:164    .text.can_struct_para_init:0000000000000060 .L0 
     /tmp/ccyQOTuX.s:165    .text.can_struct_para_init:0000000000000060 .L0 
     /tmp/ccyQOTuX.s:166    .text.can_struct_para_init:0000000000000060 .L0 
     /tmp/ccyQOTuX.s:167    .text.can_struct_para_init:0000000000000060 .L0 
     /tmp/ccyQOTuX.s:170    .text.can_struct_para_init:0000000000000066 .L0 
     /tmp/ccyQOTuX.s:172    .text.can_struct_para_init:000000000000006a .L0 
     /tmp/ccyQOTuX.s:174    .text.can_struct_para_init:000000000000006e .L0 
     /tmp/ccyQOTuX.s:176    .text.can_struct_para_init:0000000000000072 .L0 
     /tmp/ccyQOTuX.s:178    .text.can_struct_para_init:0000000000000076 .L0 
     /tmp/ccyQOTuX.s:180    .text.can_struct_para_init:000000000000007a .L0 
     /tmp/ccyQOTuX.s:182    .text.can_struct_para_init:000000000000007e .L0 
     /tmp/ccyQOTuX.s:184    .text.can_struct_para_init:0000000000000082 .L0 
     /tmp/ccyQOTuX.s:186    .text.can_struct_para_init:0000000000000086 .L0 
     /tmp/ccyQOTuX.s:189    .text.can_struct_para_init:0000000000000088 .L0 
     /tmp/ccyQOTuX.s:198    .text.can_struct_para_init:00000000000000a8 .L0 
     /tmp/ccyQOTuX.s:199    .text.can_struct_para_init:00000000000000a8 .L0 
     /tmp/ccyQOTuX.s:200    .text.can_struct_para_init:00000000000000a8 .L0 
     /tmp/ccyQOTuX.s:201    .text.can_struct_para_init:00000000000000a8 .L0 
     /tmp/ccyQOTuX.s:202    .text.can_struct_para_init:00000000000000a8 .L0 
     /tmp/ccyQOTuX.s:203    .text.can_struct_para_init:00000000000000a8 .L0 
     /tmp/ccyQOTuX.s:205    .text.can_struct_para_init:00000000000000ac .L0 
     /tmp/ccyQOTuX.s:207    .text.can_struct_para_init:00000000000000b0 .L0 
     /tmp/ccyQOTuX.s:209    .text.can_struct_para_init:00000000000000b4 .L0 
     /tmp/ccyQOTuX.s:211    .text.can_struct_para_init:00000000000000b8 .L0 
     /tmp/ccyQOTuX.s:212    .text.can_struct_para_init:00000000000000ba .L0 
     /tmp/ccyQOTuX.s:219    .text.can_init:0000000000000000 can_init
     /tmp/ccyQOTuX.s:222    .text.can_init:0000000000000000 .L0 
     /tmp/ccyQOTuX.s:224    .text.can_init:0000000000000000 .L0 
     /tmp/ccyQOTuX.s:225    .text.can_init:0000000000000000 .L0 
     /tmp/ccyQOTuX.s:226    .text.can_init:0000000000000000 .L0 
     /tmp/ccyQOTuX.s:227    .text.can_init:0000000000000000 .L0 
     /tmp/ccyQOTuX.s:228    .text.can_init:0000000000000000 .L0 
     /tmp/ccyQOTuX.s:230    .text.can_init:0000000000000002 .L0 
GAS LISTING /tmp/ccyQOTuX.s 			page 60


     /tmp/ccyQOTuX.s:232    .text.can_init:0000000000000004 .L0 
     /tmp/ccyQOTuX.s:234    .text.can_init:0000000000000008 .L0 
     /tmp/ccyQOTuX.s:237    .text.can_init:000000000000000c .L0 
     /tmp/ccyQOTuX.s:238    .text.can_init:000000000000000c .L0 
     /tmp/ccyQOTuX.s:242    .text.can_init:0000000000000014 .L0 
     /tmp/ccyQOTuX.s:243    .text.can_init:0000000000000014 .L0 
     /tmp/ccyQOTuX.s:244    .text.can_init:0000000000000014 .L0 
     /tmp/ccyQOTuX.s:246    .text.can_init:0000000000000016 .L0 
     /tmp/ccyQOTuX.s:248    .text.can_init:0000000000000018 .L0 
     /tmp/ccyQOTuX.s:255    .text.can_init:0000000000000020 .L0 
     /tmp/ccyQOTuX.s:259    .text.can_init:0000000000000022 .L0 
     /tmp/ccyQOTuX.s:260    .text.can_init:0000000000000022 .L0 
     /tmp/ccyQOTuX.s:261    .text.can_init:0000000000000022 .L0 
     /tmp/ccyQOTuX.s:263    .text.can_init:0000000000000024 .L0 
     /tmp/ccyQOTuX.s:266    .text.can_init:0000000000000026 .L0 
     /tmp/ccyQOTuX.s:268    .text.can_init:0000000000000028 .L0 
     /tmp/ccyQOTuX.s:272    .text.can_init:000000000000002a .L0 
     /tmp/ccyQOTuX.s:273    .text.can_init:000000000000002a .L0 
     /tmp/ccyQOTuX.s:276    .text.can_init:000000000000002c .L0 
     /tmp/ccyQOTuX.s:278    .text.can_init:000000000000002e .L0 
     /tmp/ccyQOTuX.s:280    .text.can_init:0000000000000030 .L0 
     /tmp/ccyQOTuX.s:281    .text.can_init:0000000000000030 .L0 
     /tmp/ccyQOTuX.s:283    .text.can_init:0000000000000034 .L0 
     /tmp/ccyQOTuX.s:285    .text.can_init:0000000000000038 .L0 
     /tmp/ccyQOTuX.s:287    .text.can_init:000000000000003c .L0 
     /tmp/ccyQOTuX.s:290    .text.can_init:0000000000000042 .L0 
     /tmp/ccyQOTuX.s:292    .text.can_init:0000000000000046 .L0 
     /tmp/ccyQOTuX.s:294    .text.can_init:000000000000004a .L0 
     /tmp/ccyQOTuX.s:297    .text.can_init:0000000000000050 .L0 
     /tmp/ccyQOTuX.s:299    .text.can_init:0000000000000054 .L0 
     /tmp/ccyQOTuX.s:301    .text.can_init:0000000000000058 .L0 
     /tmp/ccyQOTuX.s:303    .text.can_init:000000000000005c .L0 
     /tmp/ccyQOTuX.s:305    .text.can_init:0000000000000060 .L0 
     /tmp/ccyQOTuX.s:307    .text.can_init:0000000000000064 .L0 
     /tmp/ccyQOTuX.s:311    .text.can_init:000000000000006e .L0 
     /tmp/ccyQOTuX.s:313    .text.can_init:0000000000000070 .L0 
     /tmp/ccyQOTuX.s:315    .text.can_init:0000000000000074 .L0 
     /tmp/ccyQOTuX.s:317    .text.can_init:0000000000000078 .L0 
     /tmp/ccyQOTuX.s:319    .text.can_init:000000000000007c .L0 
     /tmp/ccyQOTuX.s:321    .text.can_init:000000000000007e .L0 
     /tmp/ccyQOTuX.s:323    .text.can_init:0000000000000080 .L0 
     /tmp/ccyQOTuX.s:324    .text.can_init:0000000000000080 .L0 
     /tmp/ccyQOTuX.s:327    .text.can_init:0000000000000086 .L0 
     /tmp/ccyQOTuX.s:328    .text.can_init:0000000000000086 .L0 
     /tmp/ccyQOTuX.s:330    .text.can_init:0000000000000088 .L0 
     /tmp/ccyQOTuX.s:332    .text.can_init:000000000000008a .L0 
     /tmp/ccyQOTuX.s:335    .text.can_init:0000000000000090 .L0 
     /tmp/ccyQOTuX.s:336    .text.can_init:0000000000000090 .L0 
     /tmp/ccyQOTuX.s:340    .text.can_init:0000000000000096 .L0 
     /tmp/ccyQOTuX.s:341    .text.can_init:0000000000000096 .L0 
     /tmp/ccyQOTuX.s:343    .text.can_init:0000000000000098 .L0 
     /tmp/ccyQOTuX.s:345    .text.can_init:000000000000009a .L0 
     /tmp/ccyQOTuX.s:348    .text.can_init:00000000000000a0 .L0 
     /tmp/ccyQOTuX.s:349    .text.can_init:00000000000000a0 .L0 
     /tmp/ccyQOTuX.s:353    .text.can_init:00000000000000a6 .L0 
     /tmp/ccyQOTuX.s:354    .text.can_init:00000000000000a6 .L0 
     /tmp/ccyQOTuX.s:356    .text.can_init:00000000000000a8 .L0 
GAS LISTING /tmp/ccyQOTuX.s 			page 61


     /tmp/ccyQOTuX.s:358    .text.can_init:00000000000000aa .L0 
     /tmp/ccyQOTuX.s:361    .text.can_init:00000000000000b0 .L0 
     /tmp/ccyQOTuX.s:362    .text.can_init:00000000000000b0 .L0 
     /tmp/ccyQOTuX.s:366    .text.can_init:00000000000000b6 .L0 
     /tmp/ccyQOTuX.s:367    .text.can_init:00000000000000b6 .L0 
     /tmp/ccyQOTuX.s:369    .text.can_init:00000000000000b8 .L0 
     /tmp/ccyQOTuX.s:371    .text.can_init:00000000000000ba .L0 
     /tmp/ccyQOTuX.s:374    .text.can_init:00000000000000be .L0 
     /tmp/ccyQOTuX.s:375    .text.can_init:00000000000000be .L0 
     /tmp/ccyQOTuX.s:379    .text.can_init:00000000000000c4 .L0 
     /tmp/ccyQOTuX.s:380    .text.can_init:00000000000000c4 .L0 
     /tmp/ccyQOTuX.s:382    .text.can_init:00000000000000c6 .L0 
     /tmp/ccyQOTuX.s:384    .text.can_init:00000000000000c8 .L0 
     /tmp/ccyQOTuX.s:387    .text.can_init:00000000000000cc .L0 
     /tmp/ccyQOTuX.s:388    .text.can_init:00000000000000cc .L0 
     /tmp/ccyQOTuX.s:392    .text.can_init:00000000000000d2 .L0 
     /tmp/ccyQOTuX.s:393    .text.can_init:00000000000000d2 .L0 
     /tmp/ccyQOTuX.s:398    .text.can_init:00000000000000d8 .L0 
     /tmp/ccyQOTuX.s:399    .text.can_init:00000000000000d8 .L0 
     /tmp/ccyQOTuX.s:404    .text.can_init:00000000000000de .L0 
     /tmp/ccyQOTuX.s:405    .text.can_init:00000000000000de .L0 
     /tmp/ccyQOTuX.s:406    .text.can_init:00000000000000de .L0 
     /tmp/ccyQOTuX.s:407    .text.can_init:00000000000000de .L0 
     /tmp/ccyQOTuX.s:409    .text.can_init:00000000000000e0 .L0 
     /tmp/ccyQOTuX.s:411    .text.can_init:00000000000000e2 .L0 
     /tmp/ccyQOTuX.s:413    .text.can_init:00000000000000e4 .L0 
     /tmp/ccyQOTuX.s:419    .text.can_init:00000000000000ea .L0 
     /tmp/ccyQOTuX.s:423    .text.can_init:00000000000000ec .L0 
     /tmp/ccyQOTuX.s:424    .text.can_init:00000000000000ec .L0 
     /tmp/ccyQOTuX.s:426    .text.can_init:00000000000000ee .L0 
     /tmp/ccyQOTuX.s:429    .text.can_init:00000000000000f0 .L0 
     /tmp/ccyQOTuX.s:430    .text.can_init:00000000000000f0 .L0 
     /tmp/ccyQOTuX.s:432    .text.can_init:00000000000000f2 .L0 
     /tmp/ccyQOTuX.s:434    .text.can_init:00000000000000f4 .L0 
     /tmp/ccyQOTuX.s:439    .text.can_init:00000000000000fa .L0 
     /tmp/ccyQOTuX.s:443    .text.can_init:00000000000000fc .L0 
     /tmp/ccyQOTuX.s:444    .text.can_init:00000000000000fc .L0 
     /tmp/ccyQOTuX.s:446    .text.can_init:0000000000000100 .L0 
     /tmp/ccyQOTuX.s:447    .text.can_init:0000000000000100 .L0 
     /tmp/ccyQOTuX.s:449    .text.can_init:0000000000000104 .L0 
     /tmp/ccyQOTuX.s:450    .text.can_init:0000000000000104 .L0 
     /tmp/ccyQOTuX.s:452    .text.can_init:0000000000000108 .L0 
     /tmp/ccyQOTuX.s:453    .text.can_init:0000000000000108 .L0 
     /tmp/ccyQOTuX.s:455    .text.can_init:000000000000010c .L0 
     /tmp/ccyQOTuX.s:456    .text.can_init:000000000000010c .L0 
     /tmp/ccyQOTuX.s:458    .text.can_init:0000000000000110 .L0 
     /tmp/ccyQOTuX.s:459    .text.can_init:0000000000000110 .L0 
     /tmp/ccyQOTuX.s:461    .text.can_init:0000000000000114 .L0 
     /tmp/ccyQOTuX.s:462    .text.can_init:0000000000000114 .L0 
     /tmp/ccyQOTuX.s:464    .text.can_init:0000000000000118 .L0 
     /tmp/ccyQOTuX.s:465    .text.can_init:0000000000000118 .L0 
     /tmp/ccyQOTuX.s:467    .text.can_init:000000000000011c .L0 
     /tmp/ccyQOTuX.s:468    .text.can_init:000000000000011c .L0 
     /tmp/ccyQOTuX.s:470    .text.can_init:0000000000000120 .L0 
     /tmp/ccyQOTuX.s:471    .text.can_init:0000000000000120 .L0 
     /tmp/ccyQOTuX.s:473    .text.can_init:0000000000000124 .L0 
     /tmp/ccyQOTuX.s:474    .text.can_init:0000000000000124 .L0 
GAS LISTING /tmp/ccyQOTuX.s 			page 62


     /tmp/ccyQOTuX.s:476    .text.can_init:0000000000000128 .L0 
     /tmp/ccyQOTuX.s:477    .text.can_init:0000000000000128 .L0 
     /tmp/ccyQOTuX.s:479    .text.can_init:000000000000012c .L0 
     /tmp/ccyQOTuX.s:480    .text.can_init:000000000000012c .L0 
     /tmp/ccyQOTuX.s:484    .text.can_init:000000000000012e .L0 
     /tmp/ccyQOTuX.s:485    .text.can_init:000000000000012e .L0 
     /tmp/ccyQOTuX.s:487    .text.can_init:0000000000000130 .L0 
     /tmp/ccyQOTuX.s:489    .text.can_init:0000000000000132 .L0 
     /tmp/ccyQOTuX.s:492    .text.can_init:0000000000000138 .L0 
     /tmp/ccyQOTuX.s:493    .text.can_init:0000000000000138 .L0 
     /tmp/ccyQOTuX.s:497    .text.can_init:000000000000013e .L0 
     /tmp/ccyQOTuX.s:498    .text.can_init:000000000000013e .L0 
     /tmp/ccyQOTuX.s:500    .text.can_init:0000000000000140 .L0 
     /tmp/ccyQOTuX.s:502    .text.can_init:0000000000000142 .L0 
     /tmp/ccyQOTuX.s:505    .text.can_init:0000000000000148 .L0 
     /tmp/ccyQOTuX.s:506    .text.can_init:0000000000000148 .L0 
     /tmp/ccyQOTuX.s:510    .text.can_init:000000000000014e .L0 
     /tmp/ccyQOTuX.s:511    .text.can_init:000000000000014e .L0 
     /tmp/ccyQOTuX.s:513    .text.can_init:0000000000000150 .L0 
     /tmp/ccyQOTuX.s:515    .text.can_init:0000000000000152 .L0 
     /tmp/ccyQOTuX.s:518    .text.can_init:0000000000000158 .L0 
     /tmp/ccyQOTuX.s:519    .text.can_init:0000000000000158 .L0 
     /tmp/ccyQOTuX.s:523    .text.can_init:000000000000015e .L0 
     /tmp/ccyQOTuX.s:524    .text.can_init:000000000000015e .L0 
     /tmp/ccyQOTuX.s:526    .text.can_init:0000000000000160 .L0 
     /tmp/ccyQOTuX.s:528    .text.can_init:0000000000000162 .L0 
     /tmp/ccyQOTuX.s:531    .text.can_init:0000000000000168 .L0 
     /tmp/ccyQOTuX.s:532    .text.can_init:0000000000000168 .L0 
     /tmp/ccyQOTuX.s:536    .text.can_init:000000000000016e .L0 
     /tmp/ccyQOTuX.s:537    .text.can_init:000000000000016e .L0 
     /tmp/ccyQOTuX.s:539    .text.can_init:0000000000000170 .L0 
     /tmp/ccyQOTuX.s:541    .text.can_init:0000000000000172 .L0 
     /tmp/ccyQOTuX.s:544    .text.can_init:0000000000000178 .L0 
     /tmp/ccyQOTuX.s:545    .text.can_init:0000000000000178 .L0 
     /tmp/ccyQOTuX.s:549    .text.can_init:000000000000017e .L0 
     /tmp/ccyQOTuX.s:550    .text.can_init:000000000000017e .L0 
     /tmp/ccyQOTuX.s:554    .text.can_init:0000000000000188 .L0 
     /tmp/ccyQOTuX.s:561    .text.can_filter_init:0000000000000000 can_filter_init
     /tmp/ccyQOTuX.s:564    .text.can_filter_init:0000000000000000 .L0 
     /tmp/ccyQOTuX.s:566    .text.can_filter_init:0000000000000000 .L0 
     /tmp/ccyQOTuX.s:567    .text.can_filter_init:0000000000000000 .L0 
     /tmp/ccyQOTuX.s:568    .text.can_filter_init:0000000000000000 .L0 
     /tmp/ccyQOTuX.s:569    .text.can_filter_init:0000000000000000 .L0 
     /tmp/ccyQOTuX.s:572    .text.can_filter_init:0000000000000008 .L0 
     /tmp/ccyQOTuX.s:574    .text.can_filter_init:000000000000000c .L0 
     /tmp/ccyQOTuX.s:576    .text.can_filter_init:000000000000000e .L0 
     /tmp/ccyQOTuX.s:579    .text.can_filter_init:0000000000000016 .L0 
     /tmp/ccyQOTuX.s:581    .text.can_filter_init:000000000000001a .L0 
     /tmp/ccyQOTuX.s:584    .text.can_filter_init:000000000000001e .L0 
     /tmp/ccyQOTuX.s:585    .text.can_filter_init:000000000000001e .L0 
     /tmp/ccyQOTuX.s:586    .text.can_filter_init:000000000000001e .L0 
     /tmp/ccyQOTuX.s:588    .text.can_filter_init:0000000000000022 .L0 
     /tmp/ccyQOTuX.s:590    .text.can_filter_init:0000000000000026 .L0 
     /tmp/ccyQOTuX.s:593    .text.can_filter_init:000000000000002c .L0 
     /tmp/ccyQOTuX.s:594    .text.can_filter_init:000000000000002c .L0 
     /tmp/ccyQOTuX.s:596    .text.can_filter_init:0000000000000030 .L0 
     /tmp/ccyQOTuX.s:597    .text.can_filter_init:0000000000000030 .L0 
GAS LISTING /tmp/ccyQOTuX.s 			page 63


     /tmp/ccyQOTuX.s:599    .text.can_filter_init:0000000000000034 .L0 
     /tmp/ccyQOTuX.s:601    .text.can_filter_init:0000000000000038 .L0 
     /tmp/ccyQOTuX.s:603    .text.can_filter_init:000000000000003c .L0 
     /tmp/ccyQOTuX.s:605    .text.can_filter_init:0000000000000040 .L0 
     /tmp/ccyQOTuX.s:607    .text.can_filter_init:0000000000000044 .L0 
     /tmp/ccyQOTuX.s:610    .text.can_filter_init:0000000000000048 .L0 
     /tmp/ccyQOTuX.s:614    .text.can_filter_init:0000000000000052 .L0 
     /tmp/ccyQOTuX.s:616    .text.can_filter_init:0000000000000054 .L0 
     /tmp/ccyQOTuX.s:618    .text.can_filter_init:0000000000000058 .L0 
     /tmp/ccyQOTuX.s:620    .text.can_filter_init:000000000000005a .L0 
     /tmp/ccyQOTuX.s:622    .text.can_filter_init:000000000000005e .L0 
     /tmp/ccyQOTuX.s:624    .text.can_filter_init:0000000000000062 .L0 
     /tmp/ccyQOTuX.s:626    .text.can_filter_init:0000000000000066 .L0 
     /tmp/ccyQOTuX.s:627    .text.can_filter_init:0000000000000066 .L0 
     /tmp/ccyQOTuX.s:629    .text.can_filter_init:000000000000006a .L0 
     /tmp/ccyQOTuX.s:632    .text.can_filter_init:000000000000006c .L0 
     /tmp/ccyQOTuX.s:633    .text.can_filter_init:000000000000006c .L0 
     /tmp/ccyQOTuX.s:635    .text.can_filter_init:0000000000000070 .L0 
     /tmp/ccyQOTuX.s:637    .text.can_filter_init:0000000000000074 .L0 
     /tmp/ccyQOTuX.s:639    .text.can_filter_init:0000000000000076 .L0 
     /tmp/ccyQOTuX.s:640    .text.can_filter_init:0000000000000076 .L0 
     /tmp/ccyQOTuX.s:645    .text.can_filter_init:0000000000000080 .L0 
     /tmp/ccyQOTuX.s:646    .text.can_filter_init:0000000000000080 .L0 
     /tmp/ccyQOTuX.s:649    .text.can_filter_init:0000000000000086 .L0 
     /tmp/ccyQOTuX.s:650    .text.can_filter_init:0000000000000086 .L0 
     /tmp/ccyQOTuX.s:656    .text.can_filter_init:0000000000000094 .L0 
     /tmp/ccyQOTuX.s:657    .text.can_filter_init:0000000000000094 .L0 
     /tmp/ccyQOTuX.s:661    .text.can_filter_init:000000000000009c .L0 
     /tmp/ccyQOTuX.s:662    .text.can_filter_init:000000000000009c .L0 
     /tmp/ccyQOTuX.s:669    .text.can_filter_init:00000000000000aa .L0 
     /tmp/ccyQOTuX.s:670    .text.can_filter_init:00000000000000aa .L0 
     /tmp/ccyQOTuX.s:675    .text.can_filter_init:00000000000000b8 .L0 
     /tmp/ccyQOTuX.s:679    .text.can_filter_init:00000000000000ba .L0 
     /tmp/ccyQOTuX.s:680    .text.can_filter_init:00000000000000ba .L0 
     /tmp/ccyQOTuX.s:687    .text.can_filter_init:00000000000000ca .L0 
     /tmp/ccyQOTuX.s:688    .text.can_filter_init:00000000000000ca .L0 
     /tmp/ccyQOTuX.s:694    .text.can_filter_init:00000000000000d6 .L0 
     /tmp/ccyQOTuX.s:695    .text.can_filter_init:00000000000000d6 .L0 
     /tmp/ccyQOTuX.s:697    .text.can_filter_init:00000000000000da .L0 
     /tmp/ccyQOTuX.s:698    .text.can_filter_init:00000000000000da .L0 
     /tmp/ccyQOTuX.s:700    .text.can_filter_init:00000000000000de .L0 
     /tmp/ccyQOTuX.s:702    .text.can_filter_init:00000000000000e2 .L0 
     /tmp/ccyQOTuX.s:704    .text.can_filter_init:00000000000000e6 .L0 
     /tmp/ccyQOTuX.s:706    .text.can_filter_init:00000000000000ea .L0 
     /tmp/ccyQOTuX.s:708    .text.can_filter_init:00000000000000ee .L0 
     /tmp/ccyQOTuX.s:710    .text.can_filter_init:00000000000000f4 .L0 
     /tmp/ccyQOTuX.s:717    .text.can1_filter_start_bank:0000000000000000 can1_filter_start_bank
     /tmp/ccyQOTuX.s:720    .text.can1_filter_start_bank:0000000000000000 .L0 
     /tmp/ccyQOTuX.s:722    .text.can1_filter_start_bank:0000000000000000 .L0 
     /tmp/ccyQOTuX.s:723    .text.can1_filter_start_bank:0000000000000000 .L0 
     /tmp/ccyQOTuX.s:724    .text.can1_filter_start_bank:0000000000000000 .L0 
     /tmp/ccyQOTuX.s:727    .text.can1_filter_start_bank:0000000000000008 .L0 
     /tmp/ccyQOTuX.s:730    .text.can1_filter_start_bank:000000000000000e .L0 
     /tmp/ccyQOTuX.s:733    .text.can1_filter_start_bank:0000000000000016 .L0 
     /tmp/ccyQOTuX.s:734    .text.can1_filter_start_bank:0000000000000016 .L0 
     /tmp/ccyQOTuX.s:736    .text.can1_filter_start_bank:000000000000001a .L0 
     /tmp/ccyQOTuX.s:739    .text.can1_filter_start_bank:000000000000001c .L0 
GAS LISTING /tmp/ccyQOTuX.s 			page 64


     /tmp/ccyQOTuX.s:742    .text.can1_filter_start_bank:0000000000000022 .L0 
     /tmp/ccyQOTuX.s:743    .text.can1_filter_start_bank:0000000000000022 .L0 
     /tmp/ccyQOTuX.s:745    .text.can1_filter_start_bank:0000000000000026 .L0 
     /tmp/ccyQOTuX.s:749    .text.can1_filter_start_bank:000000000000002e .L0 
     /tmp/ccyQOTuX.s:752    .text.can1_filter_start_bank:0000000000000034 .L0 
     /tmp/ccyQOTuX.s:753    .text.can1_filter_start_bank:0000000000000034 .L0 
     /tmp/ccyQOTuX.s:757    .text.can1_filter_start_bank:000000000000003e .L0 
     /tmp/ccyQOTuX.s:758    .text.can1_filter_start_bank:0000000000000040 .L0 
     /tmp/ccyQOTuX.s:765    .text.can_debug_freeze_enable:0000000000000000 can_debug_freeze_enable
     /tmp/ccyQOTuX.s:768    .text.can_debug_freeze_enable:0000000000000000 .L0 
     /tmp/ccyQOTuX.s:770    .text.can_debug_freeze_enable:0000000000000000 .L0 
     /tmp/ccyQOTuX.s:771    .text.can_debug_freeze_enable:0000000000000000 .L0 
     /tmp/ccyQOTuX.s:772    .text.can_debug_freeze_enable:0000000000000000 .L0 
     /tmp/ccyQOTuX.s:777    .text.can_debug_freeze_enable:0000000000000008 .L0 
     /tmp/ccyQOTuX.s:778    .text.can_debug_freeze_enable:0000000000000008 .L0 
     /tmp/ccyQOTuX.s:782    .text.can_debug_freeze_enable:0000000000000014 .L0 
     /tmp/ccyQOTuX.s:788    .text.can_debug_freeze_enable:0000000000000020 .L0 
     /tmp/ccyQOTuX.s:792    .text.can_debug_freeze_enable:000000000000002a .L0 
     /tmp/ccyQOTuX.s:799    .text.can_debug_freeze_disable:0000000000000000 can_debug_freeze_disable
     /tmp/ccyQOTuX.s:802    .text.can_debug_freeze_disable:0000000000000000 .L0 
     /tmp/ccyQOTuX.s:804    .text.can_debug_freeze_disable:0000000000000000 .L0 
     /tmp/ccyQOTuX.s:805    .text.can_debug_freeze_disable:0000000000000000 .L0 
     /tmp/ccyQOTuX.s:806    .text.can_debug_freeze_disable:0000000000000000 .L0 
     /tmp/ccyQOTuX.s:812    .text.can_debug_freeze_disable:000000000000000a .L0 
     /tmp/ccyQOTuX.s:813    .text.can_debug_freeze_disable:000000000000000a .L0 
     /tmp/ccyQOTuX.s:817    .text.can_debug_freeze_disable:0000000000000016 .L0 
     /tmp/ccyQOTuX.s:823    .text.can_debug_freeze_disable:0000000000000022 .L0 
     /tmp/ccyQOTuX.s:827    .text.can_debug_freeze_disable:000000000000002c .L0 
     /tmp/ccyQOTuX.s:834    .text.can_time_trigger_mode_enable:0000000000000000 can_time_trigger_mode_enable
     /tmp/ccyQOTuX.s:837    .text.can_time_trigger_mode_enable:0000000000000000 .L0 
     /tmp/ccyQOTuX.s:839    .text.can_time_trigger_mode_enable:0000000000000000 .L0 
     /tmp/ccyQOTuX.s:840    .text.can_time_trigger_mode_enable:0000000000000000 .L0 
     /tmp/ccyQOTuX.s:841    .text.can_time_trigger_mode_enable:0000000000000000 .L0 
     /tmp/ccyQOTuX.s:842    .text.can_time_trigger_mode_enable:0000000000000000 .L0 
     /tmp/ccyQOTuX.s:847    .text.can_time_trigger_mode_enable:0000000000000008 .L0 
     /tmp/ccyQOTuX.s:848    .text.can_time_trigger_mode_enable:0000000000000008 .L0 
     /tmp/ccyQOTuX.s:849    .text.can_time_trigger_mode_enable:0000000000000008 .L0 
     /tmp/ccyQOTuX.s:850    .text.can_time_trigger_mode_enable:0000000000000008 .L0 
     /tmp/ccyQOTuX.s:855    .text.can_time_trigger_mode_enable:0000000000000014 .L0 
     /tmp/ccyQOTuX.s:856    .text.can_time_trigger_mode_enable:0000000000000014 .L0 
     /tmp/ccyQOTuX.s:857    .text.can_time_trigger_mode_enable:0000000000000014 .L0 
     /tmp/ccyQOTuX.s:858    .text.can_time_trigger_mode_enable:0000000000000014 .L0 
     /tmp/ccyQOTuX.s:863    .text.can_time_trigger_mode_enable:0000000000000020 .L0 
     /tmp/ccyQOTuX.s:864    .text.can_time_trigger_mode_enable:0000000000000020 .L0 
     /tmp/ccyQOTuX.s:865    .text.can_time_trigger_mode_enable:0000000000000020 .L0 
     /tmp/ccyQOTuX.s:866    .text.can_time_trigger_mode_enable:0000000000000020 .L0 
     /tmp/ccyQOTuX.s:871    .text.can_time_trigger_mode_enable:000000000000002c .L0 
     /tmp/ccyQOTuX.s:872    .text.can_time_trigger_mode_enable:000000000000002c .L0 
     /tmp/ccyQOTuX.s:873    .text.can_time_trigger_mode_enable:000000000000002c .L0 
     /tmp/ccyQOTuX.s:874    .text.can_time_trigger_mode_enable:000000000000002e .L0 
     /tmp/ccyQOTuX.s:881    .text.can_time_trigger_mode_disable:0000000000000000 can_time_trigger_mode_disable
     /tmp/ccyQOTuX.s:884    .text.can_time_trigger_mode_disable:0000000000000000 .L0 
     /tmp/ccyQOTuX.s:886    .text.can_time_trigger_mode_disable:0000000000000000 .L0 
     /tmp/ccyQOTuX.s:887    .text.can_time_trigger_mode_disable:0000000000000000 .L0 
     /tmp/ccyQOTuX.s:888    .text.can_time_trigger_mode_disable:0000000000000000 .L0 
     /tmp/ccyQOTuX.s:889    .text.can_time_trigger_mode_disable:0000000000000000 .L0 
     /tmp/ccyQOTuX.s:894    .text.can_time_trigger_mode_disable:0000000000000008 .L0 
GAS LISTING /tmp/ccyQOTuX.s 			page 65


     /tmp/ccyQOTuX.s:895    .text.can_time_trigger_mode_disable:0000000000000008 .L0 
     /tmp/ccyQOTuX.s:896    .text.can_time_trigger_mode_disable:0000000000000008 .L0 
     /tmp/ccyQOTuX.s:897    .text.can_time_trigger_mode_disable:0000000000000008 .L0 
     /tmp/ccyQOTuX.s:902    .text.can_time_trigger_mode_disable:0000000000000014 .L0 
     /tmp/ccyQOTuX.s:903    .text.can_time_trigger_mode_disable:0000000000000014 .L0 
     /tmp/ccyQOTuX.s:904    .text.can_time_trigger_mode_disable:0000000000000014 .L0 
     /tmp/ccyQOTuX.s:905    .text.can_time_trigger_mode_disable:0000000000000014 .L0 
     /tmp/ccyQOTuX.s:910    .text.can_time_trigger_mode_disable:0000000000000020 .L0 
     /tmp/ccyQOTuX.s:911    .text.can_time_trigger_mode_disable:0000000000000020 .L0 
     /tmp/ccyQOTuX.s:912    .text.can_time_trigger_mode_disable:0000000000000020 .L0 
     /tmp/ccyQOTuX.s:913    .text.can_time_trigger_mode_disable:0000000000000020 .L0 
     /tmp/ccyQOTuX.s:918    .text.can_time_trigger_mode_disable:000000000000002c .L0 
     /tmp/ccyQOTuX.s:919    .text.can_time_trigger_mode_disable:000000000000002c .L0 
     /tmp/ccyQOTuX.s:920    .text.can_time_trigger_mode_disable:000000000000002c .L0 
     /tmp/ccyQOTuX.s:921    .text.can_time_trigger_mode_disable:000000000000002e .L0 
     /tmp/ccyQOTuX.s:928    .text.can_message_transmit:0000000000000000 can_message_transmit
     /tmp/ccyQOTuX.s:931    .text.can_message_transmit:0000000000000000 .L0 
     /tmp/ccyQOTuX.s:933    .text.can_message_transmit:0000000000000000 .L0 
     /tmp/ccyQOTuX.s:934    .text.can_message_transmit:0000000000000000 .L0 
     /tmp/ccyQOTuX.s:935    .text.can_message_transmit:0000000000000000 .L0 
     /tmp/ccyQOTuX.s:936    .text.can_message_transmit:0000000000000000 .L0 
     /tmp/ccyQOTuX.s:938    .text.can_message_transmit:0000000000000002 .L0 
     /tmp/ccyQOTuX.s:940    .text.can_message_transmit:0000000000000006 .L0 
     /tmp/ccyQOTuX.s:942    .text.can_message_transmit:0000000000000008 .L0 
     /tmp/ccyQOTuX.s:944    .text.can_message_transmit:000000000000000a .L0 
     /tmp/ccyQOTuX.s:946    .text.can_message_transmit:000000000000000e .L0 
     /tmp/ccyQOTuX.s:948    .text.can_message_transmit:0000000000000010 .L0 
     /tmp/ccyQOTuX.s:949    .text.can_message_transmit:0000000000000010 .L0 
     /tmp/ccyQOTuX.s:951    .text.can_message_transmit:0000000000000012 .L0 
     /tmp/ccyQOTuX.s:954    .text.can_message_transmit:0000000000000018 .L0 
     /tmp/ccyQOTuX.s:956    .text.can_message_transmit:000000000000001a .L0 
     /tmp/ccyQOTuX.s:962    .text.can_message_transmit:000000000000002c .L0 
     /tmp/ccyQOTuX.s:964    .text.can_message_transmit:0000000000000030 .L0 
     /tmp/ccyQOTuX.s:967    .text.can_message_transmit:0000000000000032 .L0 
     /tmp/ccyQOTuX.s:968    .text.can_message_transmit:0000000000000032 .L0 
     /tmp/ccyQOTuX.s:969    .text.can_message_transmit:0000000000000032 .L0 
     /tmp/ccyQOTuX.s:973    .text.can_message_transmit:0000000000000034 .L0 
     /tmp/ccyQOTuX.s:974    .text.can_message_transmit:0000000000000034 .L0 
     /tmp/ccyQOTuX.s:976    .text.can_message_transmit:0000000000000036 .L0 
     /tmp/ccyQOTuX.s:978    .text.can_message_transmit:000000000000003a .L0 
     /tmp/ccyQOTuX.s:980    .text.can_message_transmit:000000000000003e .L0 
     /tmp/ccyQOTuX.s:982    .text.can_message_transmit:0000000000000040 .L0 
     /tmp/ccyQOTuX.s:984    .text.can_message_transmit:0000000000000042 .L0 
     /tmp/ccyQOTuX.s:986    .text.can_message_transmit:0000000000000046 .L0 
     /tmp/ccyQOTuX.s:990    .text.can_message_transmit:000000000000004c .L0 
     /tmp/ccyQOTuX.s:991    .text.can_message_transmit:000000000000004c .L0 
     /tmp/ccyQOTuX.s:995    .text.can_message_transmit:0000000000000056 .L0 
     /tmp/ccyQOTuX.s:996    .text.can_message_transmit:0000000000000056 .L0 
     /tmp/ccyQOTuX.s:998    .text.can_message_transmit:000000000000005a .L0 
     /tmp/ccyQOTuX.s:1000   .text.can_message_transmit:000000000000005e .L0 
     /tmp/ccyQOTuX.s:1003   .text.can_message_transmit:0000000000000064 .L0 
     /tmp/ccyQOTuX.s:1004   .text.can_message_transmit:0000000000000064 .L0 
     /tmp/ccyQOTuX.s:1015   .text.can_message_transmit:0000000000000082 .L0 
     /tmp/ccyQOTuX.s:1017   .text.can_message_transmit:0000000000000086 .L0 
     /tmp/ccyQOTuX.s:1018   .text.can_message_transmit:0000000000000086 .L0 
     /tmp/ccyQOTuX.s:1029   .text.can_message_transmit:00000000000000a4 .L0 
     /tmp/ccyQOTuX.s:1031   .text.can_message_transmit:00000000000000a8 .L0 
GAS LISTING /tmp/ccyQOTuX.s 			page 66


     /tmp/ccyQOTuX.s:1032   .text.can_message_transmit:00000000000000a8 .L0 
     /tmp/ccyQOTuX.s:1037   .text.can_message_transmit:00000000000000b4 .L0 
     /tmp/ccyQOTuX.s:1038   .text.can_message_transmit:00000000000000b4 .L0 
     /tmp/ccyQOTuX.s:1042   .text.can_message_transmit:00000000000000b6 .L0 
     /tmp/ccyQOTuX.s:1046   .text.can_message_transmit:00000000000000b8 .L0 
     /tmp/ccyQOTuX.s:1047   .text.can_message_transmit:00000000000000b8 .L0 
     /tmp/ccyQOTuX.s:1052   .text.can_message_transmit:00000000000000c6 .L0 
     /tmp/ccyQOTuX.s:1053   .text.can_message_transmit:00000000000000c6 .L0 
     /tmp/ccyQOTuX.s:1055   .text.can_message_transmit:00000000000000ca .L0 
     /tmp/ccyQOTuX.s:1058   .text.can_message_transmit:00000000000000cc .L0 
     /tmp/ccyQOTuX.s:1059   .text.can_message_transmit:00000000000000cc .L0 
     /tmp/ccyQOTuX.s:1061   .text.can_message_transmit:00000000000000ce .L0 
     /tmp/ccyQOTuX.s:1063   .text.can_message_transmit:00000000000000d2 .L0 
     /tmp/ccyQOTuX.s:1065   .text.can_message_transmit:00000000000000d6 .L0 
     /tmp/ccyQOTuX.s:1067   .text.can_message_transmit:00000000000000d8 .L0 
     /tmp/ccyQOTuX.s:1069   .text.can_message_transmit:00000000000000da .L0 
     /tmp/ccyQOTuX.s:1075   .text.can_message_transmit:00000000000000e2 .L0 
     /tmp/ccyQOTuX.s:1076   .text.can_message_transmit:00000000000000e2 .L0 
     /tmp/ccyQOTuX.s:1078   .text.can_message_transmit:00000000000000e4 .L0 
     /tmp/ccyQOTuX.s:1080   .text.can_message_transmit:00000000000000e8 .L0 
     /tmp/ccyQOTuX.s:1083   .text.can_message_transmit:00000000000000ea .L0 
     /tmp/ccyQOTuX.s:1085   .text.can_message_transmit:00000000000000ec .L0 
     /tmp/ccyQOTuX.s:1087   .text.can_message_transmit:00000000000000ee .L0 
     /tmp/ccyQOTuX.s:1090   .text.can_message_transmit:00000000000000f2 .L0 
     /tmp/ccyQOTuX.s:1092   .text.can_message_transmit:00000000000000f6 .L0 
     /tmp/ccyQOTuX.s:1099   .text.can_transmit_states:0000000000000000 can_transmit_states
     /tmp/ccyQOTuX.s:1102   .text.can_transmit_states:0000000000000000 .L0 
     /tmp/ccyQOTuX.s:1104   .text.can_transmit_states:0000000000000000 .L0 
     /tmp/ccyQOTuX.s:1105   .text.can_transmit_states:0000000000000000 .L0 
     /tmp/ccyQOTuX.s:1106   .text.can_transmit_states:0000000000000000 .L0 
     /tmp/ccyQOTuX.s:1107   .text.can_transmit_states:0000000000000000 .L0 
     /tmp/ccyQOTuX.s:1109   .text.can_transmit_states:0000000000000002 .L0 
     /tmp/ccyQOTuX.s:1111   .text.can_transmit_states:0000000000000004 .L0 
     /tmp/ccyQOTuX.s:1120   .text.can_transmit_states:0000000000000012 .L0 
     /tmp/ccyQOTuX.s:1124   .text.can_transmit_states:0000000000000014 .L0 
     /tmp/ccyQOTuX.s:1125   .text.can_transmit_states:0000000000000014 .L0 
     /tmp/ccyQOTuX.s:1128   .text.can_transmit_states:0000000000000016 .L0 
     /tmp/ccyQOTuX.s:1133   .text.can_transmit_states:000000000000001e .L0 
     /tmp/ccyQOTuX.s:1135   .text.can_transmit_states:000000000000001e .L0 
     /tmp/ccyQOTuX.s:1136   .text.can_transmit_states:000000000000001e .L0 
     /tmp/ccyQOTuX.s:1138   .text.can_transmit_states:0000000000000020 .L0 
     /tmp/ccyQOTuX.s:1145   .text.can_transmit_states:000000000000002e .L0 
     /tmp/ccyQOTuX.s:1149   .text.can_transmit_states:0000000000000030 .L0 
     /tmp/ccyQOTuX.s:1150   .text.can_transmit_states:0000000000000030 .L0 
     /tmp/ccyQOTuX.s:1152   .text.can_transmit_states:0000000000000032 .L0 
     /tmp/ccyQOTuX.s:1155   .text.can_transmit_states:0000000000000036 .L0 
     /tmp/ccyQOTuX.s:1157   .text.can_transmit_states:000000000000003a .L0 
     /tmp/ccyQOTuX.s:1160   .text.can_transmit_states:000000000000003c .L0 
     /tmp/ccyQOTuX.s:1161   .text.can_transmit_states:000000000000003c .L0 
     /tmp/ccyQOTuX.s:1166   .text.can_transmit_states:000000000000004c .L0 
     /tmp/ccyQOTuX.s:1170   .text.can_transmit_states:000000000000004e .L0 
     /tmp/ccyQOTuX.s:1171   .text.can_transmit_states:000000000000004e .L0 
     /tmp/ccyQOTuX.s:1173   .text.can_transmit_states:0000000000000050 .L0 
     /tmp/ccyQOTuX.s:1178   .text.can_transmit_states:000000000000005a .L0 
     /tmp/ccyQOTuX.s:1179   .text.can_transmit_states:000000000000005a .L0 
     /tmp/ccyQOTuX.s:1183   .text.can_transmit_states:0000000000000060 .L0 
     /tmp/ccyQOTuX.s:1184   .text.can_transmit_states:0000000000000062 .L0 
GAS LISTING /tmp/ccyQOTuX.s 			page 67


     /tmp/ccyQOTuX.s:1191   .text.can_transmission_stop:0000000000000000 can_transmission_stop
     /tmp/ccyQOTuX.s:1194   .text.can_transmission_stop:0000000000000000 .L0 
     /tmp/ccyQOTuX.s:1196   .text.can_transmission_stop:0000000000000000 .L0 
     /tmp/ccyQOTuX.s:1197   .text.can_transmission_stop:0000000000000000 .L0 
     /tmp/ccyQOTuX.s:1198   .text.can_transmission_stop:0000000000000000 .L0 
     /tmp/ccyQOTuX.s:1200   .text.can_transmission_stop:0000000000000002 .L0 
     /tmp/ccyQOTuX.s:1201   .text.can_transmission_stop:0000000000000002 .L0 
     /tmp/ccyQOTuX.s:1207   .text.can_transmission_stop:000000000000000e .L0 
     /tmp/ccyQOTuX.s:1208   .text.can_transmission_stop:000000000000000e .L0 
     /tmp/ccyQOTuX.s:1209   .text.can_transmission_stop:000000000000000e .L0 
     /tmp/ccyQOTuX.s:1210   .text.can_transmission_stop:000000000000000e .L0 
     /tmp/ccyQOTuX.s:1212   .text.can_transmission_stop:0000000000000010 .L0 
     /tmp/ccyQOTuX.s:1214   .text.can_transmission_stop:0000000000000014 .L0 
     /tmp/ccyQOTuX.s:1218   .text.can_transmission_stop:0000000000000018 .L0 
     /tmp/ccyQOTuX.s:1219   .text.can_transmission_stop:0000000000000018 .L0 
     /tmp/ccyQOTuX.s:1222   .text.can_transmission_stop:000000000000001e .L0 
     /tmp/ccyQOTuX.s:1223   .text.can_transmission_stop:000000000000001e .L0 
     /tmp/ccyQOTuX.s:1226   .text.can_transmission_stop:0000000000000024 .L0 
     /tmp/ccyQOTuX.s:1229   .text.can_transmission_stop:0000000000000026 .L0 
     /tmp/ccyQOTuX.s:1230   .text.can_transmission_stop:0000000000000026 .L0 
     /tmp/ccyQOTuX.s:1237   .text.can_transmission_stop:0000000000000032 .L0 
     /tmp/ccyQOTuX.s:1238   .text.can_transmission_stop:0000000000000032 .L0 
     /tmp/ccyQOTuX.s:1239   .text.can_transmission_stop:0000000000000032 .L0 
     /tmp/ccyQOTuX.s:1240   .text.can_transmission_stop:0000000000000032 .L0 
     /tmp/ccyQOTuX.s:1242   .text.can_transmission_stop:0000000000000034 .L0 
     /tmp/ccyQOTuX.s:1244   .text.can_transmission_stop:0000000000000036 .L0 
     /tmp/ccyQOTuX.s:1248   .text.can_transmission_stop:000000000000003a .L0 
     /tmp/ccyQOTuX.s:1249   .text.can_transmission_stop:000000000000003a .L0 
     /tmp/ccyQOTuX.s:1256   .text.can_transmission_stop:0000000000000048 .L0 
     /tmp/ccyQOTuX.s:1257   .text.can_transmission_stop:0000000000000048 .L0 
     /tmp/ccyQOTuX.s:1258   .text.can_transmission_stop:0000000000000048 .L0 
     /tmp/ccyQOTuX.s:1259   .text.can_transmission_stop:0000000000000048 .L0 
     /tmp/ccyQOTuX.s:1261   .text.can_transmission_stop:000000000000004a .L0 
     /tmp/ccyQOTuX.s:1263   .text.can_transmission_stop:000000000000004c .L0 
     /tmp/ccyQOTuX.s:1265   .text.can_transmission_stop:000000000000004e .L0 
     /tmp/ccyQOTuX.s:1266   .text.can_transmission_stop:0000000000000050 .L0 
     /tmp/ccyQOTuX.s:1273   .text.can_message_receive:0000000000000000 can_message_receive
     /tmp/ccyQOTuX.s:1276   .text.can_message_receive:0000000000000000 .L0 
     /tmp/ccyQOTuX.s:1278   .text.can_message_receive:0000000000000000 .L0 
     /tmp/ccyQOTuX.s:1279   .text.can_message_receive:0000000000000000 .L0 
     /tmp/ccyQOTuX.s:1280   .text.can_message_receive:0000000000000000 .L0 
     /tmp/ccyQOTuX.s:1284   .text.can_message_receive:000000000000000a .L0 
     /tmp/ccyQOTuX.s:1286   .text.can_message_receive:000000000000000c .L0 
     /tmp/ccyQOTuX.s:1288   .text.can_message_receive:0000000000000010 .L0 
     /tmp/ccyQOTuX.s:1289   .text.can_message_receive:0000000000000010 .L0 
     /tmp/ccyQOTuX.s:1291   .text.can_message_receive:0000000000000012 .L0 
     /tmp/ccyQOTuX.s:1292   .text.can_message_receive:0000000000000012 .L0 
     /tmp/ccyQOTuX.s:1294   .text.can_message_receive:0000000000000016 .L0 
     /tmp/ccyQOTuX.s:1296   .text.can_message_receive:0000000000000018 .L0 
     /tmp/ccyQOTuX.s:1299   .text.can_message_receive:000000000000001a .L0 
     /tmp/ccyQOTuX.s:1300   .text.can_message_receive:000000000000001a .L0 
     /tmp/ccyQOTuX.s:1302   .text.can_message_receive:000000000000001e .L0 
     /tmp/ccyQOTuX.s:1304   .text.can_message_receive:0000000000000020 .L0 
     /tmp/ccyQOTuX.s:1306   .text.can_message_receive:0000000000000024 .L0 
     /tmp/ccyQOTuX.s:1307   .text.can_message_receive:0000000000000024 .L0 
     /tmp/ccyQOTuX.s:1310   .text.can_message_receive:000000000000002a .L0 
     /tmp/ccyQOTuX.s:1312   .text.can_message_receive:000000000000002e .L0 
GAS LISTING /tmp/ccyQOTuX.s 			page 68


     /tmp/ccyQOTuX.s:1313   .text.can_message_receive:000000000000002e .L0 
     /tmp/ccyQOTuX.s:1315   .text.can_message_receive:0000000000000032 .L0 
     /tmp/ccyQOTuX.s:1317   .text.can_message_receive:0000000000000034 .L0 
     /tmp/ccyQOTuX.s:1319   .text.can_message_receive:0000000000000038 .L0 
     /tmp/ccyQOTuX.s:1320   .text.can_message_receive:0000000000000038 .L0 
     /tmp/ccyQOTuX.s:1322   .text.can_message_receive:000000000000003c .L0 
     /tmp/ccyQOTuX.s:1324   .text.can_message_receive:0000000000000040 .L0 
     /tmp/ccyQOTuX.s:1325   .text.can_message_receive:0000000000000040 .L0 
     /tmp/ccyQOTuX.s:1328   .text.can_message_receive:0000000000000046 .L0 
     /tmp/ccyQOTuX.s:1330   .text.can_message_receive:000000000000004a .L0 
     /tmp/ccyQOTuX.s:1331   .text.can_message_receive:000000000000004a .L0 
     /tmp/ccyQOTuX.s:1334   .text.can_message_receive:0000000000000050 .L0 
     /tmp/ccyQOTuX.s:1336   .text.can_message_receive:0000000000000054 .L0 
     /tmp/ccyQOTuX.s:1337   .text.can_message_receive:0000000000000054 .L0 
     /tmp/ccyQOTuX.s:1340   .text.can_message_receive:000000000000005a .L0 
     /tmp/ccyQOTuX.s:1342   .text.can_message_receive:000000000000005e .L0 
     /tmp/ccyQOTuX.s:1343   .text.can_message_receive:000000000000005e .L0 
     /tmp/ccyQOTuX.s:1345   .text.can_message_receive:0000000000000062 .L0 
     /tmp/ccyQOTuX.s:1347   .text.can_message_receive:0000000000000066 .L0 
     /tmp/ccyQOTuX.s:1348   .text.can_message_receive:0000000000000066 .L0 
     /tmp/ccyQOTuX.s:1351   .text.can_message_receive:000000000000006c .L0 
     /tmp/ccyQOTuX.s:1353   .text.can_message_receive:0000000000000070 .L0 
     /tmp/ccyQOTuX.s:1354   .text.can_message_receive:0000000000000070 .L0 
     /tmp/ccyQOTuX.s:1357   .text.can_message_receive:0000000000000076 .L0 
     /tmp/ccyQOTuX.s:1359   .text.can_message_receive:000000000000007a .L0 
     /tmp/ccyQOTuX.s:1360   .text.can_message_receive:000000000000007a .L0 
     /tmp/ccyQOTuX.s:1363   .text.can_message_receive:0000000000000080 .L0 
     /tmp/ccyQOTuX.s:1365   .text.can_message_receive:0000000000000084 .L0 
     /tmp/ccyQOTuX.s:1366   .text.can_message_receive:0000000000000084 .L0 
     /tmp/ccyQOTuX.s:1368   .text.can_message_receive:0000000000000086 .L0 
     /tmp/ccyQOTuX.s:1369   .text.can_message_receive:0000000000000086 .L0 
     /tmp/ccyQOTuX.s:1375   .text.can_message_receive:0000000000000090 .L0 
     /tmp/ccyQOTuX.s:1376   .text.can_message_receive:0000000000000090 .L0 
     /tmp/ccyQOTuX.s:1378   .text.can_message_receive:0000000000000094 .L0 
     /tmp/ccyQOTuX.s:1380   .text.can_message_receive:0000000000000096 .L0 
     /tmp/ccyQOTuX.s:1384   .text.can_message_receive:000000000000009a .L0 
     /tmp/ccyQOTuX.s:1385   .text.can_message_receive:000000000000009a .L0 
     /tmp/ccyQOTuX.s:1389   .text.can_message_receive:00000000000000a2 .L0 
     /tmp/ccyQOTuX.s:1390   .text.can_message_receive:00000000000000a4 .L0 
     /tmp/ccyQOTuX.s:1397   .text.can_fifo_release:0000000000000000 can_fifo_release
     /tmp/ccyQOTuX.s:1400   .text.can_fifo_release:0000000000000000 .L0 
     /tmp/ccyQOTuX.s:1402   .text.can_fifo_release:0000000000000000 .L0 
     /tmp/ccyQOTuX.s:1403   .text.can_fifo_release:0000000000000000 .L0 
     /tmp/ccyQOTuX.s:1404   .text.can_fifo_release:0000000000000000 .L0 
     /tmp/ccyQOTuX.s:1406   .text.can_fifo_release:0000000000000002 .L0 
     /tmp/ccyQOTuX.s:1407   .text.can_fifo_release:0000000000000002 .L0 
     /tmp/ccyQOTuX.s:1413   .text.can_fifo_release:000000000000000c .L0 
     /tmp/ccyQOTuX.s:1414   .text.can_fifo_release:000000000000000c .L0 
     /tmp/ccyQOTuX.s:1418   .text.can_fifo_release:0000000000000012 .L0 
     /tmp/ccyQOTuX.s:1419   .text.can_fifo_release:0000000000000012 .L0 
     /tmp/ccyQOTuX.s:1420   .text.can_fifo_release:0000000000000012 .L0 
     /tmp/ccyQOTuX.s:1421   .text.can_fifo_release:0000000000000012 .L0 
     /tmp/ccyQOTuX.s:1422   .text.can_fifo_release:0000000000000012 .L0 
     /tmp/ccyQOTuX.s:1423   .text.can_fifo_release:0000000000000012 .L0 
     /tmp/ccyQOTuX.s:1426   .text.can_fifo_release:0000000000000014 .L0 
     /tmp/ccyQOTuX.s:1427   .text.can_fifo_release:0000000000000014 .L0 
     /tmp/ccyQOTuX.s:1431   .text.can_fifo_release:000000000000001c .L0 
GAS LISTING /tmp/ccyQOTuX.s 			page 69


     /tmp/ccyQOTuX.s:1432   .text.can_fifo_release:000000000000001e .L0 
     /tmp/ccyQOTuX.s:1439   .text.can_receive_message_length_get:0000000000000000 can_receive_message_length_get
     /tmp/ccyQOTuX.s:1442   .text.can_receive_message_length_get:0000000000000000 .L0 
     /tmp/ccyQOTuX.s:1444   .text.can_receive_message_length_get:0000000000000000 .L0 
     /tmp/ccyQOTuX.s:1445   .text.can_receive_message_length_get:0000000000000000 .L0 
     /tmp/ccyQOTuX.s:1446   .text.can_receive_message_length_get:0000000000000000 .L0 
     /tmp/ccyQOTuX.s:1447   .text.can_receive_message_length_get:0000000000000000 .L0 
     /tmp/ccyQOTuX.s:1449   .text.can_receive_message_length_get:0000000000000002 .L0 
     /tmp/ccyQOTuX.s:1451   .text.can_receive_message_length_get:0000000000000004 .L0 
     /tmp/ccyQOTuX.s:1452   .text.can_receive_message_length_get:0000000000000004 .L0 
     /tmp/ccyQOTuX.s:1455   .text.can_receive_message_length_get:0000000000000006 .L0 
     /tmp/ccyQOTuX.s:1461   .text.can_receive_message_length_get:000000000000000a .L0 
     /tmp/ccyQOTuX.s:1462   .text.can_receive_message_length_get:000000000000000a .L0 
     /tmp/ccyQOTuX.s:1464   .text.can_receive_message_length_get:000000000000000c .L0 
     /tmp/ccyQOTuX.s:1467   .text.can_receive_message_length_get:000000000000000e .L0 
     /tmp/ccyQOTuX.s:1470   .text.can_receive_message_length_get:0000000000000012 .L0 
     /tmp/ccyQOTuX.s:1471   .text.can_receive_message_length_get:0000000000000012 .L0 
     /tmp/ccyQOTuX.s:1472   .text.can_receive_message_length_get:0000000000000012 .L0 
     /tmp/ccyQOTuX.s:1476   .text.can_receive_message_length_get:0000000000000014 .L0 
     /tmp/ccyQOTuX.s:1477   .text.can_receive_message_length_get:0000000000000014 .L0 
     /tmp/ccyQOTuX.s:1479   .text.can_receive_message_length_get:0000000000000016 .L0 
     /tmp/ccyQOTuX.s:1482   .text.can_receive_message_length_get:0000000000000018 .L0 
     /tmp/ccyQOTuX.s:1483   .text.can_receive_message_length_get:0000000000000018 .L0 
     /tmp/ccyQOTuX.s:1484   .text.can_receive_message_length_get:0000000000000018 .L0 
     /tmp/ccyQOTuX.s:1485   .text.can_receive_message_length_get:000000000000001a .L0 
     /tmp/ccyQOTuX.s:1492   .text.can_working_mode_set:0000000000000000 can_working_mode_set
     /tmp/ccyQOTuX.s:1495   .text.can_working_mode_set:0000000000000000 .L0 
     /tmp/ccyQOTuX.s:1497   .text.can_working_mode_set:0000000000000000 .L0 
     /tmp/ccyQOTuX.s:1498   .text.can_working_mode_set:0000000000000000 .L0 
     /tmp/ccyQOTuX.s:1499   .text.can_working_mode_set:0000000000000000 .L0 
     /tmp/ccyQOTuX.s:1500   .text.can_working_mode_set:0000000000000000 .L0 
     /tmp/ccyQOTuX.s:1501   .text.can_working_mode_set:0000000000000000 .L0 
     /tmp/ccyQOTuX.s:1503   .text.can_working_mode_set:0000000000000002 .L0 
     /tmp/ccyQOTuX.s:1505   .text.can_working_mode_set:0000000000000004 .L0 
     /tmp/ccyQOTuX.s:1507   .text.can_working_mode_set:0000000000000008 .L0 
     /tmp/ccyQOTuX.s:1508   .text.can_working_mode_set:0000000000000008 .L0 
     /tmp/ccyQOTuX.s:1511   .text.can_working_mode_set:000000000000000e .L0 
     /tmp/ccyQOTuX.s:1512   .text.can_working_mode_set:000000000000000e .L0 
     /tmp/ccyQOTuX.s:1514   .text.can_working_mode_set:0000000000000010 .L0 
     /tmp/ccyQOTuX.s:1517   .text.can_working_mode_set:0000000000000012 .L0 
     /tmp/ccyQOTuX.s:1519   .text.can_working_mode_set:0000000000000016 .L0 
     /tmp/ccyQOTuX.s:1523   .text.can_working_mode_set:0000000000000018 .L0 
     /tmp/ccyQOTuX.s:1524   .text.can_working_mode_set:0000000000000018 .L0 
     /tmp/ccyQOTuX.s:1526   .text.can_working_mode_set:000000000000001a .L0 
     /tmp/ccyQOTuX.s:1528   .text.can_working_mode_set:000000000000001e .L0 
     /tmp/ccyQOTuX.s:1531   .text.can_working_mode_set:0000000000000022 .L0 
     /tmp/ccyQOTuX.s:1532   .text.can_working_mode_set:0000000000000022 .L0 
     /tmp/ccyQOTuX.s:1533   .text.can_working_mode_set:0000000000000022 .L0 
     /tmp/ccyQOTuX.s:1535   .text.can_working_mode_set:0000000000000024 .L0 
     /tmp/ccyQOTuX.s:1537   .text.can_working_mode_set:0000000000000026 .L0 
     /tmp/ccyQOTuX.s:1544   .text.can_working_mode_set:000000000000002e .L0 
     /tmp/ccyQOTuX.s:1548   .text.can_working_mode_set:0000000000000030 .L0 
     /tmp/ccyQOTuX.s:1549   .text.can_working_mode_set:0000000000000030 .L0 
     /tmp/ccyQOTuX.s:1550   .text.can_working_mode_set:0000000000000030 .L0 
     /tmp/ccyQOTuX.s:1552   .text.can_working_mode_set:0000000000000032 .L0 
     /tmp/ccyQOTuX.s:1555   .text.can_working_mode_set:0000000000000034 .L0 
     /tmp/ccyQOTuX.s:1557   .text.can_working_mode_set:0000000000000036 .L0 
GAS LISTING /tmp/ccyQOTuX.s 			page 70


     /tmp/ccyQOTuX.s:1561   .text.can_working_mode_set:0000000000000038 .L0 
     /tmp/ccyQOTuX.s:1562   .text.can_working_mode_set:0000000000000038 .L0 
     /tmp/ccyQOTuX.s:1565   .text.can_working_mode_set:000000000000003a .L0 
     /tmp/ccyQOTuX.s:1567   .text.can_working_mode_set:000000000000003c .L0 
     /tmp/ccyQOTuX.s:1572   .text.can_working_mode_set:0000000000000042 .L0 
     /tmp/ccyQOTuX.s:1573   .text.can_working_mode_set:0000000000000042 .L0 
     /tmp/ccyQOTuX.s:1575   .text.can_working_mode_set:0000000000000044 .L0 
     /tmp/ccyQOTuX.s:1577   .text.can_working_mode_set:0000000000000048 .L0 
     /tmp/ccyQOTuX.s:1580   .text.can_working_mode_set:000000000000004c .L0 
     /tmp/ccyQOTuX.s:1581   .text.can_working_mode_set:000000000000004c .L0 
     /tmp/ccyQOTuX.s:1585   .text.can_working_mode_set:0000000000000054 .L0 
     /tmp/ccyQOTuX.s:1586   .text.can_working_mode_set:0000000000000054 .L0 
     /tmp/ccyQOTuX.s:1587   .text.can_working_mode_set:0000000000000054 .L0 
     /tmp/ccyQOTuX.s:1589   .text.can_working_mode_set:0000000000000056 .L0 
     /tmp/ccyQOTuX.s:1591   .text.can_working_mode_set:0000000000000058 .L0 
     /tmp/ccyQOTuX.s:1598   .text.can_working_mode_set:0000000000000060 .L0 
     /tmp/ccyQOTuX.s:1602   .text.can_working_mode_set:0000000000000062 .L0 
     /tmp/ccyQOTuX.s:1603   .text.can_working_mode_set:0000000000000062 .L0 
     /tmp/ccyQOTuX.s:1604   .text.can_working_mode_set:0000000000000062 .L0 
     /tmp/ccyQOTuX.s:1606   .text.can_working_mode_set:0000000000000064 .L0 
     /tmp/ccyQOTuX.s:1609   .text.can_working_mode_set:0000000000000066 .L0 
     /tmp/ccyQOTuX.s:1611   .text.can_working_mode_set:0000000000000068 .L0 
     /tmp/ccyQOTuX.s:1615   .text.can_working_mode_set:000000000000006a .L0 
     /tmp/ccyQOTuX.s:1616   .text.can_working_mode_set:000000000000006a .L0 
     /tmp/ccyQOTuX.s:1619   .text.can_working_mode_set:000000000000006c .L0 
     /tmp/ccyQOTuX.s:1624   .text.can_working_mode_set:0000000000000070 .L0 
     /tmp/ccyQOTuX.s:1625   .text.can_working_mode_set:0000000000000070 .L0 
     /tmp/ccyQOTuX.s:1627   .text.can_working_mode_set:0000000000000072 .L0 
     /tmp/ccyQOTuX.s:1629   .text.can_working_mode_set:0000000000000076 .L0 
     /tmp/ccyQOTuX.s:1632   .text.can_working_mode_set:000000000000007a .L0 
     /tmp/ccyQOTuX.s:1633   .text.can_working_mode_set:000000000000007a .L0 
     /tmp/ccyQOTuX.s:1637   .text.can_working_mode_set:0000000000000082 .L0 
     /tmp/ccyQOTuX.s:1638   .text.can_working_mode_set:0000000000000082 .L0 
     /tmp/ccyQOTuX.s:1639   .text.can_working_mode_set:0000000000000082 .L0 
     /tmp/ccyQOTuX.s:1641   .text.can_working_mode_set:0000000000000084 .L0 
     /tmp/ccyQOTuX.s:1643   .text.can_working_mode_set:0000000000000086 .L0 
     /tmp/ccyQOTuX.s:1650   .text.can_working_mode_set:000000000000008e .L0 
     /tmp/ccyQOTuX.s:1654   .text.can_working_mode_set:0000000000000090 .L0 
     /tmp/ccyQOTuX.s:1655   .text.can_working_mode_set:0000000000000090 .L0 
     /tmp/ccyQOTuX.s:1656   .text.can_working_mode_set:0000000000000090 .L0 
     /tmp/ccyQOTuX.s:1658   .text.can_working_mode_set:0000000000000092 .L0 
     /tmp/ccyQOTuX.s:1661   .text.can_working_mode_set:0000000000000094 .L0 
     /tmp/ccyQOTuX.s:1663   .text.can_working_mode_set:0000000000000096 .L0 
     /tmp/ccyQOTuX.s:1667   .text.can_working_mode_set:0000000000000098 .L0 
     /tmp/ccyQOTuX.s:1668   .text.can_working_mode_set:0000000000000098 .L0 
     /tmp/ccyQOTuX.s:1670   .text.can_working_mode_set:000000000000009a .L0 
     /tmp/ccyQOTuX.s:1673   .text.can_working_mode_set:000000000000009e .L0 
     /tmp/ccyQOTuX.s:1674   .text.can_working_mode_set:00000000000000a0 .L0 
     /tmp/ccyQOTuX.s:1681   .text.can_wakeup:0000000000000000 can_wakeup
     /tmp/ccyQOTuX.s:1684   .text.can_wakeup:0000000000000000 .L0 
     /tmp/ccyQOTuX.s:1686   .text.can_wakeup:0000000000000000 .L0 
     /tmp/ccyQOTuX.s:1687   .text.can_wakeup:0000000000000000 .L0 
     /tmp/ccyQOTuX.s:1688   .text.can_wakeup:0000000000000000 .L0 
     /tmp/ccyQOTuX.s:1689   .text.can_wakeup:0000000000000000 .L0 
     /tmp/ccyQOTuX.s:1690   .text.can_wakeup:0000000000000000 .L0 
     /tmp/ccyQOTuX.s:1692   .text.can_wakeup:0000000000000002 .L0 
     /tmp/ccyQOTuX.s:1694   .text.can_wakeup:0000000000000006 .L0 
GAS LISTING /tmp/ccyQOTuX.s 			page 71


     /tmp/ccyQOTuX.s:1697   .text.can_wakeup:000000000000000a .L0 
     /tmp/ccyQOTuX.s:1698   .text.can_wakeup:000000000000000a .L0 
     /tmp/ccyQOTuX.s:1699   .text.can_wakeup:000000000000000a .L0 
     /tmp/ccyQOTuX.s:1701   .text.can_wakeup:000000000000000c .L0 
     /tmp/ccyQOTuX.s:1703   .text.can_wakeup:000000000000000e .L0 
     /tmp/ccyQOTuX.s:1710   .text.can_wakeup:0000000000000016 .L0 
     /tmp/ccyQOTuX.s:1714   .text.can_wakeup:0000000000000018 .L0 
     /tmp/ccyQOTuX.s:1715   .text.can_wakeup:0000000000000018 .L0 
     /tmp/ccyQOTuX.s:1716   .text.can_wakeup:0000000000000018 .L0 
     /tmp/ccyQOTuX.s:1718   .text.can_wakeup:000000000000001a .L0 
     /tmp/ccyQOTuX.s:1721   .text.can_wakeup:000000000000001c .L0 
     /tmp/ccyQOTuX.s:1723   .text.can_wakeup:000000000000001e .L0 
     /tmp/ccyQOTuX.s:1727   .text.can_wakeup:0000000000000020 .L0 
     /tmp/ccyQOTuX.s:1728   .text.can_wakeup:0000000000000020 .L0 
     /tmp/ccyQOTuX.s:1731   .text.can_wakeup:0000000000000022 .L0 
     /tmp/ccyQOTuX.s:1732   .text.can_wakeup:0000000000000022 .L0 
     /tmp/ccyQOTuX.s:1736   .text.can_wakeup:0000000000000028 .L0 
     /tmp/ccyQOTuX.s:1738   .text.can_wakeup:000000000000002c .L0 
     /tmp/ccyQOTuX.s:1745   .text.can_error_get:0000000000000000 can_error_get
     /tmp/ccyQOTuX.s:1748   .text.can_error_get:0000000000000000 .L0 
     /tmp/ccyQOTuX.s:1750   .text.can_error_get:0000000000000000 .L0 
     /tmp/ccyQOTuX.s:1751   .text.can_error_get:0000000000000000 .L0 
     /tmp/ccyQOTuX.s:1752   .text.can_error_get:0000000000000000 .L0 
     /tmp/ccyQOTuX.s:1753   .text.can_error_get:0000000000000000 .L0 
     /tmp/ccyQOTuX.s:1754   .text.can_error_get:0000000000000000 .L0 
     /tmp/ccyQOTuX.s:1757   .text.can_error_get:0000000000000002 .L0 
     /tmp/ccyQOTuX.s:1758   .text.can_error_get:0000000000000002 .L0 
     /tmp/ccyQOTuX.s:1761   .text.can_error_get:0000000000000004 .L0 
     /tmp/ccyQOTuX.s:1764   .text.can_error_get:0000000000000008 .L0 
     /tmp/ccyQOTuX.s:1771   .text.can_receive_error_number_get:0000000000000000 can_receive_error_number_get
     /tmp/ccyQOTuX.s:1774   .text.can_receive_error_number_get:0000000000000000 .L0 
     /tmp/ccyQOTuX.s:1776   .text.can_receive_error_number_get:0000000000000000 .L0 
     /tmp/ccyQOTuX.s:1777   .text.can_receive_error_number_get:0000000000000000 .L0 
     /tmp/ccyQOTuX.s:1778   .text.can_receive_error_number_get:0000000000000000 .L0 
     /tmp/ccyQOTuX.s:1779   .text.can_receive_error_number_get:0000000000000000 .L0 
     /tmp/ccyQOTuX.s:1782   .text.can_receive_error_number_get:0000000000000002 .L0 
     /tmp/ccyQOTuX.s:1783   .text.can_receive_error_number_get:0000000000000002 .L0 
     /tmp/ccyQOTuX.s:1786   .text.can_receive_error_number_get:0000000000000006 .L0 
     /tmp/ccyQOTuX.s:1793   .text.can_transmit_error_number_get:0000000000000000 can_transmit_error_number_get
     /tmp/ccyQOTuX.s:1796   .text.can_transmit_error_number_get:0000000000000000 .L0 
     /tmp/ccyQOTuX.s:1798   .text.can_transmit_error_number_get:0000000000000000 .L0 
     /tmp/ccyQOTuX.s:1799   .text.can_transmit_error_number_get:0000000000000000 .L0 
     /tmp/ccyQOTuX.s:1800   .text.can_transmit_error_number_get:0000000000000000 .L0 
     /tmp/ccyQOTuX.s:1801   .text.can_transmit_error_number_get:0000000000000000 .L0 
     /tmp/ccyQOTuX.s:1804   .text.can_transmit_error_number_get:0000000000000002 .L0 
     /tmp/ccyQOTuX.s:1805   .text.can_transmit_error_number_get:0000000000000002 .L0 
     /tmp/ccyQOTuX.s:1808   .text.can_transmit_error_number_get:0000000000000004 .L0 
     /tmp/ccyQOTuX.s:1810   .text.can_transmit_error_number_get:000000000000000a .L0 
     /tmp/ccyQOTuX.s:1817   .text.can_interrupt_enable:0000000000000000 can_interrupt_enable
     /tmp/ccyQOTuX.s:1820   .text.can_interrupt_enable:0000000000000000 .L0 
     /tmp/ccyQOTuX.s:1822   .text.can_interrupt_enable:0000000000000000 .L0 
     /tmp/ccyQOTuX.s:1823   .text.can_interrupt_enable:0000000000000000 .L0 
     /tmp/ccyQOTuX.s:1824   .text.can_interrupt_enable:0000000000000000 .L0 
     /tmp/ccyQOTuX.s:1828   .text.can_interrupt_enable:0000000000000006 .L0 
     /tmp/ccyQOTuX.s:1829   .text.can_interrupt_enable:0000000000000008 .L0 
     /tmp/ccyQOTuX.s:1836   .text.can_interrupt_disable:0000000000000000 can_interrupt_disable
     /tmp/ccyQOTuX.s:1839   .text.can_interrupt_disable:0000000000000000 .L0 
GAS LISTING /tmp/ccyQOTuX.s 			page 72


     /tmp/ccyQOTuX.s:1841   .text.can_interrupt_disable:0000000000000000 .L0 
     /tmp/ccyQOTuX.s:1842   .text.can_interrupt_disable:0000000000000000 .L0 
     /tmp/ccyQOTuX.s:1843   .text.can_interrupt_disable:0000000000000000 .L0 
     /tmp/ccyQOTuX.s:1845   .text.can_interrupt_disable:0000000000000002 .L0 
     /tmp/ccyQOTuX.s:1848   .text.can_interrupt_disable:0000000000000006 .L0 
     /tmp/ccyQOTuX.s:1852   .text.can_interrupt_disable:000000000000000a .L0 
     /tmp/ccyQOTuX.s:1853   .text.can_interrupt_disable:000000000000000c .L0 
     /tmp/ccyQOTuX.s:1860   .text.can_flag_get:0000000000000000 can_flag_get
     /tmp/ccyQOTuX.s:1863   .text.can_flag_get:0000000000000000 .L0 
     /tmp/ccyQOTuX.s:1865   .text.can_flag_get:0000000000000000 .L0 
     /tmp/ccyQOTuX.s:1866   .text.can_flag_get:0000000000000000 .L0 
     /tmp/ccyQOTuX.s:1867   .text.can_flag_get:0000000000000000 .L0 
     /tmp/ccyQOTuX.s:1872   .text.can_flag_get:0000000000000008 .L0 
     /tmp/ccyQOTuX.s:1874   .text.can_flag_get:000000000000000c .L0 
     /tmp/ccyQOTuX.s:1876   .text.can_flag_get:0000000000000010 .L0 
     /tmp/ccyQOTuX.s:1883   .text.can_flag_clear:0000000000000000 can_flag_clear
     /tmp/ccyQOTuX.s:1886   .text.can_flag_clear:0000000000000000 .L0 
     /tmp/ccyQOTuX.s:1888   .text.can_flag_clear:0000000000000000 .L0 
     /tmp/ccyQOTuX.s:1889   .text.can_flag_clear:0000000000000000 .L0 
     /tmp/ccyQOTuX.s:1891   .text.can_flag_clear:0000000000000004 .L0 
     /tmp/ccyQOTuX.s:1893   .text.can_flag_clear:0000000000000006 .L0 
     /tmp/ccyQOTuX.s:1895   .text.can_flag_clear:0000000000000008 .L0 
     /tmp/ccyQOTuX.s:1898   .text.can_flag_clear:000000000000000c .L0 
     /tmp/ccyQOTuX.s:1900   .text.can_flag_clear:000000000000000e .L0 
     /tmp/ccyQOTuX.s:1901   .text.can_flag_clear:0000000000000010 .L0 
     /tmp/ccyQOTuX.s:1908   .text.can_interrupt_flag_get:0000000000000000 can_interrupt_flag_get
     /tmp/ccyQOTuX.s:1911   .text.can_interrupt_flag_get:0000000000000000 .L0 
     /tmp/ccyQOTuX.s:1913   .text.can_interrupt_flag_get:0000000000000000 .L0 
     /tmp/ccyQOTuX.s:1914   .text.can_interrupt_flag_get:0000000000000000 .L0 
     /tmp/ccyQOTuX.s:1915   .text.can_interrupt_flag_get:0000000000000000 .L0 
     /tmp/ccyQOTuX.s:1916   .text.can_interrupt_flag_get:0000000000000000 .L0 
     /tmp/ccyQOTuX.s:1917   .text.can_interrupt_flag_get:0000000000000000 .L0 
     /tmp/ccyQOTuX.s:1921   .text.can_interrupt_flag_get:0000000000000008 .L0 
     /tmp/ccyQOTuX.s:1924   .text.can_interrupt_flag_get:000000000000000e .L0 
     /tmp/ccyQOTuX.s:1926   .text.can_interrupt_flag_get:0000000000000010 .L0 
     /tmp/ccyQOTuX.s:1928   .text.can_interrupt_flag_get:0000000000000014 .L0 
     /tmp/ccyQOTuX.s:1931   .text.can_interrupt_flag_get:0000000000000018 .L0 
     /tmp/ccyQOTuX.s:1932   .text.can_interrupt_flag_get:0000000000000018 .L0 
     /tmp/ccyQOTuX.s:1933   .text.can_interrupt_flag_get:0000000000000018 .L0 
     /tmp/ccyQOTuX.s:1935   .text.can_interrupt_flag_get:000000000000001a .L0 
     /tmp/ccyQOTuX.s:1938   .text.can_interrupt_flag_get:000000000000001e .L0 
     /tmp/ccyQOTuX.s:1940   .text.can_interrupt_flag_get:0000000000000020 .L0 
     /tmp/ccyQOTuX.s:1943   .text.can_interrupt_flag_get:0000000000000024 .L0 
     /tmp/ccyQOTuX.s:1944   .text.can_interrupt_flag_get:0000000000000026 .L0 
     /tmp/ccyQOTuX.s:1951   .text.can_interrupt_flag_clear:0000000000000000 can_interrupt_flag_clear
     /tmp/ccyQOTuX.s:1954   .text.can_interrupt_flag_clear:0000000000000000 .L0 
     /tmp/ccyQOTuX.s:1956   .text.can_interrupt_flag_clear:0000000000000000 .L0 
     /tmp/ccyQOTuX.s:1957   .text.can_interrupt_flag_clear:0000000000000000 .L0 
     /tmp/ccyQOTuX.s:1959   .text.can_interrupt_flag_clear:0000000000000004 .L0 
     /tmp/ccyQOTuX.s:1963   .text.can_interrupt_flag_clear:0000000000000008 .L0 
     /tmp/ccyQOTuX.s:1965   .text.can_interrupt_flag_clear:000000000000000a .L0 
     /tmp/ccyQOTuX.s:1967   .text.can_interrupt_flag_clear:000000000000000e .L0 
     /tmp/ccyQOTuX.s:1969   .text.can_interrupt_flag_clear:0000000000000010 .L0 
     /tmp/ccyQOTuX.s:1970   .text.can_interrupt_flag_clear:0000000000000012 .L0 
     /tmp/ccyQOTuX.s:75     .text.can_deinit:0000000000000048 .L0 
     /tmp/ccyQOTuX.s:215    .text.can_struct_para_init:00000000000000ba .L0 
     /tmp/ccyQOTuX.s:557    .text.can_init:0000000000000188 .L0 
GAS LISTING /tmp/ccyQOTuX.s 			page 73


     /tmp/ccyQOTuX.s:713    .text.can_filter_init:00000000000000f4 .L0 
     /tmp/ccyQOTuX.s:761    .text.can1_filter_start_bank:0000000000000040 .L0 
     /tmp/ccyQOTuX.s:795    .text.can_debug_freeze_enable:000000000000002a .L0 
     /tmp/ccyQOTuX.s:830    .text.can_debug_freeze_disable:000000000000002c .L0 
     /tmp/ccyQOTuX.s:877    .text.can_time_trigger_mode_enable:000000000000002e .L0 
     /tmp/ccyQOTuX.s:924    .text.can_time_trigger_mode_disable:000000000000002e .L0 
     /tmp/ccyQOTuX.s:1095   .text.can_message_transmit:00000000000000f6 .L0 
     /tmp/ccyQOTuX.s:1187   .text.can_transmit_states:0000000000000062 .L0 
     /tmp/ccyQOTuX.s:1269   .text.can_transmission_stop:0000000000000050 .L0 
     /tmp/ccyQOTuX.s:1393   .text.can_message_receive:00000000000000a4 .L0 
     /tmp/ccyQOTuX.s:1435   .text.can_fifo_release:000000000000001e .L0 
     /tmp/ccyQOTuX.s:1488   .text.can_receive_message_length_get:000000000000001a .L0 
     /tmp/ccyQOTuX.s:1677   .text.can_working_mode_set:00000000000000a0 .L0 
     /tmp/ccyQOTuX.s:1741   .text.can_wakeup:000000000000002c .L0 
     /tmp/ccyQOTuX.s:1767   .text.can_error_get:0000000000000008 .L0 
     /tmp/ccyQOTuX.s:1789   .text.can_receive_error_number_get:0000000000000006 .L0 
     /tmp/ccyQOTuX.s:1813   .text.can_transmit_error_number_get:000000000000000a .L0 
     /tmp/ccyQOTuX.s:1832   .text.can_interrupt_enable:0000000000000008 .L0 
     /tmp/ccyQOTuX.s:1856   .text.can_interrupt_disable:000000000000000c .L0 
     /tmp/ccyQOTuX.s:1879   .text.can_flag_get:0000000000000010 .L0 
     /tmp/ccyQOTuX.s:1904   .text.can_flag_clear:0000000000000010 .L0 
     /tmp/ccyQOTuX.s:1947   .text.can_interrupt_flag_get:0000000000000026 .L0 
     /tmp/ccyQOTuX.s:1973   .text.can_interrupt_flag_clear:0000000000000012 .L0 
                     .debug_frame:0000000000000000 .L0 
     /tmp/ccyQOTuX.s:51     .text.can_deinit:000000000000002c .L5
     /tmp/ccyQOTuX.s:187    .text.can_struct_para_init:0000000000000088 .L7
     /tmp/ccyQOTuX.s:113    .text.can_struct_para_init:0000000000000022 .L8
     /tmp/ccyQOTuX.s:154    .text.can_struct_para_init:0000000000000060 .L15
     /tmp/ccyQOTuX.s:145    .text.can_struct_para_init:000000000000005e .L16
     /tmp/ccyQOTuX.s:146    .text.can_struct_para_init:000000000000005e .L12
     /tmp/ccyQOTuX.s:270    .text.can_init:000000000000002a .L18
     /tmp/ccyQOTuX.s:257    .text.can_init:0000000000000022 .L19
     /tmp/ccyQOTuX.s:253    .text.can_init:0000000000000020 .L43
     /tmp/ccyQOTuX.s:437    .text.can_init:00000000000000fa .L37
     /tmp/ccyQOTuX.s:482    .text.can_init:000000000000012e .L44
     /tmp/ccyQOTuX.s:495    .text.can_init:000000000000013e .L45
     /tmp/ccyQOTuX.s:508    .text.can_init:000000000000014e .L46
     /tmp/ccyQOTuX.s:521    .text.can_init:000000000000015e .L47
     /tmp/ccyQOTuX.s:534    .text.can_init:000000000000016e .L48
     /tmp/ccyQOTuX.s:547    .text.can_init:000000000000017e .L49
     /tmp/ccyQOTuX.s:440    .text.can_init:00000000000000fc .L21
     /tmp/ccyQOTuX.s:421    .text.can_init:00000000000000ec .L36
     /tmp/ccyQOTuX.s:417    .text.can_init:00000000000000ea .L35
     /tmp/ccyQOTuX.s:338    .text.can_init:0000000000000096 .L24
     /tmp/ccyQOTuX.s:351    .text.can_init:00000000000000a6 .L26
     /tmp/ccyQOTuX.s:364    .text.can_init:00000000000000b6 .L28
     /tmp/ccyQOTuX.s:377    .text.can_init:00000000000000c4 .L30
     /tmp/ccyQOTuX.s:390    .text.can_init:00000000000000d2 .L32
     /tmp/ccyQOTuX.s:396    .text.can_init:00000000000000d8 .L33
     /tmp/ccyQOTuX.s:692    .text.can_filter_init:00000000000000d6 .L51
     /tmp/ccyQOTuX.s:685    .text.can_filter_init:00000000000000ca .L53
     /tmp/ccyQOTuX.s:677    .text.can_filter_init:00000000000000ba .L55
     /tmp/ccyQOTuX.s:667    .text.can_filter_init:00000000000000aa .L57
     /tmp/ccyQOTuX.s:654    .text.can_filter_init:0000000000000094 .L56
     /tmp/ccyQOTuX.s:643    .text.can_filter_init:0000000000000080 .L54
     /tmp/ccyQOTuX.s:630    .text.can_filter_init:000000000000006c .L52
     /tmp/ccyQOTuX.s:608    .text.can_filter_init:0000000000000048 .L58
GAS LISTING /tmp/ccyQOTuX.s 			page 74


     /tmp/ccyQOTuX.s:786    .text.can_debug_freeze_enable:0000000000000020 .L62
     /tmp/ccyQOTuX.s:821    .text.can_debug_freeze_disable:0000000000000022 .L65
     /tmp/ccyQOTuX.s:1040   .text.can_message_transmit:00000000000000b6 .L74
     /tmp/ccyQOTuX.s:1073   .text.can_message_transmit:00000000000000e2 .L70
     /tmp/ccyQOTuX.s:1056   .text.can_message_transmit:00000000000000cc .L77
     /tmp/ccyQOTuX.s:971    .text.can_message_transmit:0000000000000034 .L72
     /tmp/ccyQOTuX.s:988    .text.can_message_transmit:000000000000004c .L73
     /tmp/ccyQOTuX.s:1036   .text.can_message_transmit:00000000000000b4 .L71
     /tmp/ccyQOTuX.s:1044   .text.can_message_transmit:00000000000000b8 .L69
     /tmp/ccyQOTuX.s:1168   .text.can_transmit_states:000000000000004e .L79
     /tmp/ccyQOTuX.s:1147   .text.can_transmit_states:0000000000000030 .L80
     /tmp/ccyQOTuX.s:1122   .text.can_transmit_states:0000000000000014 .L90
     /tmp/ccyQOTuX.s:1118   .text.can_transmit_states:0000000000000012 .L78
     /tmp/ccyQOTuX.s:1134   .text.can_transmit_states:000000000000001e .L82
     /tmp/ccyQOTuX.s:1216   .text.can_transmission_stop:0000000000000018 .L92
     /tmp/ccyQOTuX.s:1206   .text.can_transmission_stop:000000000000000e .L93
     /tmp/ccyQOTuX.s:1227   .text.can_transmission_stop:0000000000000026 .L101
     /tmp/ccyQOTuX.s:1246   .text.can_transmission_stop:000000000000003a .L102
     /tmp/ccyQOTuX.s:1236   .text.can_transmission_stop:0000000000000032 .L96
     /tmp/ccyQOTuX.s:1255   .text.can_transmission_stop:0000000000000048 .L97
     /tmp/ccyQOTuX.s:1373   .text.can_message_receive:0000000000000090 .L104
     /tmp/ccyQOTuX.s:1382   .text.can_message_receive:000000000000009a .L106
     /tmp/ccyQOTuX.s:1297   .text.can_message_receive:000000000000001a .L105
     /tmp/ccyQOTuX.s:1411   .text.can_fifo_release:000000000000000c .L109
     /tmp/ccyQOTuX.s:1424   .text.can_fifo_release:0000000000000014 .L113
     /tmp/ccyQOTuX.s:1416   .text.can_fifo_release:0000000000000012 .L111
     /tmp/ccyQOTuX.s:1459   .text.can_receive_message_length_get:000000000000000a .L115
     /tmp/ccyQOTuX.s:1474   .text.can_receive_message_length_get:0000000000000014 .L118
     /tmp/ccyQOTuX.s:1570   .text.can_working_mode_set:0000000000000042 .L139
     /tmp/ccyQOTuX.s:1521   .text.can_working_mode_set:0000000000000018 .L140
     /tmp/ccyQOTuX.s:1622   .text.can_working_mode_set:0000000000000070 .L141
     /tmp/ccyQOTuX.s:1559   .text.can_working_mode_set:0000000000000038 .L125
     /tmp/ccyQOTuX.s:1546   .text.can_working_mode_set:0000000000000030 .L126
     /tmp/ccyQOTuX.s:1542   .text.can_working_mode_set:000000000000002e .L142
     /tmp/ccyQOTuX.s:1613   .text.can_working_mode_set:000000000000006a .L121
     /tmp/ccyQOTuX.s:1600   .text.can_working_mode_set:0000000000000062 .L122
     /tmp/ccyQOTuX.s:1596   .text.can_working_mode_set:0000000000000060 .L143
     /tmp/ccyQOTuX.s:1665   .text.can_working_mode_set:0000000000000098 .L127
     /tmp/ccyQOTuX.s:1652   .text.can_working_mode_set:0000000000000090 .L128
     /tmp/ccyQOTuX.s:1648   .text.can_working_mode_set:000000000000008e .L144
     /tmp/ccyQOTuX.s:1725   .text.can_wakeup:0000000000000020 .L146
     /tmp/ccyQOTuX.s:1712   .text.can_wakeup:0000000000000018 .L147
     /tmp/ccyQOTuX.s:1708   .text.can_wakeup:0000000000000016 .L155
     /tmp/ccyQOTuX.s:1941   .text.can_interrupt_flag_get:0000000000000024 .L163
     /tmp/ccyQOTuX.s:3833   .debug_abbrev:0000000000000000 .Ldebug_abbrev0
     /tmp/ccyQOTuX.s:5757   .debug_str:0000000000000bfd .LASF197
     /tmp/ccyQOTuX.s:5417   .debug_str:00000000000001c0 .LASF198
     /tmp/ccyQOTuX.s:5579   .debug_str:00000000000006cd .LASF199
     /tmp/ccyQOTuX.s:5303   .debug_ranges:0000000000000000 .Ldebug_ranges0
     /tmp/ccyQOTuX.s:5359   .debug_line:0000000000000000 .Ldebug_line0
     /tmp/ccyQOTuX.s:5393   .debug_str:0000000000000106 .LASF0
     /tmp/ccyQOTuX.s:5727   .debug_str:0000000000000b33 .LASF1
     /tmp/ccyQOTuX.s:5647   .debug_str:00000000000008ee .LASF4
     /tmp/ccyQOTuX.s:5693   .debug_str:0000000000000a33 .LASF2
     /tmp/ccyQOTuX.s:5623   .debug_str:0000000000000848 .LASF3
     /tmp/ccyQOTuX.s:5459   .debug_str:0000000000000343 .LASF5
     /tmp/ccyQOTuX.s:5729   .debug_str:0000000000000b3f .LASF6
GAS LISTING /tmp/ccyQOTuX.s 			page 75


     /tmp/ccyQOTuX.s:5627   .debug_str:000000000000085c .LASF7
     /tmp/ccyQOTuX.s:5695   .debug_str:0000000000000a41 .LASF8
     /tmp/ccyQOTuX.s:5665   .debug_str:0000000000000963 .LASF9
     /tmp/ccyQOTuX.s:5545   .debug_str:00000000000005c5 .LASF10
     /tmp/ccyQOTuX.s:5453   .debug_str:0000000000000312 .LASF11
     /tmp/ccyQOTuX.s:5525   .debug_str:0000000000000520 .LASF12
     /tmp/ccyQOTuX.s:5601   .debug_str:000000000000079d .LASF13
     /tmp/ccyQOTuX.s:5441   .debug_str:00000000000002c2 .LASF14
     /tmp/ccyQOTuX.s:5515   .debug_str:00000000000004e5 .LASF15
     /tmp/ccyQOTuX.s:5661   .debug_str:0000000000000952 .LASF16
     /tmp/ccyQOTuX.s:5657   .debug_str:0000000000000936 .LASF17
     /tmp/ccyQOTuX.s:5639   .debug_str:00000000000008bc .LASF18
     /tmp/ccyQOTuX.s:5411   .debug_str:0000000000000199 .LASF19
     /tmp/ccyQOTuX.s:5363   .debug_str:0000000000000012 .LASF20
     /tmp/ccyQOTuX.s:5511   .debug_str:00000000000004c4 .LASF21
     /tmp/ccyQOTuX.s:5503   .debug_str:0000000000000494 .LASF22
     /tmp/ccyQOTuX.s:5697   .debug_str:0000000000000a4c .LASF23
     /tmp/ccyQOTuX.s:5675   .debug_str:00000000000009bc .LASF24
     /tmp/ccyQOTuX.s:5629   .debug_str:0000000000000865 .LASF25
     /tmp/ccyQOTuX.s:5485   .debug_str:0000000000000409 .LASF26
     /tmp/ccyQOTuX.s:5707   .debug_str:0000000000000a9d .LASF27
     /tmp/ccyQOTuX.s:5549   .debug_str:00000000000005e9 .LASF28
     /tmp/ccyQOTuX.s:5633   .debug_str:0000000000000881 .LASF29
     /tmp/ccyQOTuX.s:5671   .debug_str:000000000000099d .LASF30
     /tmp/ccyQOTuX.s:5521   .debug_str:0000000000000506 .LASF31
     /tmp/ccyQOTuX.s:5397   .debug_str:000000000000011e .LASF32
     /tmp/ccyQOTuX.s:5621   .debug_str:0000000000000838 .LASF33
     /tmp/ccyQOTuX.s:5477   .debug_str:00000000000003c7 .LASF34
     /tmp/ccyQOTuX.s:5451   .debug_str:0000000000000304 .LASF35
     /tmp/ccyQOTuX.s:5529   .debug_str:000000000000053d .LASF36
     /tmp/ccyQOTuX.s:5487   .debug_str:0000000000000419 .LASF37
     /tmp/ccyQOTuX.s:5725   .debug_str:0000000000000b25 .LASF38
     /tmp/ccyQOTuX.s:5539   .debug_str:000000000000058b .LASF39
     /tmp/ccyQOTuX.s:5375   .debug_str:0000000000000062 .LASF40
     /tmp/ccyQOTuX.s:5607   .debug_str:00000000000007c7 .LASF41
     /tmp/ccyQOTuX.s:5447   .debug_str:00000000000002e8 .LASF42
     /tmp/ccyQOTuX.s:5711   .debug_str:0000000000000ab9 .LASF43
     /tmp/ccyQOTuX.s:5401   .debug_str:000000000000013c .LASF44
     /tmp/ccyQOTuX.s:5619   .debug_str:000000000000082c .LASF45
     /tmp/ccyQOTuX.s:5659   .debug_str:0000000000000944 .LASF46
     /tmp/ccyQOTuX.s:5495   .debug_str:0000000000000452 .LASF47
     /tmp/ccyQOTuX.s:5651   .debug_str:0000000000000906 .LASF48
     /tmp/ccyQOTuX.s:5489   .debug_str:0000000000000427 .LASF49
     /tmp/ccyQOTuX.s:5709   .debug_str:0000000000000aad .LASF50
     /tmp/ccyQOTuX.s:5523   .debug_str:0000000000000514 .LASF51
     /tmp/ccyQOTuX.s:5631   .debug_str:0000000000000875 .LASF52
     /tmp/ccyQOTuX.s:5461   .debug_str:000000000000034e .LASF53
     /tmp/ccyQOTuX.s:5733   .debug_str:0000000000000b65 .LASF54
     /tmp/ccyQOTuX.s:5551   .debug_str:00000000000005f9 .LASF55
     /tmp/ccyQOTuX.s:5381   .debug_str:0000000000000097 .LASF56
     /tmp/ccyQOTuX.s:5625   .debug_str:0000000000000852 .LASF57
     /tmp/ccyQOTuX.s:5531   .debug_str:000000000000054a .LASF58
     /tmp/ccyQOTuX.s:5371   .debug_str:000000000000004c .LASF59
     /tmp/ccyQOTuX.s:5597   .debug_str:0000000000000784 .LASF60
     /tmp/ccyQOTuX.s:5439   .debug_str:00000000000002b5 .LASF61
     /tmp/ccyQOTuX.s:5679   .debug_str:00000000000009d9 .LASF62
     /tmp/ccyQOTuX.s:5479   .debug_str:00000000000003d7 .LASF63
GAS LISTING /tmp/ccyQOTuX.s 			page 76


     /tmp/ccyQOTuX.s:5719   .debug_str:0000000000000af6 .LASF64
     /tmp/ccyQOTuX.s:5649   .debug_str:00000000000008f8 .LASF65
     /tmp/ccyQOTuX.s:5555   .debug_str:0000000000000614 .LASF66
     /tmp/ccyQOTuX.s:5443   .debug_str:00000000000002cb .LASF67
     /tmp/ccyQOTuX.s:5599   .debug_str:0000000000000791 .LASF68
     /tmp/ccyQOTuX.s:5567   .debug_str:000000000000066a .LASF69
     /tmp/ccyQOTuX.s:5565   .debug_str:000000000000065c .LASF70
     /tmp/ccyQOTuX.s:5563   .debug_str:000000000000064e .LASF71
     /tmp/ccyQOTuX.s:5591   .debug_str:0000000000000758 .LASF72
     /tmp/ccyQOTuX.s:5589   .debug_str:000000000000074a .LASF73
     /tmp/ccyQOTuX.s:5587   .debug_str:000000000000073c .LASF74
     /tmp/ccyQOTuX.s:5399   .debug_str:000000000000012e .LASF75
     /tmp/ccyQOTuX.s:5723   .debug_str:0000000000000b17 .LASF76
     /tmp/ccyQOTuX.s:5557   .debug_str:0000000000000620 .LASF77
     /tmp/ccyQOTuX.s:5735   .debug_str:0000000000000b71 .LASF78
     /tmp/ccyQOTuX.s:5655   .debug_str:0000000000000927 .LASF79
     /tmp/ccyQOTuX.s:5437   .debug_str:00000000000002a7 .LASF80
     /tmp/ccyQOTuX.s:5449   .debug_str:00000000000002f6 .LASF81
     /tmp/ccyQOTuX.s:5457   .debug_str:0000000000000335 .LASF82
     /tmp/ccyQOTuX.s:5669   .debug_str:000000000000098a .LASF83
     /tmp/ccyQOTuX.s:5569   .debug_str:0000000000000678 .LASF84
     /tmp/ccyQOTuX.s:5739   .debug_str:0000000000000b8a .LASF85
     /tmp/ccyQOTuX.s:5423   .debug_str:0000000000000225 .LASF86
     /tmp/ccyQOTuX.s:5421   .debug_str:0000000000000213 .LASF87
     /tmp/ccyQOTuX.s:5419   .debug_str:0000000000000201 .LASF88
     /tmp/ccyQOTuX.s:5387   .debug_str:00000000000000c9 .LASF89
     /tmp/ccyQOTuX.s:5535   .debug_str:0000000000000567 .LASF90
     /tmp/ccyQOTuX.s:5389   .debug_str:00000000000000db .LASF91
     /tmp/ccyQOTuX.s:5537   .debug_str:0000000000000579 .LASF92
     /tmp/ccyQOTuX.s:5473   .debug_str:00000000000003a2 .LASF93
     /tmp/ccyQOTuX.s:5645   .debug_str:00000000000008e1 .LASF94
     /tmp/ccyQOTuX.s:5705   .debug_str:0000000000000a8b .LASF95
     /tmp/ccyQOTuX.s:5427   .debug_str:0000000000000256 .LASF96
     /tmp/ccyQOTuX.s:5429   .debug_str:0000000000000265 .LASF97
     /tmp/ccyQOTuX.s:5501   .debug_str:0000000000000485 .LASF98
     /tmp/ccyQOTuX.s:5491   .debug_str:0000000000000434 .LASF99
     /tmp/ccyQOTuX.s:5475   .debug_str:00000000000003ba .LASF100
     /tmp/ccyQOTuX.s:5747   .debug_str:0000000000000bcc .LASF101
     /tmp/ccyQOTuX.s:5571   .debug_str:000000000000068a .LASF102
     /tmp/ccyQOTuX.s:5673   .debug_str:00000000000009ab .LASF103
     /tmp/ccyQOTuX.s:5583   .debug_str:000000000000071b .LASF104
     /tmp/ccyQOTuX.s:5481   .debug_str:00000000000003e3 .LASF105
     /tmp/ccyQOTuX.s:5617   .debug_str:0000000000000824 .LASF106
     /tmp/ccyQOTuX.s:5507   .debug_str:00000000000004ad .LASF107
     /tmp/ccyQOTuX.s:5409   .debug_str:0000000000000193 .LASF108
     /tmp/ccyQOTuX.s:5415   .debug_str:00000000000001ba .LASF109
     /tmp/ccyQOTuX.s:5755   .debug_str:0000000000000bf5 .LASF110
     /tmp/ccyQOTuX.s:5575   .debug_str:00000000000006b4 .LASF111
     /tmp/ccyQOTuX.s:5581   .debug_str:00000000000006ff .LASF112
     /tmp/ccyQOTuX.s:5493   .debug_str:000000000000044a .LASF113
     /tmp/ccyQOTuX.s:5465   .debug_str:0000000000000371 .LASF114
     /tmp/ccyQOTuX.s:5683   .debug_str:0000000000000a04 .LASF115
     /tmp/ccyQOTuX.s:5469   .debug_str:0000000000000391 .LASF116
     /tmp/ccyQOTuX.s:5687   .debug_str:0000000000000a10 .LASF117
     /tmp/ccyQOTuX.s:5519   .debug_str:00000000000004fe .LASF118
     /tmp/ccyQOTuX.s:5685   .debug_str:0000000000000a0a .LASF119
     /tmp/ccyQOTuX.s:5367   .debug_str:0000000000000023 .LASF120
GAS LISTING /tmp/ccyQOTuX.s 			page 77


     /tmp/ccyQOTuX.s:5577   .debug_str:00000000000006bc .LASF121
     /tmp/ccyQOTuX.s:5741   .debug_str:0000000000000b9d .LASF122
     /tmp/ccyQOTuX.s:5435   .debug_str:0000000000000296 .LASF123
     /tmp/ccyQOTuX.s:5533   .debug_str:0000000000000557 .LASF124
     /tmp/ccyQOTuX.s:5379   .debug_str:0000000000000084 .LASF125
     /tmp/ccyQOTuX.s:5759   .debug_str:0000000000000c96 .LASF126
     /tmp/ccyQOTuX.s:5605   .debug_str:00000000000007bb .LASF127
     /tmp/ccyQOTuX.s:5455   .debug_str:0000000000000329 .LASF128
     /tmp/ccyQOTuX.s:5559   .debug_str:000000000000062e .LASF129
     /tmp/ccyQOTuX.s:5699   .debug_str:0000000000000a5b .LASF130
     /tmp/ccyQOTuX.s:5383   .debug_str:00000000000000a2 .LASF131
     /tmp/ccyQOTuX.s:5749   .debug_str:0000000000000bdc .LASF132
     /tmp/ccyQOTuX.s:5361   .debug_str:0000000000000000 .LASF133
     /tmp/ccyQOTuX.s:5369   .debug_str:000000000000003e .LASF134
     /tmp/ccyQOTuX.s:5463   .debug_str:000000000000035a .LASF135
     /tmp/ccyQOTuX.s:5385   .debug_str:00000000000000b1 .LASF136
     /tmp/ccyQOTuX.s:5677   .debug_str:00000000000009cb .LASF137
     /tmp/ccyQOTuX.s:5413   .debug_str:00000000000001a4 .LASF138
     /tmp/ccyQOTuX.s:5445   .debug_str:00000000000002d9 .LASF139
     /tmp/ccyQOTuX.s:5717   .debug_str:0000000000000ae2 .LASF140
     /tmp/ccyQOTuX.s:5499   .debug_str:0000000000000475 .LASF141
     /tmp/ccyQOTuX.s:5667   .debug_str:0000000000000975 .LASF142
     /tmp/ccyQOTuX.s:5541   .debug_str:0000000000000599 .LASF143
     /tmp/ccyQOTuX.s:5613   .debug_str:00000000000007f9 .LASF144
     /tmp/ccyQOTuX.s:5553   .debug_str:0000000000000604 .LASF145
     /tmp/ccyQOTuX.s:5561   .debug_str:000000000000063c .LASF146
     /tmp/ccyQOTuX.s:5691   .debug_str:0000000000000a1d .LASF147
     /tmp/ccyQOTuX.s:5405   .debug_str:0000000000000165 .LASF148
     /tmp/ccyQOTuX.s:5527   .debug_str:0000000000000528 .LASF149
     /tmp/ccyQOTuX.s:5391   .debug_str:00000000000000ed .LASF154
     /tmp/ccyQOTuX.s:1952   .text.can_interrupt_flag_clear:0000000000000000 .LFB27
     /tmp/ccyQOTuX.s:1971   .text.can_interrupt_flag_clear:0000000000000012 .LFE27
     /tmp/ccyQOTuX.s:5737   .debug_str:0000000000000b7f .LASF150
     /tmp/ccyQOTuX.s:5641   .debug_str:00000000000008c2 .LASF151
     /tmp/ccyQOTuX.s:4431   .debug_loc:0000000000000000 .LLST34
     /tmp/ccyQOTuX.s:5585   .debug_str:0000000000000725 .LASF156
     /tmp/ccyQOTuX.s:1909   .text.can_interrupt_flag_get:0000000000000000 .LFB26
     /tmp/ccyQOTuX.s:1945   .text.can_interrupt_flag_get:0000000000000026 .LFE26
     /tmp/ccyQOTuX.s:4445   .debug_loc:0000000000000021 .LLST31
     /tmp/ccyQOTuX.s:5751   .debug_str:0000000000000beb .LASF152
     /tmp/ccyQOTuX.s:4459   .debug_loc:0000000000000042 .LLST32
     /tmp/ccyQOTuX.s:5753   .debug_str:0000000000000bf0 .LASF153
     /tmp/ccyQOTuX.s:4480   .debug_loc:0000000000000071 .LLST33
     /tmp/ccyQOTuX.s:5505   .debug_str:000000000000049e .LASF155
     /tmp/ccyQOTuX.s:1884   .text.can_flag_clear:0000000000000000 .LFB25
     /tmp/ccyQOTuX.s:1902   .text.can_flag_clear:0000000000000010 .LFE25
     /tmp/ccyQOTuX.s:4501   .debug_loc:0000000000000099 .LLST30
     /tmp/ccyQOTuX.s:5745   .debug_str:0000000000000bbf .LASF157
     /tmp/ccyQOTuX.s:1861   .text.can_flag_get:0000000000000000 .LFB24
     /tmp/ccyQOTuX.s:1877   .text.can_flag_get:0000000000000010 .LFE24
     /tmp/ccyQOTuX.s:4515   .debug_loc:00000000000000ba .LLST29
     /tmp/ccyQOTuX.s:5547   .debug_str:00000000000005d3 .LASF158
     /tmp/ccyQOTuX.s:1837   .text.can_interrupt_disable:0000000000000000 .LFB23
     /tmp/ccyQOTuX.s:1854   .text.can_interrupt_disable:000000000000000c .LFE23
     /tmp/ccyQOTuX.s:5663   .debug_str:0000000000000959 .LASF159
     /tmp/ccyQOTuX.s:4529   .debug_loc:00000000000000db .LLST28
     /tmp/ccyQOTuX.s:5721   .debug_str:0000000000000b02 .LASF160
GAS LISTING /tmp/ccyQOTuX.s 			page 78


     /tmp/ccyQOTuX.s:1818   .text.can_interrupt_enable:0000000000000000 .LFB22
     /tmp/ccyQOTuX.s:1830   .text.can_interrupt_enable:0000000000000008 .LFE22
     /tmp/ccyQOTuX.s:5609   .debug_str:00000000000007d5 .LASF161
     /tmp/ccyQOTuX.s:1794   .text.can_transmit_error_number_get:0000000000000000 .LFB21
     /tmp/ccyQOTuX.s:1811   .text.can_transmit_error_number_get:000000000000000a .LFE21
     /tmp/ccyQOTuX.s:4550   .debug_loc:000000000000010a .LLST26
     /tmp/ccyQOTuX.s:4564   .debug_loc:000000000000012b .LLST27
     /tmp/ccyQOTuX.s:5403   .debug_str:0000000000000148 .LASF162
     /tmp/ccyQOTuX.s:1772   .text.can_receive_error_number_get:0000000000000000 .LFB20
     /tmp/ccyQOTuX.s:1787   .text.can_receive_error_number_get:0000000000000006 .LFE20
     /tmp/ccyQOTuX.s:4575   .debug_loc:0000000000000142 .LLST24
     /tmp/ccyQOTuX.s:4589   .debug_loc:0000000000000163 .LLST25
     /tmp/ccyQOTuX.s:5593   .debug_str:0000000000000766 .LASF163
     /tmp/ccyQOTuX.s:1746   .text.can_error_get:0000000000000000 .LFB19
     /tmp/ccyQOTuX.s:1765   .text.can_error_get:0000000000000008 .LFE19
     /tmp/ccyQOTuX.s:4600   .debug_loc:000000000000017a .LLST22
     /tmp/ccyQOTuX.s:5611   .debug_str:00000000000007f3 .LASF164
     /tmp/ccyQOTuX.s:4614   .debug_loc:000000000000019b .LLST23
     /tmp/ccyQOTuX.s:5471   .debug_str:0000000000000397 .LASF165
     /tmp/ccyQOTuX.s:1682   .text.can_wakeup:0000000000000000 .LFB18
     /tmp/ccyQOTuX.s:1739   .text.can_wakeup:000000000000002c .LFE18
     /tmp/ccyQOTuX.s:4636   .debug_loc:00000000000001cb .LLST19
     /tmp/ccyQOTuX.s:4649   .debug_loc:00000000000001eb .LLST20
     /tmp/ccyQOTuX.s:5701   .debug_str:0000000000000a77 .LASF166
     /tmp/ccyQOTuX.s:4670   .debug_loc:0000000000000213 .LLST21
     /tmp/ccyQOTuX.s:5603   .debug_str:00000000000007a6 .LASF167
     /tmp/ccyQOTuX.s:1493   .text.can_working_mode_set:0000000000000000 .LFB17
     /tmp/ccyQOTuX.s:1675   .text.can_working_mode_set:00000000000000a0 .LFE17
     /tmp/ccyQOTuX.s:4693   .debug_loc:000000000000024c .LLST17
     /tmp/ccyQOTuX.s:4720   .debug_loc:0000000000000296 .LLST18
     /tmp/ccyQOTuX.s:5425   .debug_str:0000000000000237 .LASF168
     /tmp/ccyQOTuX.s:1440   .text.can_receive_message_length_get:0000000000000000 .LFB16
     /tmp/ccyQOTuX.s:1486   .text.can_receive_message_length_get:000000000000001a .LFE16
     /tmp/ccyQOTuX.s:4783   .debug_loc:0000000000000331 .LLST15
     /tmp/ccyQOTuX.s:5703   .debug_str:0000000000000a7f .LASF169
     /tmp/ccyQOTuX.s:4802   .debug_loc:0000000000000365 .LLST16
     /tmp/ccyQOTuX.s:5517   .debug_str:00000000000004ed .LASF170
     /tmp/ccyQOTuX.s:1398   .text.can_fifo_release:0000000000000000 .LFB15
     /tmp/ccyQOTuX.s:1433   .text.can_fifo_release:000000000000001e .LFE15
     /tmp/ccyQOTuX.s:5377   .debug_str:0000000000000070 .LASF171
     /tmp/ccyQOTuX.s:1274   .text.can_message_receive:0000000000000000 .LFB14
     /tmp/ccyQOTuX.s:1391   .text.can_message_receive:00000000000000a4 .LFE14
     /tmp/ccyQOTuX.s:5595   .debug_str:0000000000000774 .LASF172
     /tmp/ccyQOTuX.s:5715   .debug_str:0000000000000acc .LASF173
     /tmp/ccyQOTuX.s:1192   .text.can_transmission_stop:0000000000000000 .LFB13
     /tmp/ccyQOTuX.s:1267   .text.can_transmission_stop:0000000000000050 .LFE13
     /tmp/ccyQOTuX.s:5509   .debug_str:00000000000004b5 .LASF174
     /tmp/ccyQOTuX.s:5653   .debug_str:0000000000000913 .LASF175
     /tmp/ccyQOTuX.s:1100   .text.can_transmit_states:0000000000000000 .LFB12
     /tmp/ccyQOTuX.s:1185   .text.can_transmit_states:0000000000000062 .LFE12
     /tmp/ccyQOTuX.s:4832   .debug_loc:00000000000003b2 .LLST13
     /tmp/ccyQOTuX.s:5713   .debug_str:0000000000000ac6 .LASF176
     /tmp/ccyQOTuX.s:4883   .debug_loc:0000000000000429 .LLST14
     /tmp/ccyQOTuX.s:5497   .debug_str:0000000000000460 .LASF177
     /tmp/ccyQOTuX.s:929    .text.can_message_transmit:0000000000000000 .LFB11
     /tmp/ccyQOTuX.s:1093   .text.can_message_transmit:00000000000000f6 .LFE11
     /tmp/ccyQOTuX.s:4924   .debug_loc:0000000000000492 .LLST11
GAS LISTING /tmp/ccyQOTuX.s 			page 79


     /tmp/ccyQOTuX.s:5483   .debug_str:00000000000003f8 .LASF178
     /tmp/ccyQOTuX.s:4969   .debug_loc:00000000000004fc .LLST12
     /tmp/ccyQOTuX.s:5681   .debug_str:00000000000009e6 .LASF179
     /tmp/ccyQOTuX.s:882    .text.can_time_trigger_mode_disable:0000000000000000 .LFB10
     /tmp/ccyQOTuX.s:922    .text.can_time_trigger_mode_disable:000000000000002e .LFE10
     /tmp/ccyQOTuX.s:4987   .debug_loc:0000000000000528 .LLST10
     /tmp/ccyQOTuX.s:5635   .debug_str:000000000000088f .LASF180
     /tmp/ccyQOTuX.s:835    .text.can_time_trigger_mode_enable:0000000000000000 .LFB9
     /tmp/ccyQOTuX.s:875    .text.can_time_trigger_mode_enable:000000000000002e .LFE9
     /tmp/ccyQOTuX.s:5010   .debug_loc:0000000000000560 .LLST9
     /tmp/ccyQOTuX.s:5513   .debug_str:00000000000004cc .LASF181
     /tmp/ccyQOTuX.s:800    .text.can_debug_freeze_disable:0000000000000000 .LFB8
     /tmp/ccyQOTuX.s:828    .text.can_debug_freeze_disable:000000000000002c .LFE8
     /tmp/ccyQOTuX.s:5033   .debug_loc:0000000000000598 .LLST8
     /tmp/ccyQOTuX.s:820    .text.can_debug_freeze_disable:0000000000000022 .LVL34
     /tmp/ccyQOTuX.s:826    .text.can_debug_freeze_disable:000000000000002c .LVL36
     /tmp/ccyQOTuX.s:5407   .debug_str:000000000000017b .LASF182
     /tmp/ccyQOTuX.s:766    .text.can_debug_freeze_enable:0000000000000000 .LFB7
     /tmp/ccyQOTuX.s:793    .text.can_debug_freeze_enable:000000000000002a .LFE7
     /tmp/ccyQOTuX.s:5058   .debug_loc:00000000000005d2 .LLST7
     /tmp/ccyQOTuX.s:785    .text.can_debug_freeze_enable:0000000000000020 .LVL29
     /tmp/ccyQOTuX.s:791    .text.can_debug_freeze_enable:000000000000002a .LVL31
     /tmp/ccyQOTuX.s:5573   .debug_str:000000000000069d .LASF183
     /tmp/ccyQOTuX.s:718    .text.can1_filter_start_bank:0000000000000000 .LFB6
     /tmp/ccyQOTuX.s:759    .text.can1_filter_start_bank:0000000000000040 .LFE6
     /tmp/ccyQOTuX.s:5395   .debug_str:0000000000000113 .LASF184
     /tmp/ccyQOTuX.s:5083   .debug_loc:000000000000060c .LLST6
     /tmp/ccyQOTuX.s:5637   .debug_str:00000000000008ac .LASF185
     /tmp/ccyQOTuX.s:562    .text.can_filter_init:0000000000000000 .LFB5
     /tmp/ccyQOTuX.s:711    .text.can_filter_init:00000000000000f4 .LFE5
     /tmp/ccyQOTuX.s:5643   .debug_str:00000000000008c7 .LASF186
     /tmp/ccyQOTuX.s:5097   .debug_loc:000000000000062d .LLST5
     /tmp/ccyQOTuX.s:5431   .debug_str:0000000000000274 .LASF187
     /tmp/ccyQOTuX.s:220    .text.can_init:0000000000000000 .LFB4
     /tmp/ccyQOTuX.s:555    .text.can_init:0000000000000188 .LFE4
     /tmp/ccyQOTuX.s:5126   .debug_loc:000000000000066b .LLST2
     /tmp/ccyQOTuX.s:5731   .debug_str:0000000000000b52 .LASF188
     /tmp/ccyQOTuX.s:5137   .debug_loc:0000000000000689 .LLST3
     /tmp/ccyQOTuX.s:5170   .debug_loc:00000000000006db .LLST4
     /tmp/ccyQOTuX.s:5543   .debug_str:00000000000005b0 .LASF189
     /tmp/ccyQOTuX.s:80     .text.can_struct_para_init:0000000000000000 .LFB3
     /tmp/ccyQOTuX.s:213    .text.can_struct_para_init:00000000000000ba .LFE3
     /tmp/ccyQOTuX.s:5689   .debug_str:0000000000000a18 .LASF190
     /tmp/ccyQOTuX.s:5373   .debug_str:0000000000000059 .LASF191
     /tmp/ccyQOTuX.s:5365   .debug_str:0000000000000018 .LASF192
     /tmp/ccyQOTuX.s:14     .text.can_deinit:0000000000000000 .LFB2
     /tmp/ccyQOTuX.s:73     .text.can_deinit:0000000000000048 .LFE2
     /tmp/ccyQOTuX.s:5187   .debug_loc:0000000000000706 .LLST0
     /tmp/ccyQOTuX.s:5215   .debug_loc:000000000000074a .LLST1
     /tmp/ccyQOTuX.s:36     .text.can_deinit:000000000000001c .LVL2
     /tmp/ccyQOTuX.s:50     .text.can_deinit:000000000000002c .LVL3
     /tmp/ccyQOTuX.s:58     .text.can_deinit:0000000000000038 .LVL5
     /tmp/ccyQOTuX.s:71     .text.can_deinit:0000000000000048 .LVL6
     /tmp/ccyQOTuX.s:5615   .debug_str:0000000000000811 .LASF193
     /tmp/ccyQOTuX.s:5743   .debug_str:0000000000000bad .LASF194
     /tmp/ccyQOTuX.s:5467   .debug_str:0000000000000379 .LASF195
     /tmp/ccyQOTuX.s:5433   .debug_str:000000000000027d .LASF196
GAS LISTING /tmp/ccyQOTuX.s 			page 80


     /tmp/ccyQOTuX.s:1955   .text.can_interrupt_flag_clear:0000000000000000 .LVL126
     /tmp/ccyQOTuX.s:1961   .text.can_interrupt_flag_clear:0000000000000008 .LVL127
     /tmp/ccyQOTuX.s:1912   .text.can_interrupt_flag_get:0000000000000000 .LVL123
     /tmp/ccyQOTuX.s:1929   .text.can_interrupt_flag_get:0000000000000018 .LVL124
     /tmp/ccyQOTuX.s:1936   .text.can_interrupt_flag_get:000000000000001e .LVL125
     /tmp/ccyQOTuX.s:1887   .text.can_flag_clear:0000000000000000 .LVL121
     /tmp/ccyQOTuX.s:1896   .text.can_flag_clear:000000000000000c .LVL122
     /tmp/ccyQOTuX.s:1864   .text.can_flag_get:0000000000000000 .LVL119
     /tmp/ccyQOTuX.s:1870   .text.can_flag_get:0000000000000008 .LVL120
     /tmp/ccyQOTuX.s:1840   .text.can_interrupt_disable:0000000000000000 .LVL116
     /tmp/ccyQOTuX.s:1846   .text.can_interrupt_disable:0000000000000006 .LVL117
     /tmp/ccyQOTuX.s:1849   .text.can_interrupt_disable:0000000000000008 .LVL118
     /tmp/ccyQOTuX.s:1797   .text.can_transmit_error_number_get:0000000000000000 .LVL112
     /tmp/ccyQOTuX.s:1802   .text.can_transmit_error_number_get:0000000000000002 .LVL113
     /tmp/ccyQOTuX.s:1806   .text.can_transmit_error_number_get:0000000000000004 .LVL114
     /tmp/ccyQOTuX.s:1775   .text.can_receive_error_number_get:0000000000000000 .LVL109
     /tmp/ccyQOTuX.s:1780   .text.can_receive_error_number_get:0000000000000002 .LVL110
     /tmp/ccyQOTuX.s:1784   .text.can_receive_error_number_get:0000000000000004 .LVL111
     /tmp/ccyQOTuX.s:1749   .text.can_error_get:0000000000000000 .LVL105
     /tmp/ccyQOTuX.s:1755   .text.can_error_get:0000000000000002 .LVL106
     /tmp/ccyQOTuX.s:1759   .text.can_error_get:0000000000000004 .LVL107
     /tmp/ccyQOTuX.s:1762   .text.can_error_get:0000000000000006 .LVL108
     /tmp/ccyQOTuX.s:1685   .text.can_wakeup:0000000000000000 .LVL98
     /tmp/ccyQOTuX.s:1729   .text.can_wakeup:0000000000000022 .LVL103
     /tmp/ccyQOTuX.s:1733   .text.can_wakeup:0000000000000024 .LVL104
     /tmp/ccyQOTuX.s:1707   .text.can_wakeup:0000000000000016 .LVL99
     /tmp/ccyQOTuX.s:1711   .text.can_wakeup:0000000000000018 .LVL100
     /tmp/ccyQOTuX.s:1719   .text.can_wakeup:000000000000001c .LVL101
     /tmp/ccyQOTuX.s:1724   .text.can_wakeup:0000000000000020 .LVL102
     /tmp/ccyQOTuX.s:1496   .text.can_working_mode_set:0000000000000000 .LVL79
     /tmp/ccyQOTuX.s:1515   .text.can_working_mode_set:0000000000000012 .LVL80
     /tmp/ccyQOTuX.s:1520   .text.can_working_mode_set:0000000000000018 .LVL81
     /tmp/ccyQOTuX.s:1563   .text.can_working_mode_set:000000000000003a .LVL86
     /tmp/ccyQOTuX.s:1569   .text.can_working_mode_set:0000000000000042 .LVL87
     /tmp/ccyQOTuX.s:1617   .text.can_working_mode_set:000000000000006c .LVL92
     /tmp/ccyQOTuX.s:1541   .text.can_working_mode_set:000000000000002e .LVL82
     /tmp/ccyQOTuX.s:1545   .text.can_working_mode_set:0000000000000030 .LVL83
     /tmp/ccyQOTuX.s:1553   .text.can_working_mode_set:0000000000000034 .LVL84
     /tmp/ccyQOTuX.s:1558   .text.can_working_mode_set:0000000000000038 .LVL85
     /tmp/ccyQOTuX.s:1595   .text.can_working_mode_set:0000000000000060 .LVL88
     /tmp/ccyQOTuX.s:1599   .text.can_working_mode_set:0000000000000062 .LVL89
     /tmp/ccyQOTuX.s:1607   .text.can_working_mode_set:0000000000000066 .LVL90
     /tmp/ccyQOTuX.s:1612   .text.can_working_mode_set:000000000000006a .LVL91
     /tmp/ccyQOTuX.s:1621   .text.can_working_mode_set:0000000000000070 .LVL93
     /tmp/ccyQOTuX.s:1647   .text.can_working_mode_set:000000000000008e .LVL94
     /tmp/ccyQOTuX.s:1651   .text.can_working_mode_set:0000000000000090 .LVL95
     /tmp/ccyQOTuX.s:1659   .text.can_working_mode_set:0000000000000094 .LVL96
     /tmp/ccyQOTuX.s:1664   .text.can_working_mode_set:0000000000000098 .LVL97
     /tmp/ccyQOTuX.s:1443   .text.can_receive_message_length_get:0000000000000000 .LVL71
     /tmp/ccyQOTuX.s:1453   .text.can_receive_message_length_get:0000000000000006 .LVL72
     /tmp/ccyQOTuX.s:1458   .text.can_receive_message_length_get:000000000000000a .LVL74
     /tmp/ccyQOTuX.s:1465   .text.can_receive_message_length_get:000000000000000e .LVL75
     /tmp/ccyQOTuX.s:1456   .text.can_receive_message_length_get:0000000000000008 .LVL73
     /tmp/ccyQOTuX.s:1468   .text.can_receive_message_length_get:0000000000000012 .LVL76
     /tmp/ccyQOTuX.s:1473   .text.can_receive_message_length_get:0000000000000014 .LVL77
     /tmp/ccyQOTuX.s:1480   .text.can_receive_message_length_get:0000000000000018 .LVL78
     /tmp/ccyQOTuX.s:1103   .text.can_transmit_states:0000000000000000 .LVL55
GAS LISTING /tmp/ccyQOTuX.s 			page 81


     /tmp/ccyQOTuX.s:1115   .text.can_transmit_states:0000000000000010 .LVL56
     /tmp/ccyQOTuX.s:1117   .text.can_transmit_states:0000000000000012 .LVL57
     /tmp/ccyQOTuX.s:1121   .text.can_transmit_states:0000000000000014 .LVL58
     /tmp/ccyQOTuX.s:1126   .text.can_transmit_states:0000000000000016 .LVL59
     /tmp/ccyQOTuX.s:1146   .text.can_transmit_states:0000000000000030 .LVL62
     /tmp/ccyQOTuX.s:1153   .text.can_transmit_states:0000000000000036 .LVL63
     /tmp/ccyQOTuX.s:1167   .text.can_transmit_states:000000000000004e .LVL65
     /tmp/ccyQOTuX.s:1180   .text.can_transmit_states:000000000000005c .LVL67
     /tmp/ccyQOTuX.s:1131   .text.can_transmit_states:000000000000001e .LVL60
     /tmp/ccyQOTuX.s:1142   .text.can_transmit_states:000000000000002a .LVL61
     /tmp/ccyQOTuX.s:1158   .text.can_transmit_states:000000000000003c .LVL64
     /tmp/ccyQOTuX.s:1176   .text.can_transmit_states:000000000000005a .LVL66
     /tmp/ccyQOTuX.s:932    .text.can_message_transmit:0000000000000000 .LVL47
     /tmp/ccyQOTuX.s:965    .text.can_message_transmit:0000000000000032 .LVL48
     /tmp/ccyQOTuX.s:970    .text.can_message_transmit:0000000000000034 .LVL49
     /tmp/ccyQOTuX.s:1039   .text.can_message_transmit:00000000000000b6 .LVL50
     /tmp/ccyQOTuX.s:1043   .text.can_message_transmit:00000000000000b8 .LVL51
     /tmp/ccyQOTuX.s:1072   .text.can_message_transmit:00000000000000e2 .LVL52
     /tmp/ccyQOTuX.s:1081   .text.can_message_transmit:00000000000000ea .LVL53
     /tmp/ccyQOTuX.s:1088   .text.can_message_transmit:00000000000000f2 .LVL54
     /tmp/ccyQOTuX.s:893    .text.can_time_trigger_mode_disable:0000000000000008 .LVL43
     /tmp/ccyQOTuX.s:901    .text.can_time_trigger_mode_disable:0000000000000014 .LVL44
     /tmp/ccyQOTuX.s:909    .text.can_time_trigger_mode_disable:0000000000000020 .LVL45
     /tmp/ccyQOTuX.s:917    .text.can_time_trigger_mode_disable:000000000000002c .LVL46
     /tmp/ccyQOTuX.s:846    .text.can_time_trigger_mode_enable:0000000000000008 .LVL38
     /tmp/ccyQOTuX.s:854    .text.can_time_trigger_mode_enable:0000000000000014 .LVL39
     /tmp/ccyQOTuX.s:862    .text.can_time_trigger_mode_enable:0000000000000020 .LVL40
     /tmp/ccyQOTuX.s:870    .text.can_time_trigger_mode_enable:000000000000002c .LVL41
     /tmp/ccyQOTuX.s:803    .text.can_debug_freeze_disable:0000000000000000 .LVL32
     /tmp/ccyQOTuX.s:818    .text.can_debug_freeze_disable:000000000000001a .LVL33
     /tmp/ccyQOTuX.s:824    .text.can_debug_freeze_disable:0000000000000024 .LVL35
     /tmp/ccyQOTuX.s:769    .text.can_debug_freeze_enable:0000000000000000 .LVL27
     /tmp/ccyQOTuX.s:783    .text.can_debug_freeze_enable:0000000000000018 .LVL28
     /tmp/ccyQOTuX.s:789    .text.can_debug_freeze_enable:0000000000000022 .LVL30
     /tmp/ccyQOTuX.s:721    .text.can1_filter_start_bank:0000000000000000 .LVL25
     /tmp/ccyQOTuX.s:737    .text.can1_filter_start_bank:000000000000001c .LVL26
     /tmp/ccyQOTuX.s:565    .text.can_filter_init:0000000000000000 .LVL21
     /tmp/ccyQOTuX.s:582    .text.can_filter_init:000000000000001e .LVL22
     /tmp/ccyQOTuX.s:665    .text.can_filter_init:00000000000000a6 .LVL23
     /tmp/ccyQOTuX.s:676    .text.can_filter_init:00000000000000ba .LVL24
     /tmp/ccyQOTuX.s:223    .text.can_init:0000000000000000 .LVL8
     /tmp/ccyQOTuX.s:274    .text.can_init:000000000000002c .LVL13
     /tmp/ccyQOTuX.s:252    .text.can_init:0000000000000020 .LVL9
     /tmp/ccyQOTuX.s:256    .text.can_init:0000000000000022 .LVL10
     /tmp/ccyQOTuX.s:264    .text.can_init:0000000000000026 .LVL11
     /tmp/ccyQOTuX.s:269    .text.can_init:000000000000002a .LVL12
     /tmp/ccyQOTuX.s:403    .text.can_init:00000000000000de .LVL14
     /tmp/ccyQOTuX.s:416    .text.can_init:00000000000000ea .LVL15
     /tmp/ccyQOTuX.s:435    .text.can_init:00000000000000f8 .LVL18
     /tmp/ccyQOTuX.s:441    .text.can_init:00000000000000fc .LVL19
     /tmp/ccyQOTuX.s:481    .text.can_init:000000000000012e .LVL20
     /tmp/ccyQOTuX.s:22     .text.can_deinit:0000000000000002 .LCFI0
     /tmp/ccyQOTuX.s:46     .text.can_deinit:0000000000000024 .LCFI1
     /tmp/ccyQOTuX.s:52     .text.can_deinit:000000000000002c .LCFI2
     /tmp/ccyQOTuX.s:67     .text.can_deinit:0000000000000040 .LCFI3
     /tmp/ccyQOTuX.s:18     .text.can_deinit:0000000000000000 .LVL0
     /tmp/ccyQOTuX.s:34     .text.can_deinit:0000000000000014 .LVL1
GAS LISTING /tmp/ccyQOTuX.s 			page 82


     /tmp/ccyQOTuX.s:56     .text.can_deinit:0000000000000030 .LVL4
     /tmp/ccyQOTuX.s:1982   .debug_info:0000000000000000 .Ldebug_info0

UNDEFINED SYMBOLS
rcu_periph_reset_enable
rcu_periph_reset_disable
dbg_periph_enable
dbg_periph_disable
