GAS LISTING /tmp/ccX7HQ2N.s 			page 1


   1              		.file	"n200_func.c"
   2              		.option nopic
   3              		.attribute arch, "rv32i2p0_m2p0_a2p0_c2p0"
   4              		.attribute unaligned_access, 0
   5              		.attribute stack_align, 16
   6              		.text
   7              	.Ltext0:
   8              		.cfi_sections	.debug_frame
   9              		.section	.text.pmp_open_all_space,"ax",@progbits
  10              		.align	1
  11              		.globl	pmp_open_all_space
  13              	pmp_open_all_space:
  14              	.LFB6:
  15              		.file 1 "../Firmware/RISCV/drivers/n200_func.c"
   1:../Firmware/RISCV/drivers/n200_func.c **** // See LICENSE for license details.
   2:../Firmware/RISCV/drivers/n200_func.c **** #include <gd32vf103.h>
   3:../Firmware/RISCV/drivers/n200_func.c **** #include <stdio.h>
   4:../Firmware/RISCV/drivers/n200_func.c **** #include <stdlib.h>
   5:../Firmware/RISCV/drivers/n200_func.c **** #include <string.h>
   6:../Firmware/RISCV/drivers/n200_func.c **** #include <unistd.h>
   7:../Firmware/RISCV/drivers/n200_func.c **** 
   8:../Firmware/RISCV/drivers/n200_func.c **** #include "riscv_encoding.h"
   9:../Firmware/RISCV/drivers/n200_func.c **** #include "n200_func.h"
  10:../Firmware/RISCV/drivers/n200_func.c **** 
  11:../Firmware/RISCV/drivers/n200_func.c ****     // Configure PMP to make all the address space accesable and executable
  12:../Firmware/RISCV/drivers/n200_func.c **** void pmp_open_all_space(){
  16              		.loc 1 12 26
  17              		.cfi_startproc
  13:../Firmware/RISCV/drivers/n200_func.c ****     // Config entry0 addr to all 1s to make the range cover all space
  14:../Firmware/RISCV/drivers/n200_func.c ****     asm volatile ("li x6, 0xffffffff":::"x6");
  18              		.loc 1 14 5
  19              	 #APP
  20              	# 14 "../Firmware/RISCV/drivers/n200_func.c" 1
  15              	    asm volatile ("csrw pmpaddr0, x6":::);
  21              		li x6, 0xffffffff
  22              	# 0 "" 2
  23              		.loc 1 15 5
  24              	# 15 "../Firmware/RISCV/drivers/n200_func.c" 1
  16              	    // Config entry0 cfg to make it NAPOT address mode, and R/W/X okay
  17:../Firmware/RISCV/drivers/n200_func.c ****     asm volatile ("li x6, 0x7f":::"x6");
  25              		csrw pmpaddr0, x6
  26              	# 0 "" 2
  27              		.loc 1 17 5
  28              	# 17 "../Firmware/RISCV/drivers/n200_func.c" 1
  18              	    asm volatile ("csrw pmpcfg0, x6":::);
  29              		li x6, 0x7f
  30              	# 0 "" 2
  31              		.loc 1 18 5
  32              	# 18 "../Firmware/RISCV/drivers/n200_func.c" 1
  19              	}
  33              		csrw pmpcfg0, x6
  34              	# 0 "" 2
  35              		.loc 1 19 1 is_stmt 0
  36              	 #NO_APP
  37 0010 8280     		ret
  38              		.cfi_endproc
  39              	.LFE6:
GAS LISTING /tmp/ccX7HQ2N.s 			page 2


  41              		.section	.text.switch_m2u_mode,"ax",@progbits
  42              		.align	1
  43              		.globl	switch_m2u_mode
  45              	switch_m2u_mode:
  46              	.LFB7:
  20:../Firmware/RISCV/drivers/n200_func.c **** 
  21:../Firmware/RISCV/drivers/n200_func.c **** void switch_m2u_mode(){
  47              		.loc 1 21 23 is_stmt 1
  48              		.cfi_startproc
  22:../Firmware/RISCV/drivers/n200_func.c ****     clear_csr (mstatus,MSTATUS_MPP);
  49              		.loc 1 22 5
  50              	.LBB87:
  51              		.loc 1 22 5
  52              		.loc 1 22 5
  53              		.loc 1 22 5
  54 0000 8967     		li	a5,8192
  55 0002 93870780 		addi	a5,a5,-2048
  56              	 #APP
  57              	# 22 "../Firmware/RISCV/drivers/n200_func.c" 1
  23              	    //printf("\nIn the m2u function, the mstatus is 0x%x\n", read_csr(mstatus));
  58              		csrrc a5, mstatus, a5
  59              	# 0 "" 2
  60              	.LVL0:
  22:../Firmware/RISCV/drivers/n200_func.c ****     clear_csr (mstatus,MSTATUS_MPP);
  61              		.loc 1 22 5
  62              	 #NO_APP
  63              	.LBE87:
  24:../Firmware/RISCV/drivers/n200_func.c ****     //printf("\nIn the m2u function, the mepc is 0x%x\n", read_csr(mepc));
  25:../Firmware/RISCV/drivers/n200_func.c ****     asm volatile ("la x6, 1f    ":::"x6");
  64              		.loc 1 25 5
  65              	 #APP
  66              	# 25 "../Firmware/RISCV/drivers/n200_func.c" 1
  26              	    asm volatile ("csrw mepc, x6":::);
  67              		la x6, 1f    
  68              	# 0 "" 2
  69              		.loc 1 26 5
  70              	# 26 "../Firmware/RISCV/drivers/n200_func.c" 1
  27              	    asm volatile ("mret":::);
  71              		csrw mepc, x6
  72              	# 0 "" 2
  73              		.loc 1 27 5
  74              	# 27 "../Firmware/RISCV/drivers/n200_func.c" 1
  28              	    asm volatile ("1:":::);
  75              		mret
  76              	# 0 "" 2
  77              		.loc 1 28 5
  78              	# 28 "../Firmware/RISCV/drivers/n200_func.c" 1
  29              	} 
  79              		1:
  80              	# 0 "" 2
  81              		.loc 1 29 1 is_stmt 0
  82              	 #NO_APP
  83 001a 8280     		ret
  84              		.cfi_endproc
  85              	.LFE7:
  87              		.section	.text.mtime_lo,"ax",@progbits
  88              		.align	1
GAS LISTING /tmp/ccX7HQ2N.s 			page 3


  89              		.globl	mtime_lo
  91              	mtime_lo:
  92              	.LFB8:
  30:../Firmware/RISCV/drivers/n200_func.c **** 
  31:../Firmware/RISCV/drivers/n200_func.c **** uint32_t mtime_lo(void)
  32:../Firmware/RISCV/drivers/n200_func.c **** {
  93              		.loc 1 32 1 is_stmt 1
  94              		.cfi_startproc
  33:../Firmware/RISCV/drivers/n200_func.c ****   return *(volatile uint32_t *)(TIMER_CTRL_ADDR + TIMER_MTIME);
  95              		.loc 1 33 3
  96              		.loc 1 33 10 is_stmt 0
  97 0000 B70700D1 		li	a5,-788529152
  98 0004 8843     		lw	a0,0(a5)
  34:../Firmware/RISCV/drivers/n200_func.c **** }
  99              		.loc 1 34 1
 100 0006 8280     		ret
 101              		.cfi_endproc
 102              	.LFE8:
 104              		.section	.text.mtime_hi,"ax",@progbits
 105              		.align	1
 106              		.globl	mtime_hi
 108              	mtime_hi:
 109              	.LFB9:
  35:../Firmware/RISCV/drivers/n200_func.c **** 
  36:../Firmware/RISCV/drivers/n200_func.c **** 
  37:../Firmware/RISCV/drivers/n200_func.c **** uint32_t mtime_hi(void)
  38:../Firmware/RISCV/drivers/n200_func.c **** {
 110              		.loc 1 38 1 is_stmt 1
 111              		.cfi_startproc
  39:../Firmware/RISCV/drivers/n200_func.c ****   return *(volatile uint32_t *)(TIMER_CTRL_ADDR + TIMER_MTIME + 4);
 112              		.loc 1 39 3
 113              		.loc 1 39 10 is_stmt 0
 114 0000 B70700D1 		li	a5,-788529152
 115 0004 C843     		lw	a0,4(a5)
  40:../Firmware/RISCV/drivers/n200_func.c **** }
 116              		.loc 1 40 1
 117 0006 8280     		ret
 118              		.cfi_endproc
 119              	.LFE9:
 121              		.section	.text.get_timer_value,"ax",@progbits
 122              		.align	1
 123              		.globl	get_timer_value
 125              	get_timer_value:
 126              	.LFB10:
  41:../Firmware/RISCV/drivers/n200_func.c **** 
  42:../Firmware/RISCV/drivers/n200_func.c **** uint64_t get_timer_value()
  43:../Firmware/RISCV/drivers/n200_func.c **** {
 127              		.loc 1 43 1 is_stmt 1
 128              		.cfi_startproc
 129              	.LBB88:
 130              	.LBB89:
 131              	.LBB90:
  39:../Firmware/RISCV/drivers/n200_func.c **** }
 132              		.loc 1 39 10 is_stmt 0
 133 0000 B70700D1 		li	a5,-788529152
 134              	.L7:
 135              	.LBE90:
GAS LISTING /tmp/ccX7HQ2N.s 			page 4


 136              	.LBE89:
 137              	.LBE88:
  44:../Firmware/RISCV/drivers/n200_func.c ****   while (1) {
 138              		.loc 1 44 3 is_stmt 1
 139              	.LBB97:
  45:../Firmware/RISCV/drivers/n200_func.c ****     uint32_t hi = mtime_hi();
 140              		.loc 1 45 5
 141              	.LBB92:
 142              	.LBB91:
  39:../Firmware/RISCV/drivers/n200_func.c **** }
 143              		.loc 1 39 3
  39:../Firmware/RISCV/drivers/n200_func.c **** }
 144              		.loc 1 39 10 is_stmt 0
 145 0004 D843     		lw	a4,4(a5)
 146              	.LVL1:
 147              	.LBE91:
 148              	.LBE92:
  46:../Firmware/RISCV/drivers/n200_func.c ****     uint32_t lo = mtime_lo();
 149              		.loc 1 46 5 is_stmt 1
 150              	.LBB93:
 151              	.LBB94:
  33:../Firmware/RISCV/drivers/n200_func.c **** }
 152              		.loc 1 33 3
  33:../Firmware/RISCV/drivers/n200_func.c **** }
 153              		.loc 1 33 10 is_stmt 0
 154 0006 8843     		lw	a0,0(a5)
 155              	.LVL2:
 156              	.LBE94:
 157              	.LBE93:
  47:../Firmware/RISCV/drivers/n200_func.c ****     if (hi == mtime_hi())
 158              		.loc 1 47 5 is_stmt 1
 159              	.LBB95:
 160              	.LBB96:
  39:../Firmware/RISCV/drivers/n200_func.c **** }
 161              		.loc 1 39 3
  39:../Firmware/RISCV/drivers/n200_func.c **** }
 162              		.loc 1 39 10 is_stmt 0
 163 0008 CC43     		lw	a1,4(a5)
 164              	.LBE96:
 165              	.LBE95:
 166              		.loc 1 47 8
 167 000a E39DE5FE 		bne	a1,a4,.L7
  48:../Firmware/RISCV/drivers/n200_func.c ****       return ((uint64_t)hi << 32) | lo;
 168              		.loc 1 48 7 is_stmt 1
 169              	.LBE97:
  49:../Firmware/RISCV/drivers/n200_func.c ****   }
  50:../Firmware/RISCV/drivers/n200_func.c **** }
 170              		.loc 1 50 1 is_stmt 0
 171 000e 8280     		ret
 172              		.cfi_endproc
 173              	.LFE10:
 175              		.section	.text.get_timer_freq,"ax",@progbits
 176              		.align	1
 177              		.globl	get_timer_freq
 179              	get_timer_freq:
 180              	.LFB11:
  51:../Firmware/RISCV/drivers/n200_func.c **** 
GAS LISTING /tmp/ccX7HQ2N.s 			page 5


  52:../Firmware/RISCV/drivers/n200_func.c **** uint32_t get_timer_freq()
  53:../Firmware/RISCV/drivers/n200_func.c **** {
 181              		.loc 1 53 1 is_stmt 1
 182              		.cfi_startproc
  54:../Firmware/RISCV/drivers/n200_func.c ****   return TIMER_FREQ;
 183              		.loc 1 54 3
 184              		.loc 1 54 10 is_stmt 0
 185 0000 B7070000 		lui	a5,%hi(SystemCoreClock)
 186 0004 03A50700 		lw	a0,%lo(SystemCoreClock)(a5)
  55:../Firmware/RISCV/drivers/n200_func.c **** }
 187              		.loc 1 55 1
 188 0008 0981     		srli	a0,a0,2
 189 000a 8280     		ret
 190              		.cfi_endproc
 191              	.LFE11:
 193              		.section	.text.get_instret_value,"ax",@progbits
 194              		.align	1
 195              		.globl	get_instret_value
 197              	get_instret_value:
 198              	.LFB12:
  56:../Firmware/RISCV/drivers/n200_func.c **** 
  57:../Firmware/RISCV/drivers/n200_func.c **** uint64_t get_instret_value()
  58:../Firmware/RISCV/drivers/n200_func.c **** {
 199              		.loc 1 58 1 is_stmt 1
 200              		.cfi_startproc
 201              	.L11:
  59:../Firmware/RISCV/drivers/n200_func.c ****   while (1) {
 202              		.loc 1 59 3
 203              	.LBB98:
  60:../Firmware/RISCV/drivers/n200_func.c ****     uint32_t hi = read_csr(minstreth);
 204              		.loc 1 60 5
 205              	.LBB99:
 206              		.loc 1 60 19
 207              		.loc 1 60 19
 208              	 #APP
 209              	# 60 "../Firmware/RISCV/drivers/n200_func.c" 1
  61              	    uint32_t lo = read_csr(minstret);
 210              		csrr a1, minstreth
 211              	# 0 "" 2
 212              	.LVL3:
  60:../Firmware/RISCV/drivers/n200_func.c ****     uint32_t hi = read_csr(minstreth);
 213              		.loc 1 60 19
 214              	 #NO_APP
 215              	.LBE99:
 216              		.loc 1 61 5
 217              	.LBB100:
 218              		.loc 1 61 19
 219              		.loc 1 61 19
 220              	 #APP
 221              	# 61 "../Firmware/RISCV/drivers/n200_func.c" 1
  62              	    if (hi == read_csr(minstreth))
 222              		csrr a0, minstret
 223              	# 0 "" 2
 224              	.LVL4:
  61:../Firmware/RISCV/drivers/n200_func.c ****     if (hi == read_csr(minstreth))
 225              		.loc 1 61 19
 226              	 #NO_APP
GAS LISTING /tmp/ccX7HQ2N.s 			page 6


 227              	.LBE100:
 228              		.loc 1 62 5
 229              	.LBB101:
 230              		.loc 1 62 15
 231              		.loc 1 62 15
 232              	 #APP
 233              	# 62 "../Firmware/RISCV/drivers/n200_func.c" 1
  63              	      return ((uint64_t)hi << 32) | lo;
 234              		csrr a5, minstreth
 235              	# 0 "" 2
 236              	.LVL5:
  62:../Firmware/RISCV/drivers/n200_func.c ****       return ((uint64_t)hi << 32) | lo;
 237              		.loc 1 62 15
 238              	 #NO_APP
 239              	.LBE101:
  62:../Firmware/RISCV/drivers/n200_func.c ****       return ((uint64_t)hi << 32) | lo;
 240              		.loc 1 62 8 is_stmt 0
 241 000c E39AF5FE 		bne	a1,a5,.L11
 242              		.loc 1 63 7 is_stmt 1
 243              	.LBE98:
  64:../Firmware/RISCV/drivers/n200_func.c ****   }
  65:../Firmware/RISCV/drivers/n200_func.c **** }
 244              		.loc 1 65 1 is_stmt 0
 245 0010 8280     		ret
 246              		.cfi_endproc
 247              	.LFE12:
 249              		.section	.text.get_cycle_value,"ax",@progbits
 250              		.align	1
 251              		.globl	get_cycle_value
 253              	get_cycle_value:
 254              	.LFB13:
  66:../Firmware/RISCV/drivers/n200_func.c **** 
  67:../Firmware/RISCV/drivers/n200_func.c **** uint64_t get_cycle_value()
  68:../Firmware/RISCV/drivers/n200_func.c **** {
 255              		.loc 1 68 1 is_stmt 1
 256              		.cfi_startproc
 257              	.L14:
  69:../Firmware/RISCV/drivers/n200_func.c ****   while (1) {
 258              		.loc 1 69 3
 259              	.LBB102:
  70:../Firmware/RISCV/drivers/n200_func.c ****     uint32_t hi = read_csr(mcycleh);
 260              		.loc 1 70 5
 261              	.LBB103:
 262              		.loc 1 70 19
 263              		.loc 1 70 19
 264              	 #APP
 265              	# 70 "../Firmware/RISCV/drivers/n200_func.c" 1
  71              	    uint32_t lo = read_csr(mcycle);
 266              		csrr a1, mcycleh
 267              	# 0 "" 2
 268              	.LVL6:
  70:../Firmware/RISCV/drivers/n200_func.c ****     uint32_t hi = read_csr(mcycleh);
 269              		.loc 1 70 19
 270              	 #NO_APP
 271              	.LBE103:
 272              		.loc 1 71 5
 273              	.LBB104:
GAS LISTING /tmp/ccX7HQ2N.s 			page 7


 274              		.loc 1 71 19
 275              		.loc 1 71 19
 276              	 #APP
 277              	# 71 "../Firmware/RISCV/drivers/n200_func.c" 1
  72              	    if (hi == read_csr(mcycleh))
 278              		csrr a0, mcycle
 279              	# 0 "" 2
 280              	.LVL7:
  71:../Firmware/RISCV/drivers/n200_func.c ****     if (hi == read_csr(mcycleh))
 281              		.loc 1 71 19
 282              	 #NO_APP
 283              	.LBE104:
 284              		.loc 1 72 5
 285              	.LBB105:
 286              		.loc 1 72 15
 287              		.loc 1 72 15
 288              	 #APP
 289              	# 72 "../Firmware/RISCV/drivers/n200_func.c" 1
  73              	      return ((uint64_t)hi << 32) | lo;
 290              		csrr a5, mcycleh
 291              	# 0 "" 2
 292              	.LVL8:
  72:../Firmware/RISCV/drivers/n200_func.c ****       return ((uint64_t)hi << 32) | lo;
 293              		.loc 1 72 15
 294              	 #NO_APP
 295              	.LBE105:
  72:../Firmware/RISCV/drivers/n200_func.c ****       return ((uint64_t)hi << 32) | lo;
 296              		.loc 1 72 8 is_stmt 0
 297 000c E39AF5FE 		bne	a1,a5,.L14
 298              		.loc 1 73 7 is_stmt 1
 299              	.LBE102:
  74:../Firmware/RISCV/drivers/n200_func.c ****   }
  75:../Firmware/RISCV/drivers/n200_func.c **** }
 300              		.loc 1 75 1 is_stmt 0
 301 0010 8280     		ret
 302              		.cfi_endproc
 303              	.LFE13:
 305              		.section	.text.measure_cpu_freq,"ax",@progbits
 306              		.align	1
 307              		.globl	measure_cpu_freq
 309              	measure_cpu_freq:
 310              	.LFB14:
  76:../Firmware/RISCV/drivers/n200_func.c **** 
  77:../Firmware/RISCV/drivers/n200_func.c **** uint32_t __attribute__((noinline)) measure_cpu_freq(size_t n)
  78:../Firmware/RISCV/drivers/n200_func.c **** {
 311              		.loc 1 78 1 is_stmt 1
 312              		.cfi_startproc
 313              	.LVL9:
  79:../Firmware/RISCV/drivers/n200_func.c ****   uint32_t start_mtime, delta_mtime;
 314              		.loc 1 79 3
  80:../Firmware/RISCV/drivers/n200_func.c ****   uint32_t mtime_freq = get_timer_freq();
 315              		.loc 1 80 3
 316              	.LBB106:
 317              	.LBB107:
  54:../Firmware/RISCV/drivers/n200_func.c **** }
 318              		.loc 1 54 3
  54:../Firmware/RISCV/drivers/n200_func.c **** }
GAS LISTING /tmp/ccX7HQ2N.s 			page 8


 319              		.loc 1 54 10 is_stmt 0
 320 0000 B7070000 		lui	a5,%hi(SystemCoreClock)
 321 0004 03A60700 		lw	a2,%lo(SystemCoreClock)(a5)
 322              	.LBE107:
 323              	.LBE106:
 324              	.LBB109:
 325              	.LBB110:
  33:../Firmware/RISCV/drivers/n200_func.c **** }
 326              		.loc 1 33 10
 327 0008 B70700D1 		li	a5,-788529152
 328 000c 9443     		lw	a3,0(a5)
 329              	.LBE110:
 330              	.LBE109:
 331              	.LBB112:
 332              	.LBB108:
  54:../Firmware/RISCV/drivers/n200_func.c **** }
 333              		.loc 1 54 10
 334 000e 0982     		srli	a2,a2,2
 335              	.LVL10:
 336              	.LBE108:
 337              	.LBE112:
  81:../Firmware/RISCV/drivers/n200_func.c **** 
  82:../Firmware/RISCV/drivers/n200_func.c ****   // Don't start measuruing until we see an mtime tick
  83:../Firmware/RISCV/drivers/n200_func.c ****   uint32_t tmp = mtime_lo();
 338              		.loc 1 83 3 is_stmt 1
 339              	.LBB113:
 340              	.LBB111:
  33:../Firmware/RISCV/drivers/n200_func.c **** }
 341              		.loc 1 33 3
 342              	.L17:
 343              	.LBE111:
 344              	.LBE113:
  84:../Firmware/RISCV/drivers/n200_func.c ****   do {
 345              		.loc 1 84 3 discriminator 1
  85:../Firmware/RISCV/drivers/n200_func.c ****     start_mtime = mtime_lo();
 346              		.loc 1 85 5 discriminator 1
 347              	.LBB114:
 348              	.LBB115:
  33:../Firmware/RISCV/drivers/n200_func.c **** }
 349              		.loc 1 33 3 discriminator 1
  33:../Firmware/RISCV/drivers/n200_func.c **** }
 350              		.loc 1 33 10 is_stmt 0 discriminator 1
 351 0010 9843     		lw	a4,0(a5)
 352              	.LVL11:
 353              	.LBE115:
 354              	.LBE114:
  86:../Firmware/RISCV/drivers/n200_func.c ****   } while (start_mtime == tmp);
 355              		.loc 1 86 11 is_stmt 1 discriminator 1
 356              		.loc 1 86 3 is_stmt 0 discriminator 1
 357 0012 E38FE6FE 		beq	a3,a4,.L17
  87:../Firmware/RISCV/drivers/n200_func.c **** 
  88:../Firmware/RISCV/drivers/n200_func.c ****   uint32_t start_mcycle = read_csr(mcycle);
 358              		.loc 1 88 3 is_stmt 1
 359              	.LBB116:
 360              		.loc 1 88 27
 361              		.loc 1 88 27
 362              	 #APP
GAS LISTING /tmp/ccX7HQ2N.s 			page 9


 363              	# 88 "../Firmware/RISCV/drivers/n200_func.c" 1
  89              	
 364              		csrr a1, mcycle
 365              	# 0 "" 2
 366              	.LVL12:
  88:../Firmware/RISCV/drivers/n200_func.c ****   uint32_t start_mcycle = read_csr(mcycle);
 367              		.loc 1 88 27
 368              	 #NO_APP
 369              	.LBE116:
 370              	.LBB117:
 371              	.LBB118:
  33:../Firmware/RISCV/drivers/n200_func.c **** }
 372              		.loc 1 33 10 is_stmt 0
 373 001a B70600D1 		li	a3,-788529152
 374              	.LVL13:
 375              	.L18:
 376              	.LBE118:
 377              	.LBE117:
  90:../Firmware/RISCV/drivers/n200_func.c ****   do {
 378              		.loc 1 90 3 is_stmt 1 discriminator 1
  91:../Firmware/RISCV/drivers/n200_func.c ****     delta_mtime = mtime_lo() - start_mtime;
 379              		.loc 1 91 5 discriminator 1
 380              	.LBB120:
 381              	.LBB119:
  33:../Firmware/RISCV/drivers/n200_func.c **** }
 382              		.loc 1 33 3 discriminator 1
  33:../Firmware/RISCV/drivers/n200_func.c **** }
 383              		.loc 1 33 10 is_stmt 0 discriminator 1
 384 001e 9C42     		lw	a5,0(a3)
 385              	.LBE119:
 386              	.LBE120:
 387              		.loc 1 91 17 discriminator 1
 388 0020 998F     		sub	a5,a5,a4
 389              	.LVL14:
  92:../Firmware/RISCV/drivers/n200_func.c ****   } while (delta_mtime < n);
 390              		.loc 1 92 11 is_stmt 1 discriminator 1
 391              		.loc 1 92 3 is_stmt 0 discriminator 1
 392 0022 E3EEA7FE 		bltu	a5,a0,.L18
  93:../Firmware/RISCV/drivers/n200_func.c **** 
  94:../Firmware/RISCV/drivers/n200_func.c ****   uint32_t delta_mcycle = read_csr(mcycle) - start_mcycle;
 393              		.loc 1 94 3 is_stmt 1
 394              	.LBB121:
 395              		.loc 1 94 27
 396              		.loc 1 94 27
 397              	 #APP
 398              	# 94 "../Firmware/RISCV/drivers/n200_func.c" 1
  95              	
 399              		csrr a0, mcycle
 400              	# 0 "" 2
 401              	.LVL15:
  94:../Firmware/RISCV/drivers/n200_func.c ****   uint32_t delta_mcycle = read_csr(mcycle) - start_mcycle;
 402              		.loc 1 94 27
 403              	 #NO_APP
 404              	.LBE121:
  94:../Firmware/RISCV/drivers/n200_func.c ****   uint32_t delta_mcycle = read_csr(mcycle) - start_mcycle;
 405              		.loc 1 94 12 is_stmt 0
 406 002a 0D8D     		sub	a0,a0,a1
GAS LISTING /tmp/ccX7HQ2N.s 			page 10


 407              	.LVL16:
  96:../Firmware/RISCV/drivers/n200_func.c ****   return (delta_mcycle / delta_mtime) * mtime_freq
 408              		.loc 1 96 3 is_stmt 1
  97:../Firmware/RISCV/drivers/n200_func.c ****          + ((delta_mcycle % delta_mtime) * mtime_freq) / delta_mtime;
 409              		.loc 1 97 27 is_stmt 0
 410 002c 3377F502 		remu	a4,a0,a5
 411              	.LVL17:
  96:../Firmware/RISCV/drivers/n200_func.c ****   return (delta_mcycle / delta_mtime) * mtime_freq
 412              		.loc 1 96 24
 413 0030 3355F502 		divu	a0,a0,a5
 414              	.LVL18:
 415              		.loc 1 97 42
 416 0034 3307C702 		mul	a4,a4,a2
 417              		.loc 1 97 56
 418 0038 B357F702 		divu	a5,a4,a5
 419              	.LVL19:
  96:../Firmware/RISCV/drivers/n200_func.c ****   return (delta_mcycle / delta_mtime) * mtime_freq
 420              		.loc 1 96 39
 421 003c 3305C502 		mul	a0,a0,a2
  98:../Firmware/RISCV/drivers/n200_func.c **** }
 422              		.loc 1 98 1
 423 0040 3E95     		add	a0,a5,a0
 424 0042 8280     		ret
 425              		.cfi_endproc
 426              	.LFE14:
 428              		.section	.text.get_cpu_freq,"ax",@progbits
 429              		.align	1
 430              		.globl	get_cpu_freq
 432              	get_cpu_freq:
 433              	.LFB15:
  99:../Firmware/RISCV/drivers/n200_func.c **** 
 100:../Firmware/RISCV/drivers/n200_func.c **** uint32_t get_cpu_freq()
 101:../Firmware/RISCV/drivers/n200_func.c **** {
 434              		.loc 1 101 1 is_stmt 1
 435              		.cfi_startproc
 102:../Firmware/RISCV/drivers/n200_func.c ****   uint32_t cpu_freq;
 436              		.loc 1 102 3
 103:../Firmware/RISCV/drivers/n200_func.c **** 
 104:../Firmware/RISCV/drivers/n200_func.c ****   // warm up
 105:../Firmware/RISCV/drivers/n200_func.c ****   measure_cpu_freq(1);
 437              		.loc 1 105 3
 101:../Firmware/RISCV/drivers/n200_func.c ****   uint32_t cpu_freq;
 438              		.loc 1 101 1 is_stmt 0
 439 0000 4111     		addi	sp,sp,-16
 440              	.LCFI0:
 441              		.cfi_def_cfa_offset 16
 442              		.loc 1 105 3
 443 0002 0545     		li	a0,1
 101:../Firmware/RISCV/drivers/n200_func.c ****   uint32_t cpu_freq;
 444              		.loc 1 101 1
 445 0004 06C6     		sw	ra,12(sp)
 446              		.cfi_offset 1, -4
 447              		.loc 1 105 3
 448 0006 97000000 		call	measure_cpu_freq
 448      E7800000 
 449              	.LVL20:
 106:../Firmware/RISCV/drivers/n200_func.c ****   // measure for real
GAS LISTING /tmp/ccX7HQ2N.s 			page 11


 107:../Firmware/RISCV/drivers/n200_func.c ****   cpu_freq = measure_cpu_freq(100);
 450              		.loc 1 107 3 is_stmt 1
 108:../Firmware/RISCV/drivers/n200_func.c **** 
 109:../Firmware/RISCV/drivers/n200_func.c ****   return cpu_freq;
 110:../Firmware/RISCV/drivers/n200_func.c **** }
 451              		.loc 1 110 1 is_stmt 0
 452 000e B240     		lw	ra,12(sp)
 453              		.cfi_restore 1
 107:../Firmware/RISCV/drivers/n200_func.c **** 
 454              		.loc 1 107 14
 455 0010 13054006 		li	a0,100
 456              		.loc 1 110 1
 457 0014 4101     		addi	sp,sp,16
 458              	.LCFI1:
 459              		.cfi_def_cfa_offset 0
 107:../Firmware/RISCV/drivers/n200_func.c **** 
 460              		.loc 1 107 14
 461 0016 17030000 		tail	measure_cpu_freq
 461      67000300 
 462              	.LVL21:
 463              		.cfi_endproc
 464              	.LFE15:
 466              		.section	.text.eclic_init,"ax",@progbits
 467              		.align	1
 468              		.globl	eclic_init
 470              	eclic_init:
 471              	.LFB16:
 111:../Firmware/RISCV/drivers/n200_func.c **** 
 112:../Firmware/RISCV/drivers/n200_func.c **** 
 113:../Firmware/RISCV/drivers/n200_func.c **** 
 114:../Firmware/RISCV/drivers/n200_func.c **** // Note that there are no assertions or bounds checking on these
 115:../Firmware/RISCV/drivers/n200_func.c **** // parameter values.
 116:../Firmware/RISCV/drivers/n200_func.c **** 
 117:../Firmware/RISCV/drivers/n200_func.c **** 
 118:../Firmware/RISCV/drivers/n200_func.c **** 
 119:../Firmware/RISCV/drivers/n200_func.c ****   
 120:../Firmware/RISCV/drivers/n200_func.c **** void eclic_init ( uint32_t num_irq )
 121:../Firmware/RISCV/drivers/n200_func.c **** {
 472              		.loc 1 121 1 is_stmt 1
 473              		.cfi_startproc
 474              	.LVL22:
 122:../Firmware/RISCV/drivers/n200_func.c **** 
 123:../Firmware/RISCV/drivers/n200_func.c ****   typedef volatile uint32_t vuint32_t;
 475              		.loc 1 123 3
 124:../Firmware/RISCV/drivers/n200_func.c **** 
 125:../Firmware/RISCV/drivers/n200_func.c ****   //clear cfg register 
 126:../Firmware/RISCV/drivers/n200_func.c ****   *(volatile uint8_t*)(ECLIC_ADDR_BASE+ECLIC_CFG_OFFSET)=0;
 476              		.loc 1 126 3
 477              		.loc 1 126 57 is_stmt 0
 478 0000 370700D2 		li	a4,-771751936
 479 0004 23000700 		sb	zero,0(a4)
 127:../Firmware/RISCV/drivers/n200_func.c **** 
 128:../Firmware/RISCV/drivers/n200_func.c ****   //clear minthresh register 
 129:../Firmware/RISCV/drivers/n200_func.c ****   *(volatile uint8_t*)(ECLIC_ADDR_BASE+ECLIC_MTH_OFFSET)=0;
 480              		.loc 1 129 3 is_stmt 1
 130:../Firmware/RISCV/drivers/n200_func.c **** 
 131:../Firmware/RISCV/drivers/n200_func.c ****   //clear all IP/IE/ATTR/CTRL bits for all interrupt sources
GAS LISTING /tmp/ccX7HQ2N.s 			page 12


 132:../Firmware/RISCV/drivers/n200_func.c ****   vuint32_t * ptr;
 133:../Firmware/RISCV/drivers/n200_func.c **** 
 134:../Firmware/RISCV/drivers/n200_func.c ****   vuint32_t * base = (vuint32_t*)(ECLIC_ADDR_BASE + ECLIC_INT_IP_OFFSET);
 135:../Firmware/RISCV/drivers/n200_func.c ****   vuint32_t * upper = (vuint32_t*)(base + num_irq*4);
 481              		.loc 1 135 41 is_stmt 0
 482 0008 1205     		slli	a0,a0,4
 483              	.LVL23:
 484              		.loc 1 135 15
 485 000a B71700D2 		li	a5,-771747840
 129:../Firmware/RISCV/drivers/n200_func.c **** 
 486              		.loc 1 129 57
 487 000e A3050700 		sb	zero,11(a4)
 132:../Firmware/RISCV/drivers/n200_func.c **** 
 488              		.loc 1 132 3 is_stmt 1
 134:../Firmware/RISCV/drivers/n200_func.c ****   vuint32_t * upper = (vuint32_t*)(base + num_irq*4);
 489              		.loc 1 134 3
 490              	.LVL24:
 491              		.loc 1 135 3
 492              		.loc 1 135 15 is_stmt 0
 493 0012 3E95     		add	a0,a5,a0
 494              	.LVL25:
 136:../Firmware/RISCV/drivers/n200_func.c **** 
 137:../Firmware/RISCV/drivers/n200_func.c ****   for (ptr = base; ptr < upper; ptr=ptr+4){
 495              		.loc 1 137 3 is_stmt 1
 496              		.loc 1 137 20
 497              		.loc 1 137 3 is_stmt 0
 498 0014 63F7A700 		bleu	a0,a5,.L23
 499              	.LVL26:
 500              	.L25:
 138:../Firmware/RISCV/drivers/n200_func.c ****     *ptr = 0;
 501              		.loc 1 138 5 is_stmt 1 discriminator 3
 502              		.loc 1 138 10 is_stmt 0 discriminator 3
 503 0018 23A00700 		sw	zero,0(a5)
 137:../Firmware/RISCV/drivers/n200_func.c ****     *ptr = 0;
 504              		.loc 1 137 33 is_stmt 1 discriminator 3
 137:../Firmware/RISCV/drivers/n200_func.c ****     *ptr = 0;
 505              		.loc 1 137 36 is_stmt 0 discriminator 3
 506 001c C107     		addi	a5,a5,16
 507              	.LVL27:
 137:../Firmware/RISCV/drivers/n200_func.c ****     *ptr = 0;
 508              		.loc 1 137 20 is_stmt 1 discriminator 3
 137:../Firmware/RISCV/drivers/n200_func.c ****     *ptr = 0;
 509              		.loc 1 137 3 is_stmt 0 discriminator 3
 510 001e E3EDA7FE 		bgtu	a0,a5,.L25
 511              	.LVL28:
 512              	.L23:
 139:../Firmware/RISCV/drivers/n200_func.c ****   }
 140:../Firmware/RISCV/drivers/n200_func.c **** }
 513              		.loc 1 140 1
 514 0022 8280     		ret
 515              		.cfi_endproc
 516              	.LFE16:
 518              		.section	.text.eclic_enable_interrupt,"ax",@progbits
 519              		.align	1
 520              		.globl	eclic_enable_interrupt
 522              	eclic_enable_interrupt:
 523              	.LFB17:
GAS LISTING /tmp/ccX7HQ2N.s 			page 13


 141:../Firmware/RISCV/drivers/n200_func.c **** 
 142:../Firmware/RISCV/drivers/n200_func.c **** 
 143:../Firmware/RISCV/drivers/n200_func.c **** 
 144:../Firmware/RISCV/drivers/n200_func.c **** void eclic_enable_interrupt (uint32_t source) {
 524              		.loc 1 144 47 is_stmt 1
 525              		.cfi_startproc
 526              	.LVL29:
 145:../Firmware/RISCV/drivers/n200_func.c ****     *(volatile uint8_t*)(ECLIC_ADDR_BASE+ECLIC_INT_IE_OFFSET+source*4) = 1;
 527              		.loc 1 145 5
 528              		.loc 1 145 61 is_stmt 0
 529 0000 B71700D2 		li	a5,-771747840
 530 0004 8507     		addi	a5,a5,1
 531              		.loc 1 145 68
 532 0006 0A05     		slli	a0,a0,2
 533              	.LVL30:
 534              		.loc 1 145 61
 535 0008 3E95     		add	a0,a0,a5
 536              		.loc 1 145 72
 537 000a 8547     		li	a5,1
 538 000c 2300F500 		sb	a5,0(a0)
 146:../Firmware/RISCV/drivers/n200_func.c **** }
 539              		.loc 1 146 1
 540 0010 8280     		ret
 541              		.cfi_endproc
 542              	.LFE17:
 544              		.section	.text.eclic_disable_interrupt,"ax",@progbits
 545              		.align	1
 546              		.globl	eclic_disable_interrupt
 548              	eclic_disable_interrupt:
 549              	.LFB18:
 147:../Firmware/RISCV/drivers/n200_func.c **** 
 148:../Firmware/RISCV/drivers/n200_func.c **** void eclic_disable_interrupt (uint32_t source){
 550              		.loc 1 148 47 is_stmt 1
 551              		.cfi_startproc
 552              	.LVL31:
 149:../Firmware/RISCV/drivers/n200_func.c ****     *(volatile uint8_t*)(ECLIC_ADDR_BASE+ECLIC_INT_IE_OFFSET+source*4) = 0;
 553              		.loc 1 149 5
 554              		.loc 1 149 61 is_stmt 0
 555 0000 B71700D2 		li	a5,-771747840
 556              		.loc 1 149 68
 557 0004 0A05     		slli	a0,a0,2
 558              	.LVL32:
 559              		.loc 1 149 61
 560 0006 8507     		addi	a5,a5,1
 561 0008 3E95     		add	a0,a0,a5
 562              		.loc 1 149 72
 563 000a 23000500 		sb	zero,0(a0)
 150:../Firmware/RISCV/drivers/n200_func.c **** }
 564              		.loc 1 150 1
 565 000e 8280     		ret
 566              		.cfi_endproc
 567              	.LFE18:
 569              		.section	.text.eclic_set_pending,"ax",@progbits
 570              		.align	1
 571              		.globl	eclic_set_pending
 573              	eclic_set_pending:
 574              	.LFB19:
GAS LISTING /tmp/ccX7HQ2N.s 			page 14


 151:../Firmware/RISCV/drivers/n200_func.c **** 
 152:../Firmware/RISCV/drivers/n200_func.c **** void eclic_set_pending(uint32_t source){
 575              		.loc 1 152 40 is_stmt 1
 576              		.cfi_startproc
 577              	.LVL33:
 153:../Firmware/RISCV/drivers/n200_func.c ****     *(volatile uint8_t*)(ECLIC_ADDR_BASE+ECLIC_INT_IP_OFFSET+source*4) = 1;
 578              		.loc 1 153 5
 579              		.loc 1 153 61 is_stmt 0
 580 0000 B7078034 		li	a5,880803840
 581 0004 93870740 		addi	a5,a5,1024
 582 0008 3E95     		add	a0,a0,a5
 583              	.LVL34:
 584 000a 0A05     		slli	a0,a0,2
 585              	.LVL35:
 586              		.loc 1 153 72
 587 000c 8547     		li	a5,1
 588 000e 2300F500 		sb	a5,0(a0)
 154:../Firmware/RISCV/drivers/n200_func.c **** }
 589              		.loc 1 154 1
 590 0012 8280     		ret
 591              		.cfi_endproc
 592              	.LFE19:
 594              		.section	.text.eclic_clear_pending,"ax",@progbits
 595              		.align	1
 596              		.globl	eclic_clear_pending
 598              	eclic_clear_pending:
 599              	.LFB20:
 155:../Firmware/RISCV/drivers/n200_func.c **** 
 156:../Firmware/RISCV/drivers/n200_func.c **** void eclic_clear_pending(uint32_t source){
 600              		.loc 1 156 42 is_stmt 1
 601              		.cfi_startproc
 602              	.LVL36:
 157:../Firmware/RISCV/drivers/n200_func.c ****     *(volatile uint8_t*)(ECLIC_ADDR_BASE+ECLIC_INT_IP_OFFSET+source*4) = 0;
 603              		.loc 1 157 5
 604              		.loc 1 157 61 is_stmt 0
 605 0000 B7078034 		li	a5,880803840
 606 0004 93870740 		addi	a5,a5,1024
 607 0008 3E95     		add	a0,a0,a5
 608              	.LVL37:
 609 000a 0A05     		slli	a0,a0,2
 610              	.LVL38:
 611              		.loc 1 157 72
 612 000c 23000500 		sb	zero,0(a0)
 158:../Firmware/RISCV/drivers/n200_func.c **** }
 613              		.loc 1 158 1
 614 0010 8280     		ret
 615              		.cfi_endproc
 616              	.LFE20:
 618              		.section	.text.eclic_set_intctrl,"ax",@progbits
 619              		.align	1
 620              		.globl	eclic_set_intctrl
 622              	eclic_set_intctrl:
 623              	.LFB21:
 159:../Firmware/RISCV/drivers/n200_func.c **** 
 160:../Firmware/RISCV/drivers/n200_func.c **** void eclic_set_intctrl (uint32_t source, uint8_t intctrl){
 624              		.loc 1 160 58 is_stmt 1
 625              		.cfi_startproc
GAS LISTING /tmp/ccX7HQ2N.s 			page 15


 626              	.LVL39:
 161:../Firmware/RISCV/drivers/n200_func.c ****   *(volatile uint8_t*)(ECLIC_ADDR_BASE+ECLIC_INT_CTRL_OFFSET+source*4) = intctrl;
 627              		.loc 1 161 3
 628              		.loc 1 161 61 is_stmt 0
 629 0000 B71700D2 		li	a5,-771747840
 630              		.loc 1 161 68
 631 0004 0A05     		slli	a0,a0,2
 632              	.LVL40:
 633              		.loc 1 161 61
 634 0006 8D07     		addi	a5,a5,3
 635 0008 3E95     		add	a0,a0,a5
 636              		.loc 1 161 72
 637 000a 2300B500 		sb	a1,0(a0)
 162:../Firmware/RISCV/drivers/n200_func.c **** }
 638              		.loc 1 162 1
 639 000e 8280     		ret
 640              		.cfi_endproc
 641              	.LFE21:
 643              		.section	.text.eclic_get_intctrl,"ax",@progbits
 644              		.align	1
 645              		.globl	eclic_get_intctrl
 647              	eclic_get_intctrl:
 648              	.LFB22:
 163:../Firmware/RISCV/drivers/n200_func.c **** 
 164:../Firmware/RISCV/drivers/n200_func.c **** uint8_t eclic_get_intctrl  (uint32_t source){
 649              		.loc 1 164 45 is_stmt 1
 650              		.cfi_startproc
 651              	.LVL41:
 165:../Firmware/RISCV/drivers/n200_func.c ****   return *(volatile uint8_t*)(ECLIC_ADDR_BASE+ECLIC_INT_CTRL_OFFSET+source*4);
 652              		.loc 1 165 3
 653              		.loc 1 165 68 is_stmt 0
 654 0000 B71700D2 		li	a5,-771747840
 655 0004 8D07     		addi	a5,a5,3
 656              		.loc 1 165 75
 657 0006 0A05     		slli	a0,a0,2
 658              	.LVL42:
 659              		.loc 1 165 68
 660 0008 3E95     		add	a0,a0,a5
 661              		.loc 1 165 10
 662 000a 03450500 		lbu	a0,0(a0)
 166:../Firmware/RISCV/drivers/n200_func.c **** }
 663              		.loc 1 166 1
 664 000e 1375F50F 		andi	a0,a0,0xff
 665 0012 8280     		ret
 666              		.cfi_endproc
 667              	.LFE22:
 669              		.section	.text.eclic_set_intattr,"ax",@progbits
 670              		.align	1
 671              		.globl	eclic_set_intattr
 673              	eclic_set_intattr:
 674              	.LFB23:
 167:../Firmware/RISCV/drivers/n200_func.c **** 
 168:../Firmware/RISCV/drivers/n200_func.c **** void eclic_set_intattr (uint32_t source, uint8_t intattr){
 675              		.loc 1 168 58 is_stmt 1
 676              		.cfi_startproc
 677              	.LVL43:
 169:../Firmware/RISCV/drivers/n200_func.c ****   *(volatile uint8_t*)(ECLIC_ADDR_BASE+ECLIC_INT_ATTR_OFFSET+source*4) = intattr;
GAS LISTING /tmp/ccX7HQ2N.s 			page 16


 678              		.loc 1 169 3
 679              		.loc 1 169 61 is_stmt 0
 680 0000 B71700D2 		li	a5,-771747840
 681              		.loc 1 169 68
 682 0004 0A05     		slli	a0,a0,2
 683              	.LVL44:
 684              		.loc 1 169 61
 685 0006 8907     		addi	a5,a5,2
 686 0008 3E95     		add	a0,a0,a5
 687              		.loc 1 169 72
 688 000a 2300B500 		sb	a1,0(a0)
 170:../Firmware/RISCV/drivers/n200_func.c **** }
 689              		.loc 1 170 1
 690 000e 8280     		ret
 691              		.cfi_endproc
 692              	.LFE23:
 694              		.section	.text.eclic_get_intattr,"ax",@progbits
 695              		.align	1
 696              		.globl	eclic_get_intattr
 698              	eclic_get_intattr:
 699              	.LFB24:
 171:../Firmware/RISCV/drivers/n200_func.c **** 
 172:../Firmware/RISCV/drivers/n200_func.c **** uint8_t eclic_get_intattr  (uint32_t source){
 700              		.loc 1 172 45 is_stmt 1
 701              		.cfi_startproc
 702              	.LVL45:
 173:../Firmware/RISCV/drivers/n200_func.c ****   return *(volatile uint8_t*)(ECLIC_ADDR_BASE+ECLIC_INT_ATTR_OFFSET+source*4);
 703              		.loc 1 173 3
 704              		.loc 1 173 68 is_stmt 0
 705 0000 B71700D2 		li	a5,-771747840
 706 0004 8907     		addi	a5,a5,2
 707              		.loc 1 173 75
 708 0006 0A05     		slli	a0,a0,2
 709              	.LVL46:
 710              		.loc 1 173 68
 711 0008 3E95     		add	a0,a0,a5
 712              		.loc 1 173 10
 713 000a 03450500 		lbu	a0,0(a0)
 174:../Firmware/RISCV/drivers/n200_func.c **** }
 714              		.loc 1 174 1
 715 000e 1375F50F 		andi	a0,a0,0xff
 716 0012 8280     		ret
 717              		.cfi_endproc
 718              	.LFE24:
 720              		.section	.text.eclic_set_cliccfg,"ax",@progbits
 721              		.align	1
 722              		.globl	eclic_set_cliccfg
 724              	eclic_set_cliccfg:
 725              	.LFB25:
 175:../Firmware/RISCV/drivers/n200_func.c **** 
 176:../Firmware/RISCV/drivers/n200_func.c **** void eclic_set_cliccfg (uint8_t cliccfg){
 726              		.loc 1 176 41 is_stmt 1
 727              		.cfi_startproc
 728              	.LVL47:
 177:../Firmware/RISCV/drivers/n200_func.c ****   *(volatile uint8_t*)(ECLIC_ADDR_BASE+ECLIC_CFG_OFFSET) = cliccfg;
 729              		.loc 1 177 3
 730              		.loc 1 177 58 is_stmt 0
GAS LISTING /tmp/ccX7HQ2N.s 			page 17


 731 0000 B70700D2 		li	a5,-771751936
 732 0004 2380A700 		sb	a0,0(a5)
 178:../Firmware/RISCV/drivers/n200_func.c **** }
 733              		.loc 1 178 1
 734 0008 8280     		ret
 735              		.cfi_endproc
 736              	.LFE25:
 738              		.section	.text.eclic_get_cliccfg,"ax",@progbits
 739              		.align	1
 740              		.globl	eclic_get_cliccfg
 742              	eclic_get_cliccfg:
 743              	.LFB26:
 179:../Firmware/RISCV/drivers/n200_func.c **** 
 180:../Firmware/RISCV/drivers/n200_func.c **** uint8_t eclic_get_cliccfg  (){
 744              		.loc 1 180 30 is_stmt 1
 745              		.cfi_startproc
 181:../Firmware/RISCV/drivers/n200_func.c ****   return *(volatile uint8_t*)(ECLIC_ADDR_BASE+ECLIC_CFG_OFFSET);
 746              		.loc 1 181 3
 747              		.loc 1 181 10 is_stmt 0
 748 0000 B70700D2 		li	a5,-771751936
 749 0004 03C50700 		lbu	a0,0(a5)
 182:../Firmware/RISCV/drivers/n200_func.c **** }
 750              		.loc 1 182 1
 751 0008 1375F50F 		andi	a0,a0,0xff
 752 000c 8280     		ret
 753              		.cfi_endproc
 754              	.LFE26:
 756              		.section	.text.eclic_set_mth,"ax",@progbits
 757              		.align	1
 758              		.globl	eclic_set_mth
 760              	eclic_set_mth:
 761              	.LFB27:
 183:../Firmware/RISCV/drivers/n200_func.c **** 
 184:../Firmware/RISCV/drivers/n200_func.c **** void eclic_set_mth (uint8_t mth){
 762              		.loc 1 184 33 is_stmt 1
 763              		.cfi_startproc
 764              	.LVL48:
 185:../Firmware/RISCV/drivers/n200_func.c ****   *(volatile uint8_t*)(ECLIC_ADDR_BASE+ECLIC_MTH_OFFSET) = mth;
 765              		.loc 1 185 3
 766              		.loc 1 185 58 is_stmt 0
 767 0000 B70700D2 		li	a5,-771751936
 768 0004 A385A700 		sb	a0,11(a5)
 186:../Firmware/RISCV/drivers/n200_func.c **** }
 769              		.loc 1 186 1
 770 0008 8280     		ret
 771              		.cfi_endproc
 772              	.LFE27:
 774              		.section	.text.eclic_get_mth,"ax",@progbits
 775              		.align	1
 776              		.globl	eclic_get_mth
 778              	eclic_get_mth:
 779              	.LFB28:
 187:../Firmware/RISCV/drivers/n200_func.c **** 
 188:../Firmware/RISCV/drivers/n200_func.c **** uint8_t eclic_get_mth  (){
 780              		.loc 1 188 26 is_stmt 1
 781              		.cfi_startproc
 189:../Firmware/RISCV/drivers/n200_func.c ****   return *(volatile uint8_t*)(ECLIC_ADDR_BASE+ECLIC_MTH_OFFSET);
GAS LISTING /tmp/ccX7HQ2N.s 			page 18


 782              		.loc 1 189 3
 783              		.loc 1 189 10 is_stmt 0
 784 0000 B70700D2 		li	a5,-771751936
 785 0004 03C5B700 		lbu	a0,11(a5)
 190:../Firmware/RISCV/drivers/n200_func.c **** }
 786              		.loc 1 190 1
 787 0008 1375F50F 		andi	a0,a0,0xff
 788 000c 8280     		ret
 789              		.cfi_endproc
 790              	.LFE28:
 792              		.section	.text.eclic_set_nlbits,"ax",@progbits
 793              		.align	1
 794              		.globl	eclic_set_nlbits
 796              	eclic_set_nlbits:
 797              	.LFB29:
 191:../Firmware/RISCV/drivers/n200_func.c **** 
 192:../Firmware/RISCV/drivers/n200_func.c **** //sets nlbits 
 193:../Firmware/RISCV/drivers/n200_func.c **** void eclic_set_nlbits(uint8_t nlbits) {
 798              		.loc 1 193 39 is_stmt 1
 799              		.cfi_startproc
 800              	.LVL49:
 194:../Firmware/RISCV/drivers/n200_func.c ****   //shift nlbits to correct position
 195:../Firmware/RISCV/drivers/n200_func.c ****   uint8_t nlbits_shifted = nlbits << ECLIC_CFG_NLBITS_LSB;
 801              		.loc 1 195 3
 802              	.LBB122:
 803              	.LBB123:
 181:../Firmware/RISCV/drivers/n200_func.c **** }
 804              		.loc 1 181 10 is_stmt 0
 805 0000 370700D2 		li	a4,-771751936
 806 0004 83470700 		lbu	a5,0(a4)
 807              	.LVL50:
 808              	.LBE123:
 809              	.LBE122:
 196:../Firmware/RISCV/drivers/n200_func.c **** 
 197:../Firmware/RISCV/drivers/n200_func.c ****   //read the current cliccfg 
 198:../Firmware/RISCV/drivers/n200_func.c ****   uint8_t old_cliccfg = eclic_get_cliccfg();
 810              		.loc 1 198 3 is_stmt 1
 811              	.LBB125:
 812              	.LBB124:
 181:../Firmware/RISCV/drivers/n200_func.c **** }
 813              		.loc 1 181 3
 814              	.LBE124:
 815              	.LBE125:
 199:../Firmware/RISCV/drivers/n200_func.c ****   uint8_t new_cliccfg = (old_cliccfg & (~ECLIC_CFG_NLBITS_MASK)) | (ECLIC_CFG_NLBITS_MASK & nlbits_
 816              		.loc 1 199 3
 195:../Firmware/RISCV/drivers/n200_func.c **** 
 817              		.loc 1 195 11 is_stmt 0
 818 0008 0605     		slli	a0,a0,1
 819              	.LVL51:
 820              		.loc 1 199 91
 821 000a 7989     		andi	a0,a0,30
 822              		.loc 1 199 38
 823 000c 93F7170E 		andi	a5,a5,225
 824              	.LVL52:
 825              		.loc 1 199 11
 826 0010 5D8D     		or	a0,a0,a5
 827              	.LVL53:
GAS LISTING /tmp/ccX7HQ2N.s 			page 19


 200:../Firmware/RISCV/drivers/n200_func.c **** 
 201:../Firmware/RISCV/drivers/n200_func.c ****   eclic_set_cliccfg(new_cliccfg);
 828              		.loc 1 201 3 is_stmt 1
 829              	.LBB126:
 830              	.LBB127:
 177:../Firmware/RISCV/drivers/n200_func.c **** }
 831              		.loc 1 177 3
 177:../Firmware/RISCV/drivers/n200_func.c **** }
 832              		.loc 1 177 58 is_stmt 0
 833 0012 2300A700 		sb	a0,0(a4)
 834              	.LVL54:
 835              	.LBE127:
 836              	.LBE126:
 202:../Firmware/RISCV/drivers/n200_func.c **** }
 837              		.loc 1 202 1
 838 0016 8280     		ret
 839              		.cfi_endproc
 840              	.LFE29:
 842              		.section	.text.eclic_get_nlbits,"ax",@progbits
 843              		.align	1
 844              		.globl	eclic_get_nlbits
 846              	eclic_get_nlbits:
 847              	.LFB30:
 203:../Firmware/RISCV/drivers/n200_func.c **** 
 204:../Firmware/RISCV/drivers/n200_func.c **** //get nlbits 
 205:../Firmware/RISCV/drivers/n200_func.c **** uint8_t eclic_get_nlbits(void) {
 848              		.loc 1 205 32 is_stmt 1
 849              		.cfi_startproc
 206:../Firmware/RISCV/drivers/n200_func.c ****   //extract nlbits
 207:../Firmware/RISCV/drivers/n200_func.c ****   uint8_t nlbits = eclic_get_cliccfg();
 850              		.loc 1 207 3
 851              	.LBB128:
 852              	.LBB129:
 181:../Firmware/RISCV/drivers/n200_func.c **** }
 853              		.loc 1 181 3
 181:../Firmware/RISCV/drivers/n200_func.c **** }
 854              		.loc 1 181 10 is_stmt 0
 855 0000 B70700D2 		li	a5,-771751936
 856 0004 03C50700 		lbu	a0,0(a5)
 857              	.LVL55:
 858              	.LBE129:
 859              	.LBE128:
 208:../Firmware/RISCV/drivers/n200_func.c ****   nlbits = (nlbits & ECLIC_CFG_NLBITS_MASK) >> ECLIC_CFG_NLBITS_LSB;
 860              		.loc 1 208 3 is_stmt 1
 209:../Firmware/RISCV/drivers/n200_func.c ****   return nlbits;
 861              		.loc 1 209 3
 208:../Firmware/RISCV/drivers/n200_func.c ****   nlbits = (nlbits & ECLIC_CFG_NLBITS_MASK) >> ECLIC_CFG_NLBITS_LSB;
 862              		.loc 1 208 45 is_stmt 0
 863 0008 0581     		srli	a0,a0,1
 864              	.LVL56:
 210:../Firmware/RISCV/drivers/n200_func.c **** }
 865              		.loc 1 210 1
 866 000a 3D89     		andi	a0,a0,15
 867 000c 8280     		ret
 868              		.cfi_endproc
 869              	.LFE30:
 871              		.section	.text.eclic_set_irq_lvl,"ax",@progbits
GAS LISTING /tmp/ccX7HQ2N.s 			page 20


 872              		.align	1
 873              		.globl	eclic_set_irq_lvl
 875              	eclic_set_irq_lvl:
 876              	.LFB31:
 211:../Firmware/RISCV/drivers/n200_func.c **** 
 212:../Firmware/RISCV/drivers/n200_func.c **** //sets an interrupt level based encoding of nlbits and ECLICINTCTLBITS
 213:../Firmware/RISCV/drivers/n200_func.c **** void eclic_set_irq_lvl(uint32_t source, uint8_t lvl) {
 877              		.loc 1 213 54 is_stmt 1
 878              		.cfi_startproc
 879              	.LVL57:
 214:../Firmware/RISCV/drivers/n200_func.c ****   //extract nlbits
 215:../Firmware/RISCV/drivers/n200_func.c ****   uint8_t nlbits = eclic_get_nlbits();
 880              		.loc 1 215 3
 881              	.LBB130:
 882              	.LBB131:
 207:../Firmware/RISCV/drivers/n200_func.c ****   nlbits = (nlbits & ECLIC_CFG_NLBITS_MASK) >> ECLIC_CFG_NLBITS_LSB;
 883              		.loc 1 207 3
 884              	.LBB132:
 885              	.LBB133:
 181:../Firmware/RISCV/drivers/n200_func.c **** }
 886              		.loc 1 181 3
 181:../Firmware/RISCV/drivers/n200_func.c **** }
 887              		.loc 1 181 10 is_stmt 0
 888 0000 B70700D2 		li	a5,-771751936
 889 0004 03C70700 		lbu	a4,0(a5)
 890              	.LVL58:
 891              	.LBE133:
 892              	.LBE132:
 208:../Firmware/RISCV/drivers/n200_func.c ****   return nlbits;
 893              		.loc 1 208 3 is_stmt 1
 209:../Firmware/RISCV/drivers/n200_func.c **** }
 894              		.loc 1 209 3
 895              	.LBE131:
 896              	.LBE130:
 216:../Firmware/RISCV/drivers/n200_func.c ****   if (nlbits > ECLICINTCTLBITS) {
 897              		.loc 1 216 3
 217:../Firmware/RISCV/drivers/n200_func.c ****     nlbits = ECLICINTCTLBITS;
 218:../Firmware/RISCV/drivers/n200_func.c ****   }
 219:../Firmware/RISCV/drivers/n200_func.c **** 
 220:../Firmware/RISCV/drivers/n200_func.c ****   //shift lvl right to mask off unused bits
 221:../Firmware/RISCV/drivers/n200_func.c ****   lvl = lvl >> (8-nlbits);
 898              		.loc 1 221 3
 899              		.loc 1 221 18 is_stmt 0
 900 0008 9147     		li	a5,4
 901              	.LBB135:
 902              	.LBB134:
 208:../Firmware/RISCV/drivers/n200_func.c ****   return nlbits;
 903              		.loc 1 208 45
 904 000a 0583     		srli	a4,a4,1
 905              	.LVL59:
 208:../Firmware/RISCV/drivers/n200_func.c ****   return nlbits;
 906              		.loc 1 208 10
 907 000c 3D8B     		andi	a4,a4,15
 908              	.LBE134:
 909              	.LBE135:
 910              		.loc 1 221 18
 911 000e BA86     		mv	a3,a4
GAS LISTING /tmp/ccX7HQ2N.s 			page 21


 912 0010 63F3E700 		bleu	a4,a5,.L42
 913 0014 9146     		li	a3,4
 914              	.L42:
 915              	.LBB136:
 916              	.LBB137:
 165:../Firmware/RISCV/drivers/n200_func.c **** }
 917              		.loc 1 165 68
 918 0016 B71700D2 		li	a5,-771747840
 919 001a 8D07     		addi	a5,a5,3
 165:../Firmware/RISCV/drivers/n200_func.c **** }
 920              		.loc 1 165 75
 921 001c 0A05     		slli	a0,a0,2
 922              	.LVL60:
 165:../Firmware/RISCV/drivers/n200_func.c **** }
 923              		.loc 1 165 68
 924 001e 3E95     		add	a0,a0,a5
 165:../Firmware/RISCV/drivers/n200_func.c **** }
 925              		.loc 1 165 10
 926 0020 83470500 		lbu	a5,0(a0)
 927              	.LBE137:
 928              	.LBE136:
 929              		.loc 1 221 18
 930 0024 13F6F60F 		andi	a2,a3,0xff
 931 0028 2147     		li	a4,8
 932 002a 118F     		sub	a4,a4,a2
 933              	.LVL61:
 222:../Firmware/RISCV/drivers/n200_func.c ****   //shift lvl into correct bit position
 223:../Firmware/RISCV/drivers/n200_func.c ****   lvl = lvl << (8-nlbits);
 934              		.loc 1 223 3 is_stmt 1
 224:../Firmware/RISCV/drivers/n200_func.c ****  
 225:../Firmware/RISCV/drivers/n200_func.c ****   //write to clicintctrl
 226:../Firmware/RISCV/drivers/n200_func.c ****   uint8_t current_intctrl = eclic_get_intctrl(source);
 227:../Firmware/RISCV/drivers/n200_func.c ****   //shift intctrl left to mask off unused bits
 228:../Firmware/RISCV/drivers/n200_func.c ****   current_intctrl = current_intctrl << nlbits;
 935              		.loc 1 228 37 is_stmt 0
 936 002c B397D700 		sll	a5,a5,a3
 221:../Firmware/RISCV/drivers/n200_func.c ****   //shift lvl into correct bit position
 937              		.loc 1 221 13
 938 0030 B3D5E540 		sra	a1,a1,a4
 939              	.LVL62:
 229:../Firmware/RISCV/drivers/n200_func.c ****   //shift intctrl into correct bit position
 230:../Firmware/RISCV/drivers/n200_func.c ****   current_intctrl = current_intctrl >> nlbits;
 940              		.loc 1 230 37
 941 0034 93F7F70F 		andi	a5,a5,0xff
 223:../Firmware/RISCV/drivers/n200_func.c ****  
 942              		.loc 1 223 13
 943 0038 B395E500 		sll	a1,a1,a4
 944              	.LVL63:
 226:../Firmware/RISCV/drivers/n200_func.c ****   //shift intctrl left to mask off unused bits
 945              		.loc 1 226 3 is_stmt 1
 946              	.LBB139:
 947              	.LBB138:
 165:../Firmware/RISCV/drivers/n200_func.c **** }
 948              		.loc 1 165 3
 949              	.LBE138:
 950              	.LBE139:
 228:../Firmware/RISCV/drivers/n200_func.c ****   //shift intctrl into correct bit position
GAS LISTING /tmp/ccX7HQ2N.s 			page 22


 951              		.loc 1 228 3
 952              		.loc 1 230 3
 231:../Firmware/RISCV/drivers/n200_func.c **** 
 232:../Firmware/RISCV/drivers/n200_func.c ****   eclic_set_intctrl(source, (current_intctrl | lvl));
 953              		.loc 1 232 3
 230:../Firmware/RISCV/drivers/n200_func.c **** 
 954              		.loc 1 230 37 is_stmt 0
 955 003c B3D7D740 		sra	a5,a5,a3
 956              		.loc 1 232 3
 957 0040 CD8F     		or	a5,a5,a1
 958 0042 93F7F70F 		andi	a5,a5,0xff
 959              	.LVL64:
 960              	.LBB140:
 961              	.LBB141:
 161:../Firmware/RISCV/drivers/n200_func.c **** }
 962              		.loc 1 161 3 is_stmt 1
 161:../Firmware/RISCV/drivers/n200_func.c **** }
 963              		.loc 1 161 72 is_stmt 0
 964 0046 2300F500 		sb	a5,0(a0)
 965              	.LVL65:
 966              	.LBE141:
 967              	.LBE140:
 233:../Firmware/RISCV/drivers/n200_func.c **** }
 968              		.loc 1 233 1
 969 004a 8280     		ret
 970              		.cfi_endproc
 971              	.LFE31:
 973              		.section	.text.eclic_get_irq_lvl,"ax",@progbits
 974              		.align	1
 975              		.globl	eclic_get_irq_lvl
 977              	eclic_get_irq_lvl:
 978              	.LFB32:
 234:../Firmware/RISCV/drivers/n200_func.c **** 
 235:../Firmware/RISCV/drivers/n200_func.c **** //gets an interrupt level based encoding of nlbits
 236:../Firmware/RISCV/drivers/n200_func.c **** uint8_t eclic_get_irq_lvl(uint32_t source) {
 979              		.loc 1 236 44 is_stmt 1
 980              		.cfi_startproc
 981              	.LVL66:
 237:../Firmware/RISCV/drivers/n200_func.c ****   //extract nlbits
 238:../Firmware/RISCV/drivers/n200_func.c ****   uint8_t nlbits = eclic_get_nlbits();
 982              		.loc 1 238 3
 983              	.LBB142:
 984              	.LBB143:
 207:../Firmware/RISCV/drivers/n200_func.c ****   nlbits = (nlbits & ECLIC_CFG_NLBITS_MASK) >> ECLIC_CFG_NLBITS_LSB;
 985              		.loc 1 207 3
 986              	.LBB144:
 987              	.LBB145:
 181:../Firmware/RISCV/drivers/n200_func.c **** }
 988              		.loc 1 181 3
 181:../Firmware/RISCV/drivers/n200_func.c **** }
 989              		.loc 1 181 10 is_stmt 0
 990 0000 B70700D2 		li	a5,-771751936
 991              	.LBE145:
 992              	.LBE144:
 993              	.LBE143:
 994              	.LBE142:
 995              	.LBB150:
GAS LISTING /tmp/ccX7HQ2N.s 			page 23


 996              	.LBB151:
 165:../Firmware/RISCV/drivers/n200_func.c **** }
 997              		.loc 1 165 68
 998 0004 371700D2 		li	a4,-771747840
 999              	.LBE151:
 1000              	.LBE150:
 1001              	.LBB154:
 1002              	.LBB148:
 1003              	.LBB147:
 1004              	.LBB146:
 181:../Firmware/RISCV/drivers/n200_func.c **** }
 1005              		.loc 1 181 10
 1006 0008 83C70700 		lbu	a5,0(a5)
 1007              	.LVL67:
 1008              	.LBE146:
 1009              	.LBE147:
 208:../Firmware/RISCV/drivers/n200_func.c ****   return nlbits;
 1010              		.loc 1 208 3 is_stmt 1
 209:../Firmware/RISCV/drivers/n200_func.c **** }
 1011              		.loc 1 209 3
 1012              	.LBE148:
 1013              	.LBE154:
 239:../Firmware/RISCV/drivers/n200_func.c ****   if (nlbits > ECLICINTCTLBITS) {
 1014              		.loc 1 239 3
 240:../Firmware/RISCV/drivers/n200_func.c ****     nlbits = ECLICINTCTLBITS;
 241:../Firmware/RISCV/drivers/n200_func.c ****   }
 242:../Firmware/RISCV/drivers/n200_func.c **** 
 243:../Firmware/RISCV/drivers/n200_func.c ****   uint8_t intctrl = eclic_get_intctrl(source);
 1015              		.loc 1 243 3
 1016              	.LBB155:
 1017              	.LBB152:
 165:../Firmware/RISCV/drivers/n200_func.c **** }
 1018              		.loc 1 165 3
 165:../Firmware/RISCV/drivers/n200_func.c **** }
 1019              		.loc 1 165 68 is_stmt 0
 1020 000c 0D07     		addi	a4,a4,3
 165:../Firmware/RISCV/drivers/n200_func.c **** }
 1021              		.loc 1 165 75
 1022 000e 0A05     		slli	a0,a0,2
 1023              	.LVL68:
 165:../Firmware/RISCV/drivers/n200_func.c **** }
 1024              		.loc 1 165 68
 1025 0010 3A95     		add	a0,a0,a4
 165:../Firmware/RISCV/drivers/n200_func.c **** }
 1026              		.loc 1 165 10
 1027 0012 03450500 		lbu	a0,0(a0)
 1028              	.LBE152:
 1029              	.LBE155:
 1030              	.LBB156:
 1031              	.LBB149:
 208:../Firmware/RISCV/drivers/n200_func.c ****   return nlbits;
 1032              		.loc 1 208 45
 1033 0016 8583     		srli	a5,a5,1
 1034              	.LVL69:
 208:../Firmware/RISCV/drivers/n200_func.c ****   return nlbits;
 1035              		.loc 1 208 10
 1036 0018 BD8B     		andi	a5,a5,15
GAS LISTING /tmp/ccX7HQ2N.s 			page 24


 1037              	.LBE149:
 1038              	.LBE156:
 244:../Firmware/RISCV/drivers/n200_func.c **** 
 245:../Firmware/RISCV/drivers/n200_func.c ****   //shift intctrl
 246:../Firmware/RISCV/drivers/n200_func.c ****   intctrl = intctrl >> (8-nlbits);
 1039              		.loc 1 246 26
 1040 001a 9146     		li	a3,4
 1041              	.LBB157:
 1042              	.LBB153:
 165:../Firmware/RISCV/drivers/n200_func.c **** }
 1043              		.loc 1 165 10
 1044 001c 1375F50F 		andi	a0,a0,0xff
 1045              	.LVL70:
 1046              	.LBE153:
 1047              	.LBE157:
 1048              		.loc 1 246 3 is_stmt 1
 1049              		.loc 1 246 26 is_stmt 0
 1050 0020 13F7F70F 		andi	a4,a5,0xff
 1051 0024 63F3F600 		bleu	a5,a3,.L44
 1052 0028 1147     		li	a4,4
 1053              	.L44:
 1054 002a A147     		li	a5,8
 1055 002c 998F     		sub	a5,a5,a4
 1056              	.LVL71:
 247:../Firmware/RISCV/drivers/n200_func.c ****   //shift intctrl
 248:../Firmware/RISCV/drivers/n200_func.c ****   uint8_t lvl = intctrl << (8-nlbits);
 1057              		.loc 1 248 3 is_stmt 1
 249:../Firmware/RISCV/drivers/n200_func.c **** 
 250:../Firmware/RISCV/drivers/n200_func.c ****   return lvl;
 1058              		.loc 1 250 3
 246:../Firmware/RISCV/drivers/n200_func.c ****   //shift intctrl
 1059              		.loc 1 246 21 is_stmt 0
 1060 002e 3355F540 		sra	a0,a0,a5
 1061              	.LVL72:
 248:../Firmware/RISCV/drivers/n200_func.c **** 
 1062              		.loc 1 248 25
 1063 0032 3315F500 		sll	a0,a0,a5
 251:../Firmware/RISCV/drivers/n200_func.c **** }
 1064              		.loc 1 251 1
 1065 0036 1375F50F 		andi	a0,a0,0xff
 1066 003a 8280     		ret
 1067              		.cfi_endproc
 1068              	.LFE32:
 1070              		.section	.text.eclic_set_irq_lvl_abs,"ax",@progbits
 1071              		.align	1
 1072              		.globl	eclic_set_irq_lvl_abs
 1074              	eclic_set_irq_lvl_abs:
 1075              	.LFB33:
 252:../Firmware/RISCV/drivers/n200_func.c **** 
 253:../Firmware/RISCV/drivers/n200_func.c **** void eclic_set_irq_lvl_abs(uint32_t source, uint8_t lvl_abs) {
 1076              		.loc 1 253 62 is_stmt 1
 1077              		.cfi_startproc
 1078              	.LVL73:
 254:../Firmware/RISCV/drivers/n200_func.c ****   //extract nlbits
 255:../Firmware/RISCV/drivers/n200_func.c ****   uint8_t nlbits = eclic_get_nlbits();
 1079              		.loc 1 255 3
 1080              	.LBB158:
GAS LISTING /tmp/ccX7HQ2N.s 			page 25


 1081              	.LBB159:
 207:../Firmware/RISCV/drivers/n200_func.c ****   nlbits = (nlbits & ECLIC_CFG_NLBITS_MASK) >> ECLIC_CFG_NLBITS_LSB;
 1082              		.loc 1 207 3
 1083              	.LBB160:
 1084              	.LBB161:
 181:../Firmware/RISCV/drivers/n200_func.c **** }
 1085              		.loc 1 181 3
 181:../Firmware/RISCV/drivers/n200_func.c **** }
 1086              		.loc 1 181 10 is_stmt 0
 1087 0000 B70700D2 		li	a5,-771751936
 1088 0004 03C70700 		lbu	a4,0(a5)
 1089              	.LVL74:
 1090              	.LBE161:
 1091              	.LBE160:
 208:../Firmware/RISCV/drivers/n200_func.c ****   return nlbits;
 1092              		.loc 1 208 3 is_stmt 1
 209:../Firmware/RISCV/drivers/n200_func.c **** }
 1093              		.loc 1 209 3
 1094              	.LBE159:
 1095              	.LBE158:
 256:../Firmware/RISCV/drivers/n200_func.c ****   if (nlbits > ECLICINTCTLBITS) {
 1096              		.loc 1 256 3
 257:../Firmware/RISCV/drivers/n200_func.c ****     nlbits = ECLICINTCTLBITS;
 258:../Firmware/RISCV/drivers/n200_func.c ****   }
 259:../Firmware/RISCV/drivers/n200_func.c **** 
 260:../Firmware/RISCV/drivers/n200_func.c ****   //shift lvl_abs into correct bit position
 261:../Firmware/RISCV/drivers/n200_func.c ****   uint8_t lvl = lvl_abs << (8-nlbits);
 1097              		.loc 1 261 3
 1098              		.loc 1 261 30 is_stmt 0
 1099 0008 9147     		li	a5,4
 1100              	.LBB163:
 1101              	.LBB162:
 208:../Firmware/RISCV/drivers/n200_func.c ****   return nlbits;
 1102              		.loc 1 208 45
 1103 000a 0583     		srli	a4,a4,1
 1104              	.LVL75:
 208:../Firmware/RISCV/drivers/n200_func.c ****   return nlbits;
 1105              		.loc 1 208 10
 1106 000c 3D8B     		andi	a4,a4,15
 1107              	.LBE162:
 1108              	.LBE163:
 1109              		.loc 1 261 30
 1110 000e BA86     		mv	a3,a4
 1111 0010 63F3E700 		bleu	a4,a5,.L46
 1112 0014 9146     		li	a3,4
 1113              	.L46:
 1114              	.LBB164:
 1115              	.LBB165:
 165:../Firmware/RISCV/drivers/n200_func.c **** }
 1116              		.loc 1 165 68
 1117 0016 B71700D2 		li	a5,-771747840
 1118 001a 8D07     		addi	a5,a5,3
 165:../Firmware/RISCV/drivers/n200_func.c **** }
 1119              		.loc 1 165 75
 1120 001c 0A05     		slli	a0,a0,2
 1121              	.LVL76:
 165:../Firmware/RISCV/drivers/n200_func.c **** }
GAS LISTING /tmp/ccX7HQ2N.s 			page 26


 1122              		.loc 1 165 68
 1123 001e 3E95     		add	a0,a0,a5
 165:../Firmware/RISCV/drivers/n200_func.c **** }
 1124              		.loc 1 165 10
 1125 0020 83470500 		lbu	a5,0(a0)
 1126              	.LBE165:
 1127              	.LBE164:
 1128              		.loc 1 261 30
 1129 0024 13F6F60F 		andi	a2,a3,0xff
 1130              	.LVL77:
 262:../Firmware/RISCV/drivers/n200_func.c ****  
 263:../Firmware/RISCV/drivers/n200_func.c ****   //write to clicintctrl
 264:../Firmware/RISCV/drivers/n200_func.c ****   uint8_t current_intctrl = eclic_get_intctrl(source);
 1131              		.loc 1 264 3 is_stmt 1
 1132              	.LBB167:
 1133              	.LBB166:
 165:../Firmware/RISCV/drivers/n200_func.c **** }
 1134              		.loc 1 165 3
 1135              	.LBE166:
 1136              	.LBE167:
 265:../Firmware/RISCV/drivers/n200_func.c ****   //shift intctrl left to mask off unused bits
 266:../Firmware/RISCV/drivers/n200_func.c ****   current_intctrl = current_intctrl << nlbits;
 1137              		.loc 1 266 3
 267:../Firmware/RISCV/drivers/n200_func.c ****   //shift intctrl into correct bit position
 268:../Firmware/RISCV/drivers/n200_func.c ****   current_intctrl = current_intctrl >> nlbits;
 1138              		.loc 1 268 3
 269:../Firmware/RISCV/drivers/n200_func.c **** 
 270:../Firmware/RISCV/drivers/n200_func.c ****   eclic_set_intctrl(source, (current_intctrl | lvl));
 1139              		.loc 1 270 3
 261:../Firmware/RISCV/drivers/n200_func.c ****  
 1140              		.loc 1 261 30 is_stmt 0
 1141 0028 2147     		li	a4,8
 266:../Firmware/RISCV/drivers/n200_func.c ****   //shift intctrl into correct bit position
 1142              		.loc 1 266 37
 1143 002a B397D700 		sll	a5,a5,a3
 1144              	.LVL78:
 268:../Firmware/RISCV/drivers/n200_func.c **** 
 1145              		.loc 1 268 37
 1146 002e 93F7F70F 		andi	a5,a5,0xff
 261:../Firmware/RISCV/drivers/n200_func.c ****  
 1147              		.loc 1 261 30
 1148 0032 118F     		sub	a4,a4,a2
 268:../Firmware/RISCV/drivers/n200_func.c **** 
 1149              		.loc 1 268 37
 1150 0034 B3D7D740 		sra	a5,a5,a3
 261:../Firmware/RISCV/drivers/n200_func.c ****  
 1151              		.loc 1 261 25
 1152 0038 B395E500 		sll	a1,a1,a4
 1153              	.LVL79:
 1154              		.loc 1 270 3
 1155 003c CD8F     		or	a5,a5,a1
 1156 003e 93F7F70F 		andi	a5,a5,0xff
 1157              	.LVL80:
 1158              	.LBB168:
 1159              	.LBB169:
 161:../Firmware/RISCV/drivers/n200_func.c **** }
 1160              		.loc 1 161 3 is_stmt 1
GAS LISTING /tmp/ccX7HQ2N.s 			page 27


 161:../Firmware/RISCV/drivers/n200_func.c **** }
 1161              		.loc 1 161 72 is_stmt 0
 1162 0042 2300F500 		sb	a5,0(a0)
 1163              	.LVL81:
 1164              	.LBE169:
 1165              	.LBE168:
 271:../Firmware/RISCV/drivers/n200_func.c **** }
 1166              		.loc 1 271 1
 1167 0046 8280     		ret
 1168              		.cfi_endproc
 1169              	.LFE33:
 1171              		.section	.text.eclic_get_irq_lvl_abs,"ax",@progbits
 1172              		.align	1
 1173              		.globl	eclic_get_irq_lvl_abs
 1175              	eclic_get_irq_lvl_abs:
 1176              	.LFB34:
 272:../Firmware/RISCV/drivers/n200_func.c **** 
 273:../Firmware/RISCV/drivers/n200_func.c **** uint8_t eclic_get_irq_lvl_abs(uint32_t source) {
 1177              		.loc 1 273 48 is_stmt 1
 1178              		.cfi_startproc
 1179              	.LVL82:
 274:../Firmware/RISCV/drivers/n200_func.c ****   //extract nlbits
 275:../Firmware/RISCV/drivers/n200_func.c ****   uint8_t nlbits = eclic_get_nlbits();
 1180              		.loc 1 275 3
 1181              	.LBB170:
 1182              	.LBB171:
 207:../Firmware/RISCV/drivers/n200_func.c ****   nlbits = (nlbits & ECLIC_CFG_NLBITS_MASK) >> ECLIC_CFG_NLBITS_LSB;
 1183              		.loc 1 207 3
 1184              	.LBB172:
 1185              	.LBB173:
 181:../Firmware/RISCV/drivers/n200_func.c **** }
 1186              		.loc 1 181 3
 181:../Firmware/RISCV/drivers/n200_func.c **** }
 1187              		.loc 1 181 10 is_stmt 0
 1188 0000 B70700D2 		li	a5,-771751936
 1189              	.LBE173:
 1190              	.LBE172:
 1191              	.LBE171:
 1192              	.LBE170:
 1193              	.LBB178:
 1194              	.LBB179:
 165:../Firmware/RISCV/drivers/n200_func.c **** }
 1195              		.loc 1 165 68
 1196 0004 371700D2 		li	a4,-771747840
 1197              	.LBE179:
 1198              	.LBE178:
 1199              	.LBB182:
 1200              	.LBB176:
 1201              	.LBB175:
 1202              	.LBB174:
 181:../Firmware/RISCV/drivers/n200_func.c **** }
 1203              		.loc 1 181 10
 1204 0008 83C70700 		lbu	a5,0(a5)
 1205              	.LVL83:
 1206              	.LBE174:
 1207              	.LBE175:
 208:../Firmware/RISCV/drivers/n200_func.c ****   return nlbits;
GAS LISTING /tmp/ccX7HQ2N.s 			page 28


 1208              		.loc 1 208 3 is_stmt 1
 209:../Firmware/RISCV/drivers/n200_func.c **** }
 1209              		.loc 1 209 3
 1210              	.LBE176:
 1211              	.LBE182:
 276:../Firmware/RISCV/drivers/n200_func.c ****   if (nlbits > ECLICINTCTLBITS) {
 1212              		.loc 1 276 3
 277:../Firmware/RISCV/drivers/n200_func.c ****     nlbits = ECLICINTCTLBITS;
 278:../Firmware/RISCV/drivers/n200_func.c ****   }
 279:../Firmware/RISCV/drivers/n200_func.c **** 
 280:../Firmware/RISCV/drivers/n200_func.c ****   uint8_t intctrl = eclic_get_intctrl(source);
 1213              		.loc 1 280 3
 1214              	.LBB183:
 1215              	.LBB180:
 165:../Firmware/RISCV/drivers/n200_func.c **** }
 1216              		.loc 1 165 3
 165:../Firmware/RISCV/drivers/n200_func.c **** }
 1217              		.loc 1 165 68 is_stmt 0
 1218 000c 0D07     		addi	a4,a4,3
 165:../Firmware/RISCV/drivers/n200_func.c **** }
 1219              		.loc 1 165 75
 1220 000e 0A05     		slli	a0,a0,2
 1221              	.LVL84:
 165:../Firmware/RISCV/drivers/n200_func.c **** }
 1222              		.loc 1 165 68
 1223 0010 3A95     		add	a0,a0,a4
 165:../Firmware/RISCV/drivers/n200_func.c **** }
 1224              		.loc 1 165 10
 1225 0012 03450500 		lbu	a0,0(a0)
 1226              	.LBE180:
 1227              	.LBE183:
 1228              	.LBB184:
 1229              	.LBB177:
 208:../Firmware/RISCV/drivers/n200_func.c ****   return nlbits;
 1230              		.loc 1 208 45
 1231 0016 8583     		srli	a5,a5,1
 1232              	.LVL85:
 208:../Firmware/RISCV/drivers/n200_func.c ****   return nlbits;
 1233              		.loc 1 208 10
 1234 0018 BD8B     		andi	a5,a5,15
 1235              	.LBE177:
 1236              	.LBE184:
 281:../Firmware/RISCV/drivers/n200_func.c **** 
 282:../Firmware/RISCV/drivers/n200_func.c ****   //shift intctrl
 283:../Firmware/RISCV/drivers/n200_func.c ****   intctrl = intctrl >> (8-nlbits);
 1237              		.loc 1 283 26
 1238 001a 9146     		li	a3,4
 1239              	.LBB185:
 1240              	.LBB181:
 165:../Firmware/RISCV/drivers/n200_func.c **** }
 1241              		.loc 1 165 10
 1242 001c 1375F50F 		andi	a0,a0,0xff
 1243              	.LVL86:
 1244              	.LBE181:
 1245              	.LBE185:
 1246              		.loc 1 283 3 is_stmt 1
 284:../Firmware/RISCV/drivers/n200_func.c ****   //shift intctrl
GAS LISTING /tmp/ccX7HQ2N.s 			page 29


 285:../Firmware/RISCV/drivers/n200_func.c ****   uint8_t lvl_abs = intctrl;
 1247              		.loc 1 285 3
 286:../Firmware/RISCV/drivers/n200_func.c **** 
 287:../Firmware/RISCV/drivers/n200_func.c ****   return lvl_abs;
 1248              		.loc 1 287 3
 283:../Firmware/RISCV/drivers/n200_func.c ****   //shift intctrl
 1249              		.loc 1 283 26 is_stmt 0
 1250 0020 13F7F70F 		andi	a4,a5,0xff
 1251 0024 63F3F600 		bleu	a5,a3,.L48
 1252 0028 1147     		li	a4,4
 1253              	.L48:
 1254 002a A147     		li	a5,8
 1255 002c 3387E740 		sub	a4,a5,a4
 283:../Firmware/RISCV/drivers/n200_func.c ****   //shift intctrl
 1256              		.loc 1 283 21
 1257 0030 3355E540 		sra	a0,a0,a4
 288:../Firmware/RISCV/drivers/n200_func.c **** }
 1258              		.loc 1 288 1
 1259 0034 1375F50F 		andi	a0,a0,0xff
 1260 0038 8280     		ret
 1261              		.cfi_endproc
 1262              	.LFE34:
 1264              		.section	.text.eclic_set_irq_priority,"ax",@progbits
 1265              		.align	1
 1266              		.globl	eclic_set_irq_priority
 1268              	eclic_set_irq_priority:
 1269              	.LFB35:
 289:../Firmware/RISCV/drivers/n200_func.c **** 
 290:../Firmware/RISCV/drivers/n200_func.c **** //sets an interrupt priority based encoding of nlbits and ECLICINTCTLBITS
 291:../Firmware/RISCV/drivers/n200_func.c **** uint8_t eclic_set_irq_priority(uint32_t source, uint8_t priority) {
 1270              		.loc 1 291 67 is_stmt 1
 1271              		.cfi_startproc
 1272              	.LVL87:
 292:../Firmware/RISCV/drivers/n200_func.c **** 	//extract nlbits
 293:../Firmware/RISCV/drivers/n200_func.c **** 	uint8_t nlbits = eclic_get_nlbits();
 1273              		.loc 1 293 2
 1274              	.LBB186:
 1275              	.LBB187:
 207:../Firmware/RISCV/drivers/n200_func.c ****   nlbits = (nlbits & ECLIC_CFG_NLBITS_MASK) >> ECLIC_CFG_NLBITS_LSB;
 1276              		.loc 1 207 3
 1277              	.LBB188:
 1278              	.LBB189:
 181:../Firmware/RISCV/drivers/n200_func.c **** }
 1279              		.loc 1 181 3
 181:../Firmware/RISCV/drivers/n200_func.c **** }
 1280              		.loc 1 181 10 is_stmt 0
 1281 0000 B70700D2 		li	a5,-771751936
 1282 0004 03C70700 		lbu	a4,0(a5)
 1283 0008 1377F70F 		andi	a4,a4,0xff
 1284              	.LVL88:
 1285              	.LBE189:
 1286              	.LBE188:
 208:../Firmware/RISCV/drivers/n200_func.c ****   return nlbits;
 1287              		.loc 1 208 3 is_stmt 1
 208:../Firmware/RISCV/drivers/n200_func.c ****   return nlbits;
 1288              		.loc 1 208 45 is_stmt 0
 1289 000c 0583     		srli	a4,a4,1
GAS LISTING /tmp/ccX7HQ2N.s 			page 30


 1290              	.LVL89:
 209:../Firmware/RISCV/drivers/n200_func.c **** }
 1291              		.loc 1 209 3 is_stmt 1
 1292              	.LBE187:
 1293              	.LBE186:
 294:../Firmware/RISCV/drivers/n200_func.c **** 	if (nlbits >= ECLICINTCTLBITS) {
 1294              		.loc 1 294 2
 1295              		.loc 1 294 5 is_stmt 0
 1296 000e 9377C700 		andi	a5,a4,12
 1297 0012 8DEF     		bne	a5,zero,.L51
 295:../Firmware/RISCV/drivers/n200_func.c **** 		nlbits = ECLICINTCTLBITS;
 296:../Firmware/RISCV/drivers/n200_func.c **** 		return 0;
 297:../Firmware/RISCV/drivers/n200_func.c **** 	}
 298:../Firmware/RISCV/drivers/n200_func.c **** 
 299:../Firmware/RISCV/drivers/n200_func.c **** 	//shift priority into correct bit position
 300:../Firmware/RISCV/drivers/n200_func.c **** 	priority = priority << (8 - ECLICINTCTLBITS);
 1298              		.loc 1 300 2 is_stmt 1
 1299              	.LBB190:
 1300              	.LBB191:
 165:../Firmware/RISCV/drivers/n200_func.c **** }
 1301              		.loc 1 165 68 is_stmt 0
 1302 0014 B71600D2 		li	a3,-771747840
 165:../Firmware/RISCV/drivers/n200_func.c **** }
 1303              		.loc 1 165 75
 1304 0018 0A05     		slli	a0,a0,2
 1305              	.LVL90:
 165:../Firmware/RISCV/drivers/n200_func.c **** }
 1306              		.loc 1 165 68
 1307 001a 8D06     		addi	a3,a3,3
 1308 001c AA96     		add	a3,a0,a3
 165:../Firmware/RISCV/drivers/n200_func.c **** }
 1309              		.loc 1 165 10
 1310 001e 83C70600 		lbu	a5,0(a3)
 1311              	.LBE191:
 1312              	.LBE190:
 301:../Firmware/RISCV/drivers/n200_func.c **** 
 302:../Firmware/RISCV/drivers/n200_func.c **** 	//write to eclicintctrl
 303:../Firmware/RISCV/drivers/n200_func.c **** 	uint8_t current_intctrl = eclic_get_intctrl(source);
 304:../Firmware/RISCV/drivers/n200_func.c **** 	//shift intctrl right to mask off unused bits
 305:../Firmware/RISCV/drivers/n200_func.c **** 	current_intctrl = current_intctrl >> (8-nlbits);
 1313              		.loc 1 305 41
 1314 0022 2146     		li	a2,8
 1315 0024 3D8B     		andi	a4,a4,15
 1316              	.LVL91:
 1317 0026 3307E640 		sub	a4,a2,a4
 1318              	.LBB194:
 1319              	.LBB192:
 165:../Firmware/RISCV/drivers/n200_func.c **** }
 1320              		.loc 1 165 10
 1321 002a 93F7F70F 		andi	a5,a5,0xff
 1322              	.LBE192:
 1323              	.LBE194:
 1324              		.loc 1 305 36
 1325 002e B3D7E740 		sra	a5,a5,a4
 300:../Firmware/RISCV/drivers/n200_func.c **** 
 1326              		.loc 1 300 11
 1327 0032 9205     		slli	a1,a1,4
GAS LISTING /tmp/ccX7HQ2N.s 			page 31


 1328              	.LVL92:
 306:../Firmware/RISCV/drivers/n200_func.c **** 	//shift intctrl into correct bit position
 307:../Firmware/RISCV/drivers/n200_func.c **** 	current_intctrl = current_intctrl << (8-nlbits);
 1329              		.loc 1 307 36
 1330 0034 93F7F70F 		andi	a5,a5,255
 300:../Firmware/RISCV/drivers/n200_func.c **** 
 1331              		.loc 1 300 11
 1332 0038 13F5F50F 		andi	a0,a1,0xff
 1333              	.LVL93:
 303:../Firmware/RISCV/drivers/n200_func.c **** 	//shift intctrl right to mask off unused bits
 1334              		.loc 1 303 2 is_stmt 1
 1335              	.LBB195:
 1336              	.LBB193:
 165:../Firmware/RISCV/drivers/n200_func.c **** }
 1337              		.loc 1 165 3
 1338              	.LBE193:
 1339              	.LBE195:
 305:../Firmware/RISCV/drivers/n200_func.c **** 	//shift intctrl into correct bit position
 1340              		.loc 1 305 2
 1341              		.loc 1 307 2
 308:../Firmware/RISCV/drivers/n200_func.c **** 
 309:../Firmware/RISCV/drivers/n200_func.c **** 	eclic_set_intctrl(source, (current_intctrl | priority));
 1342              		.loc 1 309 2
 307:../Firmware/RISCV/drivers/n200_func.c **** 
 1343              		.loc 1 307 36 is_stmt 0
 1344 003c B397E700 		sll	a5,a5,a4
 1345              		.loc 1 309 2
 1346 0040 C98F     		or	a5,a0,a5
 1347 0042 93F7F70F 		andi	a5,a5,0xff
 1348              	.LVL94:
 1349              	.LBB196:
 1350              	.LBB197:
 161:../Firmware/RISCV/drivers/n200_func.c **** }
 1351              		.loc 1 161 3 is_stmt 1
 161:../Firmware/RISCV/drivers/n200_func.c **** }
 1352              		.loc 1 161 72 is_stmt 0
 1353 0046 2380F600 		sb	a5,0(a3)
 1354              	.LVL95:
 1355              	.LBE197:
 1356              	.LBE196:
 310:../Firmware/RISCV/drivers/n200_func.c **** 
 311:../Firmware/RISCV/drivers/n200_func.c **** 	return priority;
 1357              		.loc 1 311 2 is_stmt 1
 1358              		.loc 1 311 9 is_stmt 0
 1359 004a 8280     		ret
 1360              	.LVL96:
 1361              	.L51:
 296:../Firmware/RISCV/drivers/n200_func.c **** 	}
 1362              		.loc 1 296 10
 1363 004c 0145     		li	a0,0
 1364              	.LVL97:
 312:../Firmware/RISCV/drivers/n200_func.c **** }
 1365              		.loc 1 312 1
 1366 004e 8280     		ret
 1367              		.cfi_endproc
 1368              	.LFE35:
 1370              		.section	.text.eclic_get_irq_priority,"ax",@progbits
GAS LISTING /tmp/ccX7HQ2N.s 			page 32


 1371              		.align	1
 1372              		.globl	eclic_get_irq_priority
 1374              	eclic_get_irq_priority:
 1375              	.LFB36:
 313:../Firmware/RISCV/drivers/n200_func.c **** 
 314:../Firmware/RISCV/drivers/n200_func.c **** //gets an interrupt priority based encoding of nlbits
 315:../Firmware/RISCV/drivers/n200_func.c **** uint8_t eclic_get_irq_priority(uint32_t source) {
 1376              		.loc 1 315 49 is_stmt 1
 1377              		.cfi_startproc
 1378              	.LVL98:
 316:../Firmware/RISCV/drivers/n200_func.c **** 	//extract nlbits
 317:../Firmware/RISCV/drivers/n200_func.c **** 	uint8_t nlbits = eclic_get_nlbits();
 1379              		.loc 1 317 2
 1380              	.LBB198:
 1381              	.LBB199:
 207:../Firmware/RISCV/drivers/n200_func.c ****   nlbits = (nlbits & ECLIC_CFG_NLBITS_MASK) >> ECLIC_CFG_NLBITS_LSB;
 1382              		.loc 1 207 3
 1383              	.LBB200:
 1384              	.LBB201:
 181:../Firmware/RISCV/drivers/n200_func.c **** }
 1385              		.loc 1 181 3
 181:../Firmware/RISCV/drivers/n200_func.c **** }
 1386              		.loc 1 181 10 is_stmt 0
 1387 0000 B70700D2 		li	a5,-771751936
 1388 0004 83C70700 		lbu	a5,0(a5)
 1389              	.LVL99:
 1390              	.LBE201:
 1391              	.LBE200:
 208:../Firmware/RISCV/drivers/n200_func.c ****   return nlbits;
 1392              		.loc 1 208 3 is_stmt 1
 209:../Firmware/RISCV/drivers/n200_func.c **** }
 1393              		.loc 1 209 3
 1394              	.LBE199:
 1395              	.LBE198:
 318:../Firmware/RISCV/drivers/n200_func.c **** 	if (nlbits > ECLICINTCTLBITS) {
 1396              		.loc 1 318 2
 1397 0008 1147     		li	a4,4
 1398              	.LBB203:
 1399              	.LBB202:
 208:../Firmware/RISCV/drivers/n200_func.c ****   return nlbits;
 1400              		.loc 1 208 45 is_stmt 0
 1401 000a 8583     		srli	a5,a5,1
 1402              	.LVL100:
 208:../Firmware/RISCV/drivers/n200_func.c ****   return nlbits;
 1403              		.loc 1 208 10
 1404 000c BD8B     		andi	a5,a5,15
 1405 000e BE86     		mv	a3,a5
 1406 0010 6373F700 		bleu	a5,a4,.L53
 1407 0014 9146     		li	a3,4
 1408              	.L53:
 1409              	.LBE202:
 1410              	.LBE203:
 1411              	.LBB204:
 1412              	.LBB205:
 165:../Firmware/RISCV/drivers/n200_func.c **** }
 1413              		.loc 1 165 68
 1414 0016 371700D2 		li	a4,-771747840
GAS LISTING /tmp/ccX7HQ2N.s 			page 33


 165:../Firmware/RISCV/drivers/n200_func.c **** }
 1415              		.loc 1 165 75
 1416 001a 93172500 		slli	a5,a0,2
 165:../Firmware/RISCV/drivers/n200_func.c **** }
 1417              		.loc 1 165 68
 1418 001e 0D07     		addi	a4,a4,3
 1419 0020 BA97     		add	a5,a5,a4
 165:../Firmware/RISCV/drivers/n200_func.c **** }
 1420              		.loc 1 165 10
 1421 0022 03C50700 		lbu	a0,0(a5)
 1422              	.LVL101:
 1423 0026 93F7F60F 		andi	a5,a3,0xff
 1424              	.LVL102:
 1425              	.LBE205:
 1426              	.LBE204:
 319:../Firmware/RISCV/drivers/n200_func.c **** 		nlbits = ECLICINTCTLBITS;
 320:../Firmware/RISCV/drivers/n200_func.c **** 	}
 321:../Firmware/RISCV/drivers/n200_func.c **** 
 322:../Firmware/RISCV/drivers/n200_func.c **** 	uint8_t intctrl = eclic_get_intctrl(source);
 1427              		.loc 1 322 2 is_stmt 1
 1428              	.LBB207:
 1429              	.LBB206:
 165:../Firmware/RISCV/drivers/n200_func.c **** }
 1430              		.loc 1 165 3
 1431              	.LBE206:
 1432              	.LBE207:
 323:../Firmware/RISCV/drivers/n200_func.c **** 
 324:../Firmware/RISCV/drivers/n200_func.c **** 	//shift intctrl
 325:../Firmware/RISCV/drivers/n200_func.c **** 	intctrl = intctrl << nlbits;
 1433              		.loc 1 325 2
 326:../Firmware/RISCV/drivers/n200_func.c **** 	//shift intctrl
 327:../Firmware/RISCV/drivers/n200_func.c **** 	uint8_t priority = intctrl >> (nlbits+(8 - ECLICINTCTLBITS));
 1434              		.loc 1 327 2
 328:../Firmware/RISCV/drivers/n200_func.c **** 
 329:../Firmware/RISCV/drivers/n200_func.c **** 	return priority;
 1435              		.loc 1 329 2
 327:../Firmware/RISCV/drivers/n200_func.c **** 
 1436              		.loc 1 327 39 is_stmt 0
 1437 002a 9107     		addi	a5,a5,4
 1438              	.LVL103:
 325:../Firmware/RISCV/drivers/n200_func.c **** 	//shift intctrl
 1439              		.loc 1 325 20
 1440 002c 3315D500 		sll	a0,a0,a3
 1441              	.LVL104:
 327:../Firmware/RISCV/drivers/n200_func.c **** 
 1442              		.loc 1 327 29
 1443 0030 1375F50F 		andi	a0,a0,0xff
 1444 0034 3355F540 		sra	a0,a0,a5
 330:../Firmware/RISCV/drivers/n200_func.c **** }
 1445              		.loc 1 330 1
 1446 0038 1375F50F 		andi	a0,a0,0xff
 1447 003c 8280     		ret
 1448              		.cfi_endproc
 1449              	.LFE36:
 1451              		.section	.text.eclic_mode_enable,"ax",@progbits
 1452              		.align	1
 1453              		.globl	eclic_mode_enable
GAS LISTING /tmp/ccX7HQ2N.s 			page 34


 1455              	eclic_mode_enable:
 1456              	.LFB37:
 331:../Firmware/RISCV/drivers/n200_func.c **** 
 332:../Firmware/RISCV/drivers/n200_func.c **** void eclic_mode_enable() {
 1457              		.loc 1 332 26 is_stmt 1
 1458              		.cfi_startproc
 333:../Firmware/RISCV/drivers/n200_func.c ****   uint32_t mtvec_value = read_csr(mtvec);
 1459              		.loc 1 333 3
 1460              	.LBB208:
 1461              		.loc 1 333 26
 1462              		.loc 1 333 26
 1463              	 #APP
 1464              	# 333 "../Firmware/RISCV/drivers/n200_func.c" 1
 334              	  mtvec_value = mtvec_value & 0xFFFFFFC0;
 1465              		csrr a5, mtvec
 1466              	# 0 "" 2
 1467              	.LVL105:
 333:../Firmware/RISCV/drivers/n200_func.c ****   uint32_t mtvec_value = read_csr(mtvec);
 1468              		.loc 1 333 26
 1469              	 #NO_APP
 1470              	.LBE208:
 1471              		.loc 1 334 3
 1472              		.loc 1 334 15 is_stmt 0
 1473 0004 93F707FC 		andi	a5,a5,-64
 1474              	.LVL106:
 335:../Firmware/RISCV/drivers/n200_func.c ****   mtvec_value = mtvec_value | 0x00000003;
 1475              		.loc 1 335 3 is_stmt 1
 336:../Firmware/RISCV/drivers/n200_func.c ****   write_csr(mtvec,mtvec_value);
 1476              		.loc 1 336 3
 1477              		.loc 1 336 3
 335:../Firmware/RISCV/drivers/n200_func.c ****   mtvec_value = mtvec_value | 0x00000003;
 1478              		.loc 1 335 15 is_stmt 0
 1479 0008 93E73700 		ori	a5,a5,3
 1480              	.LVL107:
 1481              		.loc 1 336 3
 1482              	 #APP
 1483              	# 336 "../Firmware/RISCV/drivers/n200_func.c" 1
 337              	}
 1484              		csrw mtvec, a5
 1485              	# 0 "" 2
 1486              		.loc 1 337 1
 1487              	 #NO_APP
 1488 0010 8280     		ret
 1489              		.cfi_endproc
 1490              	.LFE37:
 1492              		.section	.text.eclic_set_vmode,"ax",@progbits
 1493              		.align	1
 1494              		.globl	eclic_set_vmode
 1496              	eclic_set_vmode:
 1497              	.LFB38:
 338:../Firmware/RISCV/drivers/n200_func.c **** 
 339:../Firmware/RISCV/drivers/n200_func.c **** //sets vector-mode or non-vector mode 
 340:../Firmware/RISCV/drivers/n200_func.c **** void eclic_set_vmode(uint32_t source) {
 1498              		.loc 1 340 39 is_stmt 1
 1499              		.cfi_startproc
 1500              	.LVL108:
 341:../Firmware/RISCV/drivers/n200_func.c ****   //read the current attr 
GAS LISTING /tmp/ccX7HQ2N.s 			page 35


 342:../Firmware/RISCV/drivers/n200_func.c ****   uint8_t old_intattr = eclic_get_intattr(source);
 1501              		.loc 1 342 3
 1502              	.LBB209:
 1503              	.LBB210:
 173:../Firmware/RISCV/drivers/n200_func.c **** }
 1504              		.loc 1 173 3
 173:../Firmware/RISCV/drivers/n200_func.c **** }
 1505              		.loc 1 173 68 is_stmt 0
 1506 0000 B71700D2 		li	a5,-771747840
 1507 0004 8907     		addi	a5,a5,2
 173:../Firmware/RISCV/drivers/n200_func.c **** }
 1508              		.loc 1 173 75
 1509 0006 0A05     		slli	a0,a0,2
 1510              	.LVL109:
 173:../Firmware/RISCV/drivers/n200_func.c **** }
 1511              		.loc 1 173 68
 1512 0008 3E95     		add	a0,a0,a5
 173:../Firmware/RISCV/drivers/n200_func.c **** }
 1513              		.loc 1 173 10
 1514 000a 83470500 		lbu	a5,0(a0)
 1515 000e 93F7F70F 		andi	a5,a5,0xff
 1516              	.LVL110:
 1517              	.LBE210:
 1518              	.LBE209:
 343:../Firmware/RISCV/drivers/n200_func.c ****       // Keep other bits unchanged and only set the LSB bit
 344:../Firmware/RISCV/drivers/n200_func.c ****   uint8_t new_intattr = (old_intattr | 0x1); 
 1519              		.loc 1 344 3 is_stmt 1
 1520              		.loc 1 344 11 is_stmt 0
 1521 0012 93E71700 		ori	a5,a5,1
 1522              	.LVL111:
 345:../Firmware/RISCV/drivers/n200_func.c **** 
 346:../Firmware/RISCV/drivers/n200_func.c ****   eclic_set_intattr(source,new_intattr);
 1523              		.loc 1 346 3 is_stmt 1
 1524              	.LBB211:
 1525              	.LBB212:
 169:../Firmware/RISCV/drivers/n200_func.c **** }
 1526              		.loc 1 169 3
 169:../Firmware/RISCV/drivers/n200_func.c **** }
 1527              		.loc 1 169 72 is_stmt 0
 1528 0016 2300F500 		sb	a5,0(a0)
 1529              	.LVL112:
 1530              	.LBE212:
 1531              	.LBE211:
 347:../Firmware/RISCV/drivers/n200_func.c **** }
 1532              		.loc 1 347 1
 1533 001a 8280     		ret
 1534              		.cfi_endproc
 1535              	.LFE38:
 1537              		.section	.text.eclic_set_nonvmode,"ax",@progbits
 1538              		.align	1
 1539              		.globl	eclic_set_nonvmode
 1541              	eclic_set_nonvmode:
 1542              	.LFB39:
 348:../Firmware/RISCV/drivers/n200_func.c **** 
 349:../Firmware/RISCV/drivers/n200_func.c **** void eclic_set_nonvmode(uint32_t source) {
 1543              		.loc 1 349 42 is_stmt 1
 1544              		.cfi_startproc
GAS LISTING /tmp/ccX7HQ2N.s 			page 36


 1545              	.LVL113:
 350:../Firmware/RISCV/drivers/n200_func.c ****   //read the current attr 
 351:../Firmware/RISCV/drivers/n200_func.c ****   uint8_t old_intattr = eclic_get_intattr(source);
 1546              		.loc 1 351 3
 1547              	.LBB213:
 1548              	.LBB214:
 173:../Firmware/RISCV/drivers/n200_func.c **** }
 1549              		.loc 1 173 3
 173:../Firmware/RISCV/drivers/n200_func.c **** }
 1550              		.loc 1 173 68 is_stmt 0
 1551 0000 B71700D2 		li	a5,-771747840
 1552 0004 8907     		addi	a5,a5,2
 173:../Firmware/RISCV/drivers/n200_func.c **** }
 1553              		.loc 1 173 75
 1554 0006 0A05     		slli	a0,a0,2
 1555              	.LVL114:
 173:../Firmware/RISCV/drivers/n200_func.c **** }
 1556              		.loc 1 173 68
 1557 0008 3E95     		add	a0,a0,a5
 173:../Firmware/RISCV/drivers/n200_func.c **** }
 1558              		.loc 1 173 10
 1559 000a 83470500 		lbu	a5,0(a0)
 1560              	.LVL115:
 1561              	.LBE214:
 1562              	.LBE213:
 352:../Firmware/RISCV/drivers/n200_func.c ****       // Keep other bits unchanged and only clear the LSB bit
 353:../Firmware/RISCV/drivers/n200_func.c ****   uint8_t new_intattr = (old_intattr & (~0x1));
 1563              		.loc 1 353 3 is_stmt 1
 1564              		.loc 1 353 11 is_stmt 0
 1565 000e 93F7E70F 		andi	a5,a5,254
 1566              	.LVL116:
 354:../Firmware/RISCV/drivers/n200_func.c **** 
 355:../Firmware/RISCV/drivers/n200_func.c ****   eclic_set_intattr(source,new_intattr);
 1567              		.loc 1 355 3 is_stmt 1
 1568              	.LBB215:
 1569              	.LBB216:
 169:../Firmware/RISCV/drivers/n200_func.c **** }
 1570              		.loc 1 169 3
 169:../Firmware/RISCV/drivers/n200_func.c **** }
 1571              		.loc 1 169 72 is_stmt 0
 1572 0012 2300F500 		sb	a5,0(a0)
 1573              	.LVL117:
 1574              	.LBE216:
 1575              	.LBE215:
 356:../Firmware/RISCV/drivers/n200_func.c **** }
 1576              		.loc 1 356 1
 1577 0016 8280     		ret
 1578              		.cfi_endproc
 1579              	.LFE39:
 1581              		.section	.text.eclic_set_level_trig,"ax",@progbits
 1582              		.align	1
 1583              		.globl	eclic_set_level_trig
 1585              	eclic_set_level_trig:
 1586              	.LFB40:
 357:../Firmware/RISCV/drivers/n200_func.c **** 
 358:../Firmware/RISCV/drivers/n200_func.c **** //sets interrupt as level sensitive
 359:../Firmware/RISCV/drivers/n200_func.c **** //Bit 1, trig[0], is defined as "edge-triggered" (0: level-triggered, 1: edge-triggered); 
GAS LISTING /tmp/ccX7HQ2N.s 			page 37


 360:../Firmware/RISCV/drivers/n200_func.c **** //Bit 2, trig[1], is defined as "negative-edge" (0: positive-edge, 1: negative-edge).
 361:../Firmware/RISCV/drivers/n200_func.c **** 
 362:../Firmware/RISCV/drivers/n200_func.c **** void eclic_set_level_trig(uint32_t source) {
 1587              		.loc 1 362 44 is_stmt 1
 1588              		.cfi_startproc
 1589              	.LVL118:
 363:../Firmware/RISCV/drivers/n200_func.c ****   //read the current attr 
 364:../Firmware/RISCV/drivers/n200_func.c ****   uint8_t old_intattr = eclic_get_intattr(source);
 1590              		.loc 1 364 3
 1591              	.LBB217:
 1592              	.LBB218:
 173:../Firmware/RISCV/drivers/n200_func.c **** }
 1593              		.loc 1 173 3
 173:../Firmware/RISCV/drivers/n200_func.c **** }
 1594              		.loc 1 173 68 is_stmt 0
 1595 0000 B71700D2 		li	a5,-771747840
 1596 0004 8907     		addi	a5,a5,2
 173:../Firmware/RISCV/drivers/n200_func.c **** }
 1597              		.loc 1 173 75
 1598 0006 0A05     		slli	a0,a0,2
 1599              	.LVL119:
 173:../Firmware/RISCV/drivers/n200_func.c **** }
 1600              		.loc 1 173 68
 1601 0008 3E95     		add	a0,a0,a5
 173:../Firmware/RISCV/drivers/n200_func.c **** }
 1602              		.loc 1 173 10
 1603 000a 83470500 		lbu	a5,0(a0)
 1604              	.LVL120:
 1605              	.LBE218:
 1606              	.LBE217:
 365:../Firmware/RISCV/drivers/n200_func.c ****       // Keep other bits unchanged and only clear the bit 1
 366:../Firmware/RISCV/drivers/n200_func.c ****   uint8_t new_intattr = (old_intattr & (~0x2));
 1607              		.loc 1 366 3 is_stmt 1
 1608              		.loc 1 366 11 is_stmt 0
 1609 000e 93F7D70F 		andi	a5,a5,253
 1610              	.LVL121:
 367:../Firmware/RISCV/drivers/n200_func.c **** 
 368:../Firmware/RISCV/drivers/n200_func.c ****   eclic_set_intattr(source,new_intattr);
 1611              		.loc 1 368 3 is_stmt 1
 1612              	.LBB219:
 1613              	.LBB220:
 169:../Firmware/RISCV/drivers/n200_func.c **** }
 1614              		.loc 1 169 3
 169:../Firmware/RISCV/drivers/n200_func.c **** }
 1615              		.loc 1 169 72 is_stmt 0
 1616 0012 2300F500 		sb	a5,0(a0)
 1617              	.LVL122:
 1618              	.LBE220:
 1619              	.LBE219:
 369:../Firmware/RISCV/drivers/n200_func.c **** }
 1620              		.loc 1 369 1
 1621 0016 8280     		ret
 1622              		.cfi_endproc
 1623              	.LFE40:
 1625              		.section	.text.eclic_set_posedge_trig,"ax",@progbits
 1626              		.align	1
 1627              		.globl	eclic_set_posedge_trig
GAS LISTING /tmp/ccX7HQ2N.s 			page 38


 1629              	eclic_set_posedge_trig:
 1630              	.LFB41:
 370:../Firmware/RISCV/drivers/n200_func.c **** 
 371:../Firmware/RISCV/drivers/n200_func.c **** void eclic_set_posedge_trig(uint32_t source) {
 1631              		.loc 1 371 46 is_stmt 1
 1632              		.cfi_startproc
 1633              	.LVL123:
 372:../Firmware/RISCV/drivers/n200_func.c ****   //read the current attr 
 373:../Firmware/RISCV/drivers/n200_func.c ****   uint8_t old_intattr = eclic_get_intattr(source);
 1634              		.loc 1 373 3
 1635              	.LBB221:
 1636              	.LBB222:
 173:../Firmware/RISCV/drivers/n200_func.c **** }
 1637              		.loc 1 173 3
 173:../Firmware/RISCV/drivers/n200_func.c **** }
 1638              		.loc 1 173 68 is_stmt 0
 1639 0000 B71700D2 		li	a5,-771747840
 1640 0004 8907     		addi	a5,a5,2
 173:../Firmware/RISCV/drivers/n200_func.c **** }
 1641              		.loc 1 173 75
 1642 0006 0A05     		slli	a0,a0,2
 1643              	.LVL124:
 173:../Firmware/RISCV/drivers/n200_func.c **** }
 1644              		.loc 1 173 68
 1645 0008 3E95     		add	a0,a0,a5
 173:../Firmware/RISCV/drivers/n200_func.c **** }
 1646              		.loc 1 173 10
 1647 000a 83470500 		lbu	a5,0(a0)
 1648              	.LVL125:
 1649              	.LBE222:
 1650              	.LBE221:
 374:../Firmware/RISCV/drivers/n200_func.c ****       // Keep other bits unchanged and only set the bit 1
 375:../Firmware/RISCV/drivers/n200_func.c ****   uint8_t new_intattr = (old_intattr | 0x2);
 1651              		.loc 1 375 3 is_stmt 1
 376:../Firmware/RISCV/drivers/n200_func.c ****       // Keep other bits unchanged and only clear the bit 2
 377:../Firmware/RISCV/drivers/n200_func.c ****   new_intattr = (old_intattr & (~0x4));
 1652              		.loc 1 377 3
 1653              		.loc 1 377 15 is_stmt 0
 1654 000e 93F7B70F 		andi	a5,a5,251
 1655              	.LVL126:
 378:../Firmware/RISCV/drivers/n200_func.c **** 
 379:../Firmware/RISCV/drivers/n200_func.c ****   eclic_set_intattr(source,new_intattr);
 1656              		.loc 1 379 3 is_stmt 1
 1657              	.LBB223:
 1658              	.LBB224:
 169:../Firmware/RISCV/drivers/n200_func.c **** }
 1659              		.loc 1 169 3
 169:../Firmware/RISCV/drivers/n200_func.c **** }
 1660              		.loc 1 169 72 is_stmt 0
 1661 0012 2300F500 		sb	a5,0(a0)
 1662              	.LVL127:
 1663              	.LBE224:
 1664              	.LBE223:
 380:../Firmware/RISCV/drivers/n200_func.c **** }
 1665              		.loc 1 380 1
 1666 0016 8280     		ret
 1667              		.cfi_endproc
GAS LISTING /tmp/ccX7HQ2N.s 			page 39


 1668              	.LFE41:
 1670              		.section	.text.eclic_set_negedge_trig,"ax",@progbits
 1671              		.align	1
 1672              		.globl	eclic_set_negedge_trig
 1674              	eclic_set_negedge_trig:
 1675              	.LFB42:
 381:../Firmware/RISCV/drivers/n200_func.c **** 
 382:../Firmware/RISCV/drivers/n200_func.c **** void eclic_set_negedge_trig(uint32_t source) {
 1676              		.loc 1 382 46 is_stmt 1
 1677              		.cfi_startproc
 1678              	.LVL128:
 383:../Firmware/RISCV/drivers/n200_func.c ****   //read the current attr 
 384:../Firmware/RISCV/drivers/n200_func.c ****   uint8_t old_intattr = eclic_get_intattr(source);
 1679              		.loc 1 384 3
 1680              	.LBB225:
 1681              	.LBB226:
 173:../Firmware/RISCV/drivers/n200_func.c **** }
 1682              		.loc 1 173 3
 173:../Firmware/RISCV/drivers/n200_func.c **** }
 1683              		.loc 1 173 68 is_stmt 0
 1684 0000 B71700D2 		li	a5,-771747840
 1685 0004 8907     		addi	a5,a5,2
 173:../Firmware/RISCV/drivers/n200_func.c **** }
 1686              		.loc 1 173 75
 1687 0006 0A05     		slli	a0,a0,2
 1688              	.LVL129:
 173:../Firmware/RISCV/drivers/n200_func.c **** }
 1689              		.loc 1 173 68
 1690 0008 3E95     		add	a0,a0,a5
 173:../Firmware/RISCV/drivers/n200_func.c **** }
 1691              		.loc 1 173 10
 1692 000a 83470500 		lbu	a5,0(a0)
 1693 000e 93F7F70F 		andi	a5,a5,0xff
 1694              	.LVL130:
 1695              	.LBE226:
 1696              	.LBE225:
 385:../Firmware/RISCV/drivers/n200_func.c ****       // Keep other bits unchanged and only set the bit 1
 386:../Firmware/RISCV/drivers/n200_func.c ****   uint8_t new_intattr = (old_intattr | 0x2);
 1697              		.loc 1 386 3 is_stmt 1
 387:../Firmware/RISCV/drivers/n200_func.c ****       // Keep other bits unchanged and only set the bit 2
 388:../Firmware/RISCV/drivers/n200_func.c ****   new_intattr = (old_intattr | 0x4);
 1698              		.loc 1 388 3
 1699              		.loc 1 388 15 is_stmt 0
 1700 0012 93E74700 		ori	a5,a5,4
 1701              	.LVL131:
 389:../Firmware/RISCV/drivers/n200_func.c **** 
 390:../Firmware/RISCV/drivers/n200_func.c ****   eclic_set_intattr(source,new_intattr);
 1702              		.loc 1 390 3 is_stmt 1
 1703              	.LBB227:
 1704              	.LBB228:
 169:../Firmware/RISCV/drivers/n200_func.c **** }
 1705              		.loc 1 169 3
 169:../Firmware/RISCV/drivers/n200_func.c **** }
 1706              		.loc 1 169 72 is_stmt 0
 1707 0016 2300F500 		sb	a5,0(a0)
 1708              	.LVL132:
 1709              	.LBE228:
GAS LISTING /tmp/ccX7HQ2N.s 			page 40


 1710              	.LBE227:
 391:../Firmware/RISCV/drivers/n200_func.c **** }
 1711              		.loc 1 391 1
 1712 001a 8280     		ret
 1713              		.cfi_endproc
 1714              	.LFE42:
 1716              		.text
 1717              	.Letext0:
 1718              		.file 2 "/home/johnson/Documents/mpb-toolchain/build/riscv32-mapleboard-elf/include/machine/_defau
 1719              		.file 3 "/home/johnson/Documents/mpb-toolchain/build/riscv32-mapleboard-elf/include/sys/_stdint.h"
 1720              		.file 4 "/home/johnson/Documents/mpb-toolchain/build/lib/gcc/riscv32-mapleboard-elf/10.2.0/include
 1721              		.file 5 "../Firmware/GD32VF103_standard_peripheral/system_gd32vf103.h"
GAS LISTING /tmp/ccX7HQ2N.s 			page 41


DEFINED SYMBOLS
                            *ABS*:0000000000000000 n200_func.c
     /tmp/ccX7HQ2N.s:13     .text.pmp_open_all_space:0000000000000000 pmp_open_all_space
     /tmp/ccX7HQ2N.s:17     .text.pmp_open_all_space:0000000000000000 .L0 
     /tmp/ccX7HQ2N.s:18     .text.pmp_open_all_space:0000000000000000 .L0 
../Firmware/RISCV/drivers/n200_func.c:14     .text.pmp_open_all_space:0000000000000000 .L0 
../Firmware/RISCV/drivers/n200_func.c:15     .text.pmp_open_all_space:0000000000000004 .L0 
../Firmware/RISCV/drivers/n200_func.c:17     .text.pmp_open_all_space:0000000000000008 .L0 
../Firmware/RISCV/drivers/n200_func.c:18     .text.pmp_open_all_space:000000000000000c .L0 
     /tmp/ccX7HQ2N.s:37     .text.pmp_open_all_space:0000000000000010 .L0 
     /tmp/ccX7HQ2N.s:38     .text.pmp_open_all_space:0000000000000012 .L0 
     /tmp/ccX7HQ2N.s:45     .text.switch_m2u_mode:0000000000000000 switch_m2u_mode
     /tmp/ccX7HQ2N.s:48     .text.switch_m2u_mode:0000000000000000 .L0 
     /tmp/ccX7HQ2N.s:49     .text.switch_m2u_mode:0000000000000000 .L0 
     /tmp/ccX7HQ2N.s:51     .text.switch_m2u_mode:0000000000000000 .L0 
     /tmp/ccX7HQ2N.s:52     .text.switch_m2u_mode:0000000000000000 .L0 
     /tmp/ccX7HQ2N.s:53     .text.switch_m2u_mode:0000000000000000 .L0 
     /tmp/ccX7HQ2N.s:54     .text.switch_m2u_mode:0000000000000000 .L0 
     /tmp/ccX7HQ2N.s:64     .text.switch_m2u_mode:000000000000000a .L0 
../Firmware/RISCV/drivers/n200_func.c:25     .text.switch_m2u_mode:000000000000000a .L0 
../Firmware/RISCV/drivers/n200_func.c:26     .text.switch_m2u_mode:0000000000000012 .L0 
../Firmware/RISCV/drivers/n200_func.c:27     .text.switch_m2u_mode:0000000000000016 .L0 
     /tmp/ccX7HQ2N.s:81     .text.switch_m2u_mode:000000000000001a .L0 
     /tmp/ccX7HQ2N.s:83     .text.switch_m2u_mode:000000000000001a .L0 
     /tmp/ccX7HQ2N.s:84     .text.switch_m2u_mode:000000000000001c .L0 
     /tmp/ccX7HQ2N.s:91     .text.mtime_lo:0000000000000000 mtime_lo
     /tmp/ccX7HQ2N.s:94     .text.mtime_lo:0000000000000000 .L0 
     /tmp/ccX7HQ2N.s:95     .text.mtime_lo:0000000000000000 .L0 
     /tmp/ccX7HQ2N.s:96     .text.mtime_lo:0000000000000000 .L0 
     /tmp/ccX7HQ2N.s:97     .text.mtime_lo:0000000000000000 .L0 
     /tmp/ccX7HQ2N.s:100    .text.mtime_lo:0000000000000006 .L0 
     /tmp/ccX7HQ2N.s:101    .text.mtime_lo:0000000000000008 .L0 
     /tmp/ccX7HQ2N.s:108    .text.mtime_hi:0000000000000000 mtime_hi
     /tmp/ccX7HQ2N.s:111    .text.mtime_hi:0000000000000000 .L0 
     /tmp/ccX7HQ2N.s:112    .text.mtime_hi:0000000000000000 .L0 
     /tmp/ccX7HQ2N.s:113    .text.mtime_hi:0000000000000000 .L0 
     /tmp/ccX7HQ2N.s:114    .text.mtime_hi:0000000000000000 .L0 
     /tmp/ccX7HQ2N.s:117    .text.mtime_hi:0000000000000006 .L0 
     /tmp/ccX7HQ2N.s:118    .text.mtime_hi:0000000000000008 .L0 
     /tmp/ccX7HQ2N.s:125    .text.get_timer_value:0000000000000000 get_timer_value
     /tmp/ccX7HQ2N.s:128    .text.get_timer_value:0000000000000000 .L0 
     /tmp/ccX7HQ2N.s:132    .text.get_timer_value:0000000000000000 .L0 
     /tmp/ccX7HQ2N.s:133    .text.get_timer_value:0000000000000000 .L0 
     /tmp/ccX7HQ2N.s:140    .text.get_timer_value:0000000000000004 .L0 
     /tmp/ccX7HQ2N.s:143    .text.get_timer_value:0000000000000004 .L0 
     /tmp/ccX7HQ2N.s:144    .text.get_timer_value:0000000000000004 .L0 
     /tmp/ccX7HQ2N.s:145    .text.get_timer_value:0000000000000004 .L0 
     /tmp/ccX7HQ2N.s:152    .text.get_timer_value:0000000000000006 .L0 
     /tmp/ccX7HQ2N.s:153    .text.get_timer_value:0000000000000006 .L0 
     /tmp/ccX7HQ2N.s:154    .text.get_timer_value:0000000000000006 .L0 
     /tmp/ccX7HQ2N.s:161    .text.get_timer_value:0000000000000008 .L0 
     /tmp/ccX7HQ2N.s:162    .text.get_timer_value:0000000000000008 .L0 
     /tmp/ccX7HQ2N.s:163    .text.get_timer_value:0000000000000008 .L0 
     /tmp/ccX7HQ2N.s:167    .text.get_timer_value:000000000000000a .L0 
     /tmp/ccX7HQ2N.s:170    .text.get_timer_value:000000000000000e .L0 
     /tmp/ccX7HQ2N.s:171    .text.get_timer_value:000000000000000e .L0 
     /tmp/ccX7HQ2N.s:172    .text.get_timer_value:0000000000000010 .L0 
GAS LISTING /tmp/ccX7HQ2N.s 			page 42


     /tmp/ccX7HQ2N.s:179    .text.get_timer_freq:0000000000000000 get_timer_freq
     /tmp/ccX7HQ2N.s:182    .text.get_timer_freq:0000000000000000 .L0 
     /tmp/ccX7HQ2N.s:183    .text.get_timer_freq:0000000000000000 .L0 
     /tmp/ccX7HQ2N.s:184    .text.get_timer_freq:0000000000000000 .L0 
     /tmp/ccX7HQ2N.s:185    .text.get_timer_freq:0000000000000000 .L0 
     /tmp/ccX7HQ2N.s:188    .text.get_timer_freq:0000000000000008 .L0 
     /tmp/ccX7HQ2N.s:190    .text.get_timer_freq:000000000000000c .L0 
     /tmp/ccX7HQ2N.s:197    .text.get_instret_value:0000000000000000 get_instret_value
     /tmp/ccX7HQ2N.s:200    .text.get_instret_value:0000000000000000 .L0 
     /tmp/ccX7HQ2N.s:202    .text.get_instret_value:0000000000000000 .L0 
     /tmp/ccX7HQ2N.s:204    .text.get_instret_value:0000000000000000 .L0 
     /tmp/ccX7HQ2N.s:206    .text.get_instret_value:0000000000000000 .L0 
     /tmp/ccX7HQ2N.s:207    .text.get_instret_value:0000000000000000 .L0 
../Firmware/RISCV/drivers/n200_func.c:60     .text.get_instret_value:0000000000000000 .L0 
     /tmp/ccX7HQ2N.s:216    .text.get_instret_value:0000000000000004 .L0 
     /tmp/ccX7HQ2N.s:218    .text.get_instret_value:0000000000000004 .L0 
     /tmp/ccX7HQ2N.s:219    .text.get_instret_value:0000000000000004 .L0 
../Firmware/RISCV/drivers/n200_func.c:61     .text.get_instret_value:0000000000000004 .L0 
     /tmp/ccX7HQ2N.s:228    .text.get_instret_value:0000000000000008 .L0 
     /tmp/ccX7HQ2N.s:230    .text.get_instret_value:0000000000000008 .L0 
     /tmp/ccX7HQ2N.s:231    .text.get_instret_value:0000000000000008 .L0 
../Firmware/RISCV/drivers/n200_func.c:62     .text.get_instret_value:0000000000000008 .L0 
     /tmp/ccX7HQ2N.s:240    .text.get_instret_value:000000000000000c .L0 
     /tmp/ccX7HQ2N.s:241    .text.get_instret_value:000000000000000c .L0 
     /tmp/ccX7HQ2N.s:244    .text.get_instret_value:0000000000000010 .L0 
     /tmp/ccX7HQ2N.s:245    .text.get_instret_value:0000000000000010 .L0 
     /tmp/ccX7HQ2N.s:246    .text.get_instret_value:0000000000000012 .L0 
     /tmp/ccX7HQ2N.s:253    .text.get_cycle_value:0000000000000000 get_cycle_value
     /tmp/ccX7HQ2N.s:256    .text.get_cycle_value:0000000000000000 .L0 
     /tmp/ccX7HQ2N.s:258    .text.get_cycle_value:0000000000000000 .L0 
     /tmp/ccX7HQ2N.s:260    .text.get_cycle_value:0000000000000000 .L0 
     /tmp/ccX7HQ2N.s:262    .text.get_cycle_value:0000000000000000 .L0 
     /tmp/ccX7HQ2N.s:263    .text.get_cycle_value:0000000000000000 .L0 
../Firmware/RISCV/drivers/n200_func.c:70     .text.get_cycle_value:0000000000000000 .L0 
     /tmp/ccX7HQ2N.s:272    .text.get_cycle_value:0000000000000004 .L0 
     /tmp/ccX7HQ2N.s:274    .text.get_cycle_value:0000000000000004 .L0 
     /tmp/ccX7HQ2N.s:275    .text.get_cycle_value:0000000000000004 .L0 
../Firmware/RISCV/drivers/n200_func.c:71     .text.get_cycle_value:0000000000000004 .L0 
     /tmp/ccX7HQ2N.s:284    .text.get_cycle_value:0000000000000008 .L0 
     /tmp/ccX7HQ2N.s:286    .text.get_cycle_value:0000000000000008 .L0 
     /tmp/ccX7HQ2N.s:287    .text.get_cycle_value:0000000000000008 .L0 
../Firmware/RISCV/drivers/n200_func.c:72     .text.get_cycle_value:0000000000000008 .L0 
     /tmp/ccX7HQ2N.s:296    .text.get_cycle_value:000000000000000c .L0 
     /tmp/ccX7HQ2N.s:297    .text.get_cycle_value:000000000000000c .L0 
     /tmp/ccX7HQ2N.s:300    .text.get_cycle_value:0000000000000010 .L0 
     /tmp/ccX7HQ2N.s:301    .text.get_cycle_value:0000000000000010 .L0 
     /tmp/ccX7HQ2N.s:302    .text.get_cycle_value:0000000000000012 .L0 
     /tmp/ccX7HQ2N.s:309    .text.measure_cpu_freq:0000000000000000 measure_cpu_freq
     /tmp/ccX7HQ2N.s:312    .text.measure_cpu_freq:0000000000000000 .L0 
     /tmp/ccX7HQ2N.s:314    .text.measure_cpu_freq:0000000000000000 .L0 
     /tmp/ccX7HQ2N.s:315    .text.measure_cpu_freq:0000000000000000 .L0 
     /tmp/ccX7HQ2N.s:318    .text.measure_cpu_freq:0000000000000000 .L0 
     /tmp/ccX7HQ2N.s:319    .text.measure_cpu_freq:0000000000000000 .L0 
     /tmp/ccX7HQ2N.s:320    .text.measure_cpu_freq:0000000000000000 .L0 
     /tmp/ccX7HQ2N.s:327    .text.measure_cpu_freq:0000000000000008 .L0 
     /tmp/ccX7HQ2N.s:334    .text.measure_cpu_freq:000000000000000e .L0 
     /tmp/ccX7HQ2N.s:341    .text.measure_cpu_freq:0000000000000010 .L0 
GAS LISTING /tmp/ccX7HQ2N.s 			page 43


     /tmp/ccX7HQ2N.s:345    .text.measure_cpu_freq:0000000000000010 .L0 
     /tmp/ccX7HQ2N.s:346    .text.measure_cpu_freq:0000000000000010 .L0 
     /tmp/ccX7HQ2N.s:349    .text.measure_cpu_freq:0000000000000010 .L0 
     /tmp/ccX7HQ2N.s:350    .text.measure_cpu_freq:0000000000000010 .L0 
     /tmp/ccX7HQ2N.s:351    .text.measure_cpu_freq:0000000000000010 .L0 
     /tmp/ccX7HQ2N.s:356    .text.measure_cpu_freq:0000000000000012 .L0 
     /tmp/ccX7HQ2N.s:357    .text.measure_cpu_freq:0000000000000012 .L0 
     /tmp/ccX7HQ2N.s:360    .text.measure_cpu_freq:0000000000000016 .L0 
     /tmp/ccX7HQ2N.s:361    .text.measure_cpu_freq:0000000000000016 .L0 
../Firmware/RISCV/drivers/n200_func.c:88     .text.measure_cpu_freq:0000000000000016 .L0 
     /tmp/ccX7HQ2N.s:372    .text.measure_cpu_freq:000000000000001a .L0 
     /tmp/ccX7HQ2N.s:373    .text.measure_cpu_freq:000000000000001a .L0 
     /tmp/ccX7HQ2N.s:379    .text.measure_cpu_freq:000000000000001e .L0 
     /tmp/ccX7HQ2N.s:382    .text.measure_cpu_freq:000000000000001e .L0 
     /tmp/ccX7HQ2N.s:383    .text.measure_cpu_freq:000000000000001e .L0 
     /tmp/ccX7HQ2N.s:384    .text.measure_cpu_freq:000000000000001e .L0 
     /tmp/ccX7HQ2N.s:388    .text.measure_cpu_freq:0000000000000020 .L0 
     /tmp/ccX7HQ2N.s:391    .text.measure_cpu_freq:0000000000000022 .L0 
     /tmp/ccX7HQ2N.s:392    .text.measure_cpu_freq:0000000000000022 .L0 
     /tmp/ccX7HQ2N.s:395    .text.measure_cpu_freq:0000000000000026 .L0 
     /tmp/ccX7HQ2N.s:396    .text.measure_cpu_freq:0000000000000026 .L0 
../Firmware/RISCV/drivers/n200_func.c:94     .text.measure_cpu_freq:0000000000000026 .L0 
     /tmp/ccX7HQ2N.s:405    .text.measure_cpu_freq:000000000000002a .L0 
     /tmp/ccX7HQ2N.s:406    .text.measure_cpu_freq:000000000000002a .L0 
     /tmp/ccX7HQ2N.s:409    .text.measure_cpu_freq:000000000000002c .L0 
     /tmp/ccX7HQ2N.s:410    .text.measure_cpu_freq:000000000000002c .L0 
     /tmp/ccX7HQ2N.s:413    .text.measure_cpu_freq:0000000000000030 .L0 
     /tmp/ccX7HQ2N.s:416    .text.measure_cpu_freq:0000000000000034 .L0 
     /tmp/ccX7HQ2N.s:418    .text.measure_cpu_freq:0000000000000038 .L0 
     /tmp/ccX7HQ2N.s:421    .text.measure_cpu_freq:000000000000003c .L0 
     /tmp/ccX7HQ2N.s:423    .text.measure_cpu_freq:0000000000000040 .L0 
     /tmp/ccX7HQ2N.s:425    .text.measure_cpu_freq:0000000000000044 .L0 
     /tmp/ccX7HQ2N.s:432    .text.get_cpu_freq:0000000000000000 get_cpu_freq
     /tmp/ccX7HQ2N.s:435    .text.get_cpu_freq:0000000000000000 .L0 
     /tmp/ccX7HQ2N.s:436    .text.get_cpu_freq:0000000000000000 .L0 
     /tmp/ccX7HQ2N.s:437    .text.get_cpu_freq:0000000000000000 .L0 
     /tmp/ccX7HQ2N.s:438    .text.get_cpu_freq:0000000000000000 .L0 
     /tmp/ccX7HQ2N.s:439    .text.get_cpu_freq:0000000000000000 .L0 
     /tmp/ccX7HQ2N.s:441    .text.get_cpu_freq:0000000000000002 .L0 
     /tmp/ccX7HQ2N.s:443    .text.get_cpu_freq:0000000000000002 .L0 
     /tmp/ccX7HQ2N.s:445    .text.get_cpu_freq:0000000000000004 .L0 
     /tmp/ccX7HQ2N.s:446    .text.get_cpu_freq:0000000000000006 .L0 
     /tmp/ccX7HQ2N.s:448    .text.get_cpu_freq:0000000000000006 .L0 
     /tmp/ccX7HQ2N.s:451    .text.get_cpu_freq:000000000000000e .L0 
     /tmp/ccX7HQ2N.s:452    .text.get_cpu_freq:000000000000000e .L0 
     /tmp/ccX7HQ2N.s:453    .text.get_cpu_freq:0000000000000010 .L0 
     /tmp/ccX7HQ2N.s:455    .text.get_cpu_freq:0000000000000010 .L0 
     /tmp/ccX7HQ2N.s:457    .text.get_cpu_freq:0000000000000014 .L0 
     /tmp/ccX7HQ2N.s:459    .text.get_cpu_freq:0000000000000016 .L0 
     /tmp/ccX7HQ2N.s:461    .text.get_cpu_freq:0000000000000016 .L0 
     /tmp/ccX7HQ2N.s:463    .text.get_cpu_freq:000000000000001e .L0 
     /tmp/ccX7HQ2N.s:470    .text.eclic_init:0000000000000000 eclic_init
     /tmp/ccX7HQ2N.s:473    .text.eclic_init:0000000000000000 .L0 
     /tmp/ccX7HQ2N.s:475    .text.eclic_init:0000000000000000 .L0 
     /tmp/ccX7HQ2N.s:476    .text.eclic_init:0000000000000000 .L0 
     /tmp/ccX7HQ2N.s:477    .text.eclic_init:0000000000000000 .L0 
     /tmp/ccX7HQ2N.s:478    .text.eclic_init:0000000000000000 .L0 
GAS LISTING /tmp/ccX7HQ2N.s 			page 44


     /tmp/ccX7HQ2N.s:481    .text.eclic_init:0000000000000008 .L0 
     /tmp/ccX7HQ2N.s:482    .text.eclic_init:0000000000000008 .L0 
     /tmp/ccX7HQ2N.s:485    .text.eclic_init:000000000000000a .L0 
     /tmp/ccX7HQ2N.s:487    .text.eclic_init:000000000000000e .L0 
     /tmp/ccX7HQ2N.s:489    .text.eclic_init:0000000000000012 .L0 
     /tmp/ccX7HQ2N.s:491    .text.eclic_init:0000000000000012 .L0 
     /tmp/ccX7HQ2N.s:492    .text.eclic_init:0000000000000012 .L0 
     /tmp/ccX7HQ2N.s:493    .text.eclic_init:0000000000000012 .L0 
     /tmp/ccX7HQ2N.s:496    .text.eclic_init:0000000000000014 .L0 
     /tmp/ccX7HQ2N.s:497    .text.eclic_init:0000000000000014 .L0 
     /tmp/ccX7HQ2N.s:498    .text.eclic_init:0000000000000014 .L0 
     /tmp/ccX7HQ2N.s:502    .text.eclic_init:0000000000000018 .L0 
     /tmp/ccX7HQ2N.s:503    .text.eclic_init:0000000000000018 .L0 
     /tmp/ccX7HQ2N.s:505    .text.eclic_init:000000000000001c .L0 
     /tmp/ccX7HQ2N.s:506    .text.eclic_init:000000000000001c .L0 
     /tmp/ccX7HQ2N.s:509    .text.eclic_init:000000000000001e .L0 
     /tmp/ccX7HQ2N.s:510    .text.eclic_init:000000000000001e .L0 
     /tmp/ccX7HQ2N.s:514    .text.eclic_init:0000000000000022 .L0 
     /tmp/ccX7HQ2N.s:515    .text.eclic_init:0000000000000024 .L0 
     /tmp/ccX7HQ2N.s:522    .text.eclic_enable_interrupt:0000000000000000 eclic_enable_interrupt
     /tmp/ccX7HQ2N.s:525    .text.eclic_enable_interrupt:0000000000000000 .L0 
     /tmp/ccX7HQ2N.s:527    .text.eclic_enable_interrupt:0000000000000000 .L0 
     /tmp/ccX7HQ2N.s:528    .text.eclic_enable_interrupt:0000000000000000 .L0 
     /tmp/ccX7HQ2N.s:529    .text.eclic_enable_interrupt:0000000000000000 .L0 
     /tmp/ccX7HQ2N.s:532    .text.eclic_enable_interrupt:0000000000000006 .L0 
     /tmp/ccX7HQ2N.s:535    .text.eclic_enable_interrupt:0000000000000008 .L0 
     /tmp/ccX7HQ2N.s:537    .text.eclic_enable_interrupt:000000000000000a .L0 
     /tmp/ccX7HQ2N.s:540    .text.eclic_enable_interrupt:0000000000000010 .L0 
     /tmp/ccX7HQ2N.s:541    .text.eclic_enable_interrupt:0000000000000012 .L0 
     /tmp/ccX7HQ2N.s:548    .text.eclic_disable_interrupt:0000000000000000 eclic_disable_interrupt
     /tmp/ccX7HQ2N.s:551    .text.eclic_disable_interrupt:0000000000000000 .L0 
     /tmp/ccX7HQ2N.s:553    .text.eclic_disable_interrupt:0000000000000000 .L0 
     /tmp/ccX7HQ2N.s:554    .text.eclic_disable_interrupt:0000000000000000 .L0 
     /tmp/ccX7HQ2N.s:555    .text.eclic_disable_interrupt:0000000000000000 .L0 
     /tmp/ccX7HQ2N.s:557    .text.eclic_disable_interrupt:0000000000000004 .L0 
     /tmp/ccX7HQ2N.s:560    .text.eclic_disable_interrupt:0000000000000006 .L0 
     /tmp/ccX7HQ2N.s:563    .text.eclic_disable_interrupt:000000000000000a .L0 
     /tmp/ccX7HQ2N.s:565    .text.eclic_disable_interrupt:000000000000000e .L0 
     /tmp/ccX7HQ2N.s:566    .text.eclic_disable_interrupt:0000000000000010 .L0 
     /tmp/ccX7HQ2N.s:573    .text.eclic_set_pending:0000000000000000 eclic_set_pending
     /tmp/ccX7HQ2N.s:576    .text.eclic_set_pending:0000000000000000 .L0 
     /tmp/ccX7HQ2N.s:578    .text.eclic_set_pending:0000000000000000 .L0 
     /tmp/ccX7HQ2N.s:579    .text.eclic_set_pending:0000000000000000 .L0 
     /tmp/ccX7HQ2N.s:580    .text.eclic_set_pending:0000000000000000 .L0 
     /tmp/ccX7HQ2N.s:587    .text.eclic_set_pending:000000000000000c .L0 
     /tmp/ccX7HQ2N.s:590    .text.eclic_set_pending:0000000000000012 .L0 
     /tmp/ccX7HQ2N.s:591    .text.eclic_set_pending:0000000000000014 .L0 
     /tmp/ccX7HQ2N.s:598    .text.eclic_clear_pending:0000000000000000 eclic_clear_pending
     /tmp/ccX7HQ2N.s:601    .text.eclic_clear_pending:0000000000000000 .L0 
     /tmp/ccX7HQ2N.s:603    .text.eclic_clear_pending:0000000000000000 .L0 
     /tmp/ccX7HQ2N.s:604    .text.eclic_clear_pending:0000000000000000 .L0 
     /tmp/ccX7HQ2N.s:605    .text.eclic_clear_pending:0000000000000000 .L0 
     /tmp/ccX7HQ2N.s:612    .text.eclic_clear_pending:000000000000000c .L0 
     /tmp/ccX7HQ2N.s:614    .text.eclic_clear_pending:0000000000000010 .L0 
     /tmp/ccX7HQ2N.s:615    .text.eclic_clear_pending:0000000000000012 .L0 
     /tmp/ccX7HQ2N.s:622    .text.eclic_set_intctrl:0000000000000000 eclic_set_intctrl
     /tmp/ccX7HQ2N.s:625    .text.eclic_set_intctrl:0000000000000000 .L0 
GAS LISTING /tmp/ccX7HQ2N.s 			page 45


     /tmp/ccX7HQ2N.s:627    .text.eclic_set_intctrl:0000000000000000 .L0 
     /tmp/ccX7HQ2N.s:628    .text.eclic_set_intctrl:0000000000000000 .L0 
     /tmp/ccX7HQ2N.s:629    .text.eclic_set_intctrl:0000000000000000 .L0 
     /tmp/ccX7HQ2N.s:631    .text.eclic_set_intctrl:0000000000000004 .L0 
     /tmp/ccX7HQ2N.s:634    .text.eclic_set_intctrl:0000000000000006 .L0 
     /tmp/ccX7HQ2N.s:637    .text.eclic_set_intctrl:000000000000000a .L0 
     /tmp/ccX7HQ2N.s:639    .text.eclic_set_intctrl:000000000000000e .L0 
     /tmp/ccX7HQ2N.s:640    .text.eclic_set_intctrl:0000000000000010 .L0 
     /tmp/ccX7HQ2N.s:647    .text.eclic_get_intctrl:0000000000000000 eclic_get_intctrl
     /tmp/ccX7HQ2N.s:650    .text.eclic_get_intctrl:0000000000000000 .L0 
     /tmp/ccX7HQ2N.s:652    .text.eclic_get_intctrl:0000000000000000 .L0 
     /tmp/ccX7HQ2N.s:653    .text.eclic_get_intctrl:0000000000000000 .L0 
     /tmp/ccX7HQ2N.s:654    .text.eclic_get_intctrl:0000000000000000 .L0 
     /tmp/ccX7HQ2N.s:657    .text.eclic_get_intctrl:0000000000000006 .L0 
     /tmp/ccX7HQ2N.s:660    .text.eclic_get_intctrl:0000000000000008 .L0 
     /tmp/ccX7HQ2N.s:662    .text.eclic_get_intctrl:000000000000000a .L0 
     /tmp/ccX7HQ2N.s:664    .text.eclic_get_intctrl:000000000000000e .L0 
     /tmp/ccX7HQ2N.s:666    .text.eclic_get_intctrl:0000000000000014 .L0 
     /tmp/ccX7HQ2N.s:673    .text.eclic_set_intattr:0000000000000000 eclic_set_intattr
     /tmp/ccX7HQ2N.s:676    .text.eclic_set_intattr:0000000000000000 .L0 
     /tmp/ccX7HQ2N.s:678    .text.eclic_set_intattr:0000000000000000 .L0 
     /tmp/ccX7HQ2N.s:679    .text.eclic_set_intattr:0000000000000000 .L0 
     /tmp/ccX7HQ2N.s:680    .text.eclic_set_intattr:0000000000000000 .L0 
     /tmp/ccX7HQ2N.s:682    .text.eclic_set_intattr:0000000000000004 .L0 
     /tmp/ccX7HQ2N.s:685    .text.eclic_set_intattr:0000000000000006 .L0 
     /tmp/ccX7HQ2N.s:688    .text.eclic_set_intattr:000000000000000a .L0 
     /tmp/ccX7HQ2N.s:690    .text.eclic_set_intattr:000000000000000e .L0 
     /tmp/ccX7HQ2N.s:691    .text.eclic_set_intattr:0000000000000010 .L0 
     /tmp/ccX7HQ2N.s:698    .text.eclic_get_intattr:0000000000000000 eclic_get_intattr
     /tmp/ccX7HQ2N.s:701    .text.eclic_get_intattr:0000000000000000 .L0 
     /tmp/ccX7HQ2N.s:703    .text.eclic_get_intattr:0000000000000000 .L0 
     /tmp/ccX7HQ2N.s:704    .text.eclic_get_intattr:0000000000000000 .L0 
     /tmp/ccX7HQ2N.s:705    .text.eclic_get_intattr:0000000000000000 .L0 
     /tmp/ccX7HQ2N.s:708    .text.eclic_get_intattr:0000000000000006 .L0 
     /tmp/ccX7HQ2N.s:711    .text.eclic_get_intattr:0000000000000008 .L0 
     /tmp/ccX7HQ2N.s:713    .text.eclic_get_intattr:000000000000000a .L0 
     /tmp/ccX7HQ2N.s:715    .text.eclic_get_intattr:000000000000000e .L0 
     /tmp/ccX7HQ2N.s:717    .text.eclic_get_intattr:0000000000000014 .L0 
     /tmp/ccX7HQ2N.s:724    .text.eclic_set_cliccfg:0000000000000000 eclic_set_cliccfg
     /tmp/ccX7HQ2N.s:727    .text.eclic_set_cliccfg:0000000000000000 .L0 
     /tmp/ccX7HQ2N.s:729    .text.eclic_set_cliccfg:0000000000000000 .L0 
     /tmp/ccX7HQ2N.s:730    .text.eclic_set_cliccfg:0000000000000000 .L0 
     /tmp/ccX7HQ2N.s:731    .text.eclic_set_cliccfg:0000000000000000 .L0 
     /tmp/ccX7HQ2N.s:734    .text.eclic_set_cliccfg:0000000000000008 .L0 
     /tmp/ccX7HQ2N.s:735    .text.eclic_set_cliccfg:000000000000000a .L0 
     /tmp/ccX7HQ2N.s:742    .text.eclic_get_cliccfg:0000000000000000 eclic_get_cliccfg
     /tmp/ccX7HQ2N.s:745    .text.eclic_get_cliccfg:0000000000000000 .L0 
     /tmp/ccX7HQ2N.s:746    .text.eclic_get_cliccfg:0000000000000000 .L0 
     /tmp/ccX7HQ2N.s:747    .text.eclic_get_cliccfg:0000000000000000 .L0 
     /tmp/ccX7HQ2N.s:748    .text.eclic_get_cliccfg:0000000000000000 .L0 
     /tmp/ccX7HQ2N.s:751    .text.eclic_get_cliccfg:0000000000000008 .L0 
     /tmp/ccX7HQ2N.s:753    .text.eclic_get_cliccfg:000000000000000e .L0 
     /tmp/ccX7HQ2N.s:760    .text.eclic_set_mth:0000000000000000 eclic_set_mth
     /tmp/ccX7HQ2N.s:763    .text.eclic_set_mth:0000000000000000 .L0 
     /tmp/ccX7HQ2N.s:765    .text.eclic_set_mth:0000000000000000 .L0 
     /tmp/ccX7HQ2N.s:766    .text.eclic_set_mth:0000000000000000 .L0 
     /tmp/ccX7HQ2N.s:767    .text.eclic_set_mth:0000000000000000 .L0 
GAS LISTING /tmp/ccX7HQ2N.s 			page 46


     /tmp/ccX7HQ2N.s:770    .text.eclic_set_mth:0000000000000008 .L0 
     /tmp/ccX7HQ2N.s:771    .text.eclic_set_mth:000000000000000a .L0 
     /tmp/ccX7HQ2N.s:778    .text.eclic_get_mth:0000000000000000 eclic_get_mth
     /tmp/ccX7HQ2N.s:781    .text.eclic_get_mth:0000000000000000 .L0 
     /tmp/ccX7HQ2N.s:782    .text.eclic_get_mth:0000000000000000 .L0 
     /tmp/ccX7HQ2N.s:783    .text.eclic_get_mth:0000000000000000 .L0 
     /tmp/ccX7HQ2N.s:784    .text.eclic_get_mth:0000000000000000 .L0 
     /tmp/ccX7HQ2N.s:787    .text.eclic_get_mth:0000000000000008 .L0 
     /tmp/ccX7HQ2N.s:789    .text.eclic_get_mth:000000000000000e .L0 
     /tmp/ccX7HQ2N.s:796    .text.eclic_set_nlbits:0000000000000000 eclic_set_nlbits
     /tmp/ccX7HQ2N.s:799    .text.eclic_set_nlbits:0000000000000000 .L0 
     /tmp/ccX7HQ2N.s:801    .text.eclic_set_nlbits:0000000000000000 .L0 
     /tmp/ccX7HQ2N.s:804    .text.eclic_set_nlbits:0000000000000000 .L0 
     /tmp/ccX7HQ2N.s:805    .text.eclic_set_nlbits:0000000000000000 .L0 
     /tmp/ccX7HQ2N.s:813    .text.eclic_set_nlbits:0000000000000008 .L0 
     /tmp/ccX7HQ2N.s:816    .text.eclic_set_nlbits:0000000000000008 .L0 
     /tmp/ccX7HQ2N.s:817    .text.eclic_set_nlbits:0000000000000008 .L0 
     /tmp/ccX7HQ2N.s:818    .text.eclic_set_nlbits:0000000000000008 .L0 
     /tmp/ccX7HQ2N.s:821    .text.eclic_set_nlbits:000000000000000a .L0 
     /tmp/ccX7HQ2N.s:823    .text.eclic_set_nlbits:000000000000000c .L0 
     /tmp/ccX7HQ2N.s:826    .text.eclic_set_nlbits:0000000000000010 .L0 
     /tmp/ccX7HQ2N.s:831    .text.eclic_set_nlbits:0000000000000012 .L0 
     /tmp/ccX7HQ2N.s:832    .text.eclic_set_nlbits:0000000000000012 .L0 
     /tmp/ccX7HQ2N.s:833    .text.eclic_set_nlbits:0000000000000012 .L0 
     /tmp/ccX7HQ2N.s:838    .text.eclic_set_nlbits:0000000000000016 .L0 
     /tmp/ccX7HQ2N.s:839    .text.eclic_set_nlbits:0000000000000018 .L0 
     /tmp/ccX7HQ2N.s:846    .text.eclic_get_nlbits:0000000000000000 eclic_get_nlbits
     /tmp/ccX7HQ2N.s:849    .text.eclic_get_nlbits:0000000000000000 .L0 
     /tmp/ccX7HQ2N.s:850    .text.eclic_get_nlbits:0000000000000000 .L0 
     /tmp/ccX7HQ2N.s:853    .text.eclic_get_nlbits:0000000000000000 .L0 
     /tmp/ccX7HQ2N.s:854    .text.eclic_get_nlbits:0000000000000000 .L0 
     /tmp/ccX7HQ2N.s:855    .text.eclic_get_nlbits:0000000000000000 .L0 
     /tmp/ccX7HQ2N.s:861    .text.eclic_get_nlbits:0000000000000008 .L0 
     /tmp/ccX7HQ2N.s:862    .text.eclic_get_nlbits:0000000000000008 .L0 
     /tmp/ccX7HQ2N.s:863    .text.eclic_get_nlbits:0000000000000008 .L0 
     /tmp/ccX7HQ2N.s:866    .text.eclic_get_nlbits:000000000000000a .L0 
     /tmp/ccX7HQ2N.s:868    .text.eclic_get_nlbits:000000000000000e .L0 
     /tmp/ccX7HQ2N.s:875    .text.eclic_set_irq_lvl:0000000000000000 eclic_set_irq_lvl
     /tmp/ccX7HQ2N.s:878    .text.eclic_set_irq_lvl:0000000000000000 .L0 
     /tmp/ccX7HQ2N.s:880    .text.eclic_set_irq_lvl:0000000000000000 .L0 
     /tmp/ccX7HQ2N.s:883    .text.eclic_set_irq_lvl:0000000000000000 .L0 
     /tmp/ccX7HQ2N.s:886    .text.eclic_set_irq_lvl:0000000000000000 .L0 
     /tmp/ccX7HQ2N.s:887    .text.eclic_set_irq_lvl:0000000000000000 .L0 
     /tmp/ccX7HQ2N.s:888    .text.eclic_set_irq_lvl:0000000000000000 .L0 
     /tmp/ccX7HQ2N.s:894    .text.eclic_set_irq_lvl:0000000000000008 .L0 
     /tmp/ccX7HQ2N.s:897    .text.eclic_set_irq_lvl:0000000000000008 .L0 
     /tmp/ccX7HQ2N.s:898    .text.eclic_set_irq_lvl:0000000000000008 .L0 
     /tmp/ccX7HQ2N.s:899    .text.eclic_set_irq_lvl:0000000000000008 .L0 
     /tmp/ccX7HQ2N.s:900    .text.eclic_set_irq_lvl:0000000000000008 .L0 
     /tmp/ccX7HQ2N.s:904    .text.eclic_set_irq_lvl:000000000000000a .L0 
     /tmp/ccX7HQ2N.s:907    .text.eclic_set_irq_lvl:000000000000000c .L0 
     /tmp/ccX7HQ2N.s:911    .text.eclic_set_irq_lvl:000000000000000e .L0 
     /tmp/ccX7HQ2N.s:918    .text.eclic_set_irq_lvl:0000000000000016 .L0 
     /tmp/ccX7HQ2N.s:921    .text.eclic_set_irq_lvl:000000000000001c .L0 
     /tmp/ccX7HQ2N.s:924    .text.eclic_set_irq_lvl:000000000000001e .L0 
     /tmp/ccX7HQ2N.s:926    .text.eclic_set_irq_lvl:0000000000000020 .L0 
     /tmp/ccX7HQ2N.s:930    .text.eclic_set_irq_lvl:0000000000000024 .L0 
GAS LISTING /tmp/ccX7HQ2N.s 			page 47


     /tmp/ccX7HQ2N.s:935    .text.eclic_set_irq_lvl:000000000000002c .L0 
     /tmp/ccX7HQ2N.s:936    .text.eclic_set_irq_lvl:000000000000002c .L0 
     /tmp/ccX7HQ2N.s:938    .text.eclic_set_irq_lvl:0000000000000030 .L0 
     /tmp/ccX7HQ2N.s:941    .text.eclic_set_irq_lvl:0000000000000034 .L0 
     /tmp/ccX7HQ2N.s:943    .text.eclic_set_irq_lvl:0000000000000038 .L0 
     /tmp/ccX7HQ2N.s:948    .text.eclic_set_irq_lvl:000000000000003c .L0 
     /tmp/ccX7HQ2N.s:951    .text.eclic_set_irq_lvl:000000000000003c .L0 
     /tmp/ccX7HQ2N.s:952    .text.eclic_set_irq_lvl:000000000000003c .L0 
     /tmp/ccX7HQ2N.s:953    .text.eclic_set_irq_lvl:000000000000003c .L0 
     /tmp/ccX7HQ2N.s:954    .text.eclic_set_irq_lvl:000000000000003c .L0 
     /tmp/ccX7HQ2N.s:955    .text.eclic_set_irq_lvl:000000000000003c .L0 
     /tmp/ccX7HQ2N.s:957    .text.eclic_set_irq_lvl:0000000000000040 .L0 
     /tmp/ccX7HQ2N.s:963    .text.eclic_set_irq_lvl:0000000000000046 .L0 
     /tmp/ccX7HQ2N.s:964    .text.eclic_set_irq_lvl:0000000000000046 .L0 
     /tmp/ccX7HQ2N.s:969    .text.eclic_set_irq_lvl:000000000000004a .L0 
     /tmp/ccX7HQ2N.s:970    .text.eclic_set_irq_lvl:000000000000004c .L0 
     /tmp/ccX7HQ2N.s:977    .text.eclic_get_irq_lvl:0000000000000000 eclic_get_irq_lvl
     /tmp/ccX7HQ2N.s:980    .text.eclic_get_irq_lvl:0000000000000000 .L0 
     /tmp/ccX7HQ2N.s:982    .text.eclic_get_irq_lvl:0000000000000000 .L0 
     /tmp/ccX7HQ2N.s:985    .text.eclic_get_irq_lvl:0000000000000000 .L0 
     /tmp/ccX7HQ2N.s:988    .text.eclic_get_irq_lvl:0000000000000000 .L0 
     /tmp/ccX7HQ2N.s:989    .text.eclic_get_irq_lvl:0000000000000000 .L0 
     /tmp/ccX7HQ2N.s:990    .text.eclic_get_irq_lvl:0000000000000000 .L0 
     /tmp/ccX7HQ2N.s:998    .text.eclic_get_irq_lvl:0000000000000004 .L0 
     /tmp/ccX7HQ2N.s:1006   .text.eclic_get_irq_lvl:0000000000000008 .L0 
     /tmp/ccX7HQ2N.s:1011   .text.eclic_get_irq_lvl:000000000000000c .L0 
     /tmp/ccX7HQ2N.s:1014   .text.eclic_get_irq_lvl:000000000000000c .L0 
     /tmp/ccX7HQ2N.s:1015   .text.eclic_get_irq_lvl:000000000000000c .L0 
     /tmp/ccX7HQ2N.s:1018   .text.eclic_get_irq_lvl:000000000000000c .L0 
     /tmp/ccX7HQ2N.s:1019   .text.eclic_get_irq_lvl:000000000000000c .L0 
     /tmp/ccX7HQ2N.s:1020   .text.eclic_get_irq_lvl:000000000000000c .L0 
     /tmp/ccX7HQ2N.s:1022   .text.eclic_get_irq_lvl:000000000000000e .L0 
     /tmp/ccX7HQ2N.s:1025   .text.eclic_get_irq_lvl:0000000000000010 .L0 
     /tmp/ccX7HQ2N.s:1027   .text.eclic_get_irq_lvl:0000000000000012 .L0 
     /tmp/ccX7HQ2N.s:1033   .text.eclic_get_irq_lvl:0000000000000016 .L0 
     /tmp/ccX7HQ2N.s:1036   .text.eclic_get_irq_lvl:0000000000000018 .L0 
     /tmp/ccX7HQ2N.s:1040   .text.eclic_get_irq_lvl:000000000000001a .L0 
     /tmp/ccX7HQ2N.s:1044   .text.eclic_get_irq_lvl:000000000000001c .L0 
     /tmp/ccX7HQ2N.s:1049   .text.eclic_get_irq_lvl:0000000000000020 .L0 
     /tmp/ccX7HQ2N.s:1050   .text.eclic_get_irq_lvl:0000000000000020 .L0 
     /tmp/ccX7HQ2N.s:1058   .text.eclic_get_irq_lvl:000000000000002e .L0 
     /tmp/ccX7HQ2N.s:1059   .text.eclic_get_irq_lvl:000000000000002e .L0 
     /tmp/ccX7HQ2N.s:1060   .text.eclic_get_irq_lvl:000000000000002e .L0 
     /tmp/ccX7HQ2N.s:1063   .text.eclic_get_irq_lvl:0000000000000032 .L0 
     /tmp/ccX7HQ2N.s:1065   .text.eclic_get_irq_lvl:0000000000000036 .L0 
     /tmp/ccX7HQ2N.s:1067   .text.eclic_get_irq_lvl:000000000000003c .L0 
     /tmp/ccX7HQ2N.s:1074   .text.eclic_set_irq_lvl_abs:0000000000000000 eclic_set_irq_lvl_abs
     /tmp/ccX7HQ2N.s:1077   .text.eclic_set_irq_lvl_abs:0000000000000000 .L0 
     /tmp/ccX7HQ2N.s:1079   .text.eclic_set_irq_lvl_abs:0000000000000000 .L0 
     /tmp/ccX7HQ2N.s:1082   .text.eclic_set_irq_lvl_abs:0000000000000000 .L0 
     /tmp/ccX7HQ2N.s:1085   .text.eclic_set_irq_lvl_abs:0000000000000000 .L0 
     /tmp/ccX7HQ2N.s:1086   .text.eclic_set_irq_lvl_abs:0000000000000000 .L0 
     /tmp/ccX7HQ2N.s:1087   .text.eclic_set_irq_lvl_abs:0000000000000000 .L0 
     /tmp/ccX7HQ2N.s:1093   .text.eclic_set_irq_lvl_abs:0000000000000008 .L0 
     /tmp/ccX7HQ2N.s:1096   .text.eclic_set_irq_lvl_abs:0000000000000008 .L0 
     /tmp/ccX7HQ2N.s:1097   .text.eclic_set_irq_lvl_abs:0000000000000008 .L0 
     /tmp/ccX7HQ2N.s:1098   .text.eclic_set_irq_lvl_abs:0000000000000008 .L0 
GAS LISTING /tmp/ccX7HQ2N.s 			page 48


     /tmp/ccX7HQ2N.s:1099   .text.eclic_set_irq_lvl_abs:0000000000000008 .L0 
     /tmp/ccX7HQ2N.s:1103   .text.eclic_set_irq_lvl_abs:000000000000000a .L0 
     /tmp/ccX7HQ2N.s:1106   .text.eclic_set_irq_lvl_abs:000000000000000c .L0 
     /tmp/ccX7HQ2N.s:1110   .text.eclic_set_irq_lvl_abs:000000000000000e .L0 
     /tmp/ccX7HQ2N.s:1117   .text.eclic_set_irq_lvl_abs:0000000000000016 .L0 
     /tmp/ccX7HQ2N.s:1120   .text.eclic_set_irq_lvl_abs:000000000000001c .L0 
     /tmp/ccX7HQ2N.s:1123   .text.eclic_set_irq_lvl_abs:000000000000001e .L0 
     /tmp/ccX7HQ2N.s:1125   .text.eclic_set_irq_lvl_abs:0000000000000020 .L0 
     /tmp/ccX7HQ2N.s:1129   .text.eclic_set_irq_lvl_abs:0000000000000024 .L0 
     /tmp/ccX7HQ2N.s:1134   .text.eclic_set_irq_lvl_abs:0000000000000028 .L0 
     /tmp/ccX7HQ2N.s:1137   .text.eclic_set_irq_lvl_abs:0000000000000028 .L0 
     /tmp/ccX7HQ2N.s:1138   .text.eclic_set_irq_lvl_abs:0000000000000028 .L0 
     /tmp/ccX7HQ2N.s:1139   .text.eclic_set_irq_lvl_abs:0000000000000028 .L0 
     /tmp/ccX7HQ2N.s:1140   .text.eclic_set_irq_lvl_abs:0000000000000028 .L0 
     /tmp/ccX7HQ2N.s:1141   .text.eclic_set_irq_lvl_abs:0000000000000028 .L0 
     /tmp/ccX7HQ2N.s:1143   .text.eclic_set_irq_lvl_abs:000000000000002a .L0 
     /tmp/ccX7HQ2N.s:1146   .text.eclic_set_irq_lvl_abs:000000000000002e .L0 
     /tmp/ccX7HQ2N.s:1148   .text.eclic_set_irq_lvl_abs:0000000000000032 .L0 
     /tmp/ccX7HQ2N.s:1150   .text.eclic_set_irq_lvl_abs:0000000000000034 .L0 
     /tmp/ccX7HQ2N.s:1152   .text.eclic_set_irq_lvl_abs:0000000000000038 .L0 
     /tmp/ccX7HQ2N.s:1155   .text.eclic_set_irq_lvl_abs:000000000000003c .L0 
     /tmp/ccX7HQ2N.s:1161   .text.eclic_set_irq_lvl_abs:0000000000000042 .L0 
     /tmp/ccX7HQ2N.s:1162   .text.eclic_set_irq_lvl_abs:0000000000000042 .L0 
     /tmp/ccX7HQ2N.s:1167   .text.eclic_set_irq_lvl_abs:0000000000000046 .L0 
     /tmp/ccX7HQ2N.s:1168   .text.eclic_set_irq_lvl_abs:0000000000000048 .L0 
     /tmp/ccX7HQ2N.s:1175   .text.eclic_get_irq_lvl_abs:0000000000000000 eclic_get_irq_lvl_abs
     /tmp/ccX7HQ2N.s:1178   .text.eclic_get_irq_lvl_abs:0000000000000000 .L0 
     /tmp/ccX7HQ2N.s:1180   .text.eclic_get_irq_lvl_abs:0000000000000000 .L0 
     /tmp/ccX7HQ2N.s:1183   .text.eclic_get_irq_lvl_abs:0000000000000000 .L0 
     /tmp/ccX7HQ2N.s:1186   .text.eclic_get_irq_lvl_abs:0000000000000000 .L0 
     /tmp/ccX7HQ2N.s:1187   .text.eclic_get_irq_lvl_abs:0000000000000000 .L0 
     /tmp/ccX7HQ2N.s:1188   .text.eclic_get_irq_lvl_abs:0000000000000000 .L0 
     /tmp/ccX7HQ2N.s:1196   .text.eclic_get_irq_lvl_abs:0000000000000004 .L0 
     /tmp/ccX7HQ2N.s:1204   .text.eclic_get_irq_lvl_abs:0000000000000008 .L0 
     /tmp/ccX7HQ2N.s:1209   .text.eclic_get_irq_lvl_abs:000000000000000c .L0 
     /tmp/ccX7HQ2N.s:1212   .text.eclic_get_irq_lvl_abs:000000000000000c .L0 
     /tmp/ccX7HQ2N.s:1213   .text.eclic_get_irq_lvl_abs:000000000000000c .L0 
     /tmp/ccX7HQ2N.s:1216   .text.eclic_get_irq_lvl_abs:000000000000000c .L0 
     /tmp/ccX7HQ2N.s:1217   .text.eclic_get_irq_lvl_abs:000000000000000c .L0 
     /tmp/ccX7HQ2N.s:1218   .text.eclic_get_irq_lvl_abs:000000000000000c .L0 
     /tmp/ccX7HQ2N.s:1220   .text.eclic_get_irq_lvl_abs:000000000000000e .L0 
     /tmp/ccX7HQ2N.s:1223   .text.eclic_get_irq_lvl_abs:0000000000000010 .L0 
     /tmp/ccX7HQ2N.s:1225   .text.eclic_get_irq_lvl_abs:0000000000000012 .L0 
     /tmp/ccX7HQ2N.s:1231   .text.eclic_get_irq_lvl_abs:0000000000000016 .L0 
     /tmp/ccX7HQ2N.s:1234   .text.eclic_get_irq_lvl_abs:0000000000000018 .L0 
     /tmp/ccX7HQ2N.s:1238   .text.eclic_get_irq_lvl_abs:000000000000001a .L0 
     /tmp/ccX7HQ2N.s:1242   .text.eclic_get_irq_lvl_abs:000000000000001c .L0 
     /tmp/ccX7HQ2N.s:1247   .text.eclic_get_irq_lvl_abs:0000000000000020 .L0 
     /tmp/ccX7HQ2N.s:1248   .text.eclic_get_irq_lvl_abs:0000000000000020 .L0 
     /tmp/ccX7HQ2N.s:1249   .text.eclic_get_irq_lvl_abs:0000000000000020 .L0 
     /tmp/ccX7HQ2N.s:1250   .text.eclic_get_irq_lvl_abs:0000000000000020 .L0 
     /tmp/ccX7HQ2N.s:1257   .text.eclic_get_irq_lvl_abs:0000000000000030 .L0 
     /tmp/ccX7HQ2N.s:1259   .text.eclic_get_irq_lvl_abs:0000000000000034 .L0 
     /tmp/ccX7HQ2N.s:1261   .text.eclic_get_irq_lvl_abs:000000000000003a .L0 
     /tmp/ccX7HQ2N.s:1268   .text.eclic_set_irq_priority:0000000000000000 eclic_set_irq_priority
     /tmp/ccX7HQ2N.s:1271   .text.eclic_set_irq_priority:0000000000000000 .L0 
     /tmp/ccX7HQ2N.s:1273   .text.eclic_set_irq_priority:0000000000000000 .L0 
GAS LISTING /tmp/ccX7HQ2N.s 			page 49


     /tmp/ccX7HQ2N.s:1276   .text.eclic_set_irq_priority:0000000000000000 .L0 
     /tmp/ccX7HQ2N.s:1279   .text.eclic_set_irq_priority:0000000000000000 .L0 
     /tmp/ccX7HQ2N.s:1280   .text.eclic_set_irq_priority:0000000000000000 .L0 
     /tmp/ccX7HQ2N.s:1281   .text.eclic_set_irq_priority:0000000000000000 .L0 
     /tmp/ccX7HQ2N.s:1288   .text.eclic_set_irq_priority:000000000000000c .L0 
     /tmp/ccX7HQ2N.s:1289   .text.eclic_set_irq_priority:000000000000000c .L0 
     /tmp/ccX7HQ2N.s:1294   .text.eclic_set_irq_priority:000000000000000e .L0 
     /tmp/ccX7HQ2N.s:1295   .text.eclic_set_irq_priority:000000000000000e .L0 
     /tmp/ccX7HQ2N.s:1296   .text.eclic_set_irq_priority:000000000000000e .L0 
     /tmp/ccX7HQ2N.s:1301   .text.eclic_set_irq_priority:0000000000000014 .L0 
     /tmp/ccX7HQ2N.s:1302   .text.eclic_set_irq_priority:0000000000000014 .L0 
     /tmp/ccX7HQ2N.s:1304   .text.eclic_set_irq_priority:0000000000000018 .L0 
     /tmp/ccX7HQ2N.s:1307   .text.eclic_set_irq_priority:000000000000001a .L0 
     /tmp/ccX7HQ2N.s:1310   .text.eclic_set_irq_priority:000000000000001e .L0 
     /tmp/ccX7HQ2N.s:1314   .text.eclic_set_irq_priority:0000000000000022 .L0 
     /tmp/ccX7HQ2N.s:1321   .text.eclic_set_irq_priority:000000000000002a .L0 
     /tmp/ccX7HQ2N.s:1325   .text.eclic_set_irq_priority:000000000000002e .L0 
     /tmp/ccX7HQ2N.s:1327   .text.eclic_set_irq_priority:0000000000000032 .L0 
     /tmp/ccX7HQ2N.s:1330   .text.eclic_set_irq_priority:0000000000000034 .L0 
     /tmp/ccX7HQ2N.s:1332   .text.eclic_set_irq_priority:0000000000000038 .L0 
     /tmp/ccX7HQ2N.s:1337   .text.eclic_set_irq_priority:000000000000003c .L0 
     /tmp/ccX7HQ2N.s:1340   .text.eclic_set_irq_priority:000000000000003c .L0 
     /tmp/ccX7HQ2N.s:1341   .text.eclic_set_irq_priority:000000000000003c .L0 
     /tmp/ccX7HQ2N.s:1342   .text.eclic_set_irq_priority:000000000000003c .L0 
     /tmp/ccX7HQ2N.s:1343   .text.eclic_set_irq_priority:000000000000003c .L0 
     /tmp/ccX7HQ2N.s:1344   .text.eclic_set_irq_priority:000000000000003c .L0 
     /tmp/ccX7HQ2N.s:1346   .text.eclic_set_irq_priority:0000000000000040 .L0 
     /tmp/ccX7HQ2N.s:1352   .text.eclic_set_irq_priority:0000000000000046 .L0 
     /tmp/ccX7HQ2N.s:1353   .text.eclic_set_irq_priority:0000000000000046 .L0 
     /tmp/ccX7HQ2N.s:1358   .text.eclic_set_irq_priority:000000000000004a .L0 
     /tmp/ccX7HQ2N.s:1359   .text.eclic_set_irq_priority:000000000000004a .L0 
     /tmp/ccX7HQ2N.s:1363   .text.eclic_set_irq_priority:000000000000004c .L0 
     /tmp/ccX7HQ2N.s:1366   .text.eclic_set_irq_priority:000000000000004e .L0 
     /tmp/ccX7HQ2N.s:1367   .text.eclic_set_irq_priority:0000000000000050 .L0 
     /tmp/ccX7HQ2N.s:1374   .text.eclic_get_irq_priority:0000000000000000 eclic_get_irq_priority
     /tmp/ccX7HQ2N.s:1377   .text.eclic_get_irq_priority:0000000000000000 .L0 
     /tmp/ccX7HQ2N.s:1379   .text.eclic_get_irq_priority:0000000000000000 .L0 
     /tmp/ccX7HQ2N.s:1382   .text.eclic_get_irq_priority:0000000000000000 .L0 
     /tmp/ccX7HQ2N.s:1385   .text.eclic_get_irq_priority:0000000000000000 .L0 
     /tmp/ccX7HQ2N.s:1386   .text.eclic_get_irq_priority:0000000000000000 .L0 
     /tmp/ccX7HQ2N.s:1387   .text.eclic_get_irq_priority:0000000000000000 .L0 
     /tmp/ccX7HQ2N.s:1393   .text.eclic_get_irq_priority:0000000000000008 .L0 
     /tmp/ccX7HQ2N.s:1396   .text.eclic_get_irq_priority:0000000000000008 .L0 
     /tmp/ccX7HQ2N.s:1397   .text.eclic_get_irq_priority:0000000000000008 .L0 
     /tmp/ccX7HQ2N.s:1401   .text.eclic_get_irq_priority:000000000000000a .L0 
     /tmp/ccX7HQ2N.s:1404   .text.eclic_get_irq_priority:000000000000000c .L0 
     /tmp/ccX7HQ2N.s:1414   .text.eclic_get_irq_priority:0000000000000016 .L0 
     /tmp/ccX7HQ2N.s:1416   .text.eclic_get_irq_priority:000000000000001a .L0 
     /tmp/ccX7HQ2N.s:1418   .text.eclic_get_irq_priority:000000000000001e .L0 
     /tmp/ccX7HQ2N.s:1421   .text.eclic_get_irq_priority:0000000000000022 .L0 
     /tmp/ccX7HQ2N.s:1430   .text.eclic_get_irq_priority:000000000000002a .L0 
     /tmp/ccX7HQ2N.s:1433   .text.eclic_get_irq_priority:000000000000002a .L0 
     /tmp/ccX7HQ2N.s:1434   .text.eclic_get_irq_priority:000000000000002a .L0 
     /tmp/ccX7HQ2N.s:1435   .text.eclic_get_irq_priority:000000000000002a .L0 
     /tmp/ccX7HQ2N.s:1436   .text.eclic_get_irq_priority:000000000000002a .L0 
     /tmp/ccX7HQ2N.s:1437   .text.eclic_get_irq_priority:000000000000002a .L0 
     /tmp/ccX7HQ2N.s:1440   .text.eclic_get_irq_priority:000000000000002c .L0 
GAS LISTING /tmp/ccX7HQ2N.s 			page 50


     /tmp/ccX7HQ2N.s:1443   .text.eclic_get_irq_priority:0000000000000030 .L0 
     /tmp/ccX7HQ2N.s:1446   .text.eclic_get_irq_priority:0000000000000038 .L0 
     /tmp/ccX7HQ2N.s:1448   .text.eclic_get_irq_priority:000000000000003e .L0 
     /tmp/ccX7HQ2N.s:1455   .text.eclic_mode_enable:0000000000000000 eclic_mode_enable
     /tmp/ccX7HQ2N.s:1458   .text.eclic_mode_enable:0000000000000000 .L0 
     /tmp/ccX7HQ2N.s:1459   .text.eclic_mode_enable:0000000000000000 .L0 
     /tmp/ccX7HQ2N.s:1461   .text.eclic_mode_enable:0000000000000000 .L0 
     /tmp/ccX7HQ2N.s:1462   .text.eclic_mode_enable:0000000000000000 .L0 
../Firmware/RISCV/drivers/n200_func.c:333    .text.eclic_mode_enable:0000000000000000 .L0 
     /tmp/ccX7HQ2N.s:1471   .text.eclic_mode_enable:0000000000000004 .L0 
     /tmp/ccX7HQ2N.s:1472   .text.eclic_mode_enable:0000000000000004 .L0 
     /tmp/ccX7HQ2N.s:1473   .text.eclic_mode_enable:0000000000000004 .L0 
     /tmp/ccX7HQ2N.s:1476   .text.eclic_mode_enable:0000000000000008 .L0 
     /tmp/ccX7HQ2N.s:1477   .text.eclic_mode_enable:0000000000000008 .L0 
     /tmp/ccX7HQ2N.s:1478   .text.eclic_mode_enable:0000000000000008 .L0 
     /tmp/ccX7HQ2N.s:1479   .text.eclic_mode_enable:0000000000000008 .L0 
../Firmware/RISCV/drivers/n200_func.c:336    .text.eclic_mode_enable:000000000000000c .L0 
     /tmp/ccX7HQ2N.s:1488   .text.eclic_mode_enable:0000000000000010 .L0 
     /tmp/ccX7HQ2N.s:1489   .text.eclic_mode_enable:0000000000000012 .L0 
     /tmp/ccX7HQ2N.s:1496   .text.eclic_set_vmode:0000000000000000 eclic_set_vmode
     /tmp/ccX7HQ2N.s:1499   .text.eclic_set_vmode:0000000000000000 .L0 
     /tmp/ccX7HQ2N.s:1501   .text.eclic_set_vmode:0000000000000000 .L0 
     /tmp/ccX7HQ2N.s:1504   .text.eclic_set_vmode:0000000000000000 .L0 
     /tmp/ccX7HQ2N.s:1505   .text.eclic_set_vmode:0000000000000000 .L0 
     /tmp/ccX7HQ2N.s:1506   .text.eclic_set_vmode:0000000000000000 .L0 
     /tmp/ccX7HQ2N.s:1509   .text.eclic_set_vmode:0000000000000006 .L0 
     /tmp/ccX7HQ2N.s:1512   .text.eclic_set_vmode:0000000000000008 .L0 
     /tmp/ccX7HQ2N.s:1514   .text.eclic_set_vmode:000000000000000a .L0 
     /tmp/ccX7HQ2N.s:1520   .text.eclic_set_vmode:0000000000000012 .L0 
     /tmp/ccX7HQ2N.s:1521   .text.eclic_set_vmode:0000000000000012 .L0 
     /tmp/ccX7HQ2N.s:1526   .text.eclic_set_vmode:0000000000000016 .L0 
     /tmp/ccX7HQ2N.s:1527   .text.eclic_set_vmode:0000000000000016 .L0 
     /tmp/ccX7HQ2N.s:1528   .text.eclic_set_vmode:0000000000000016 .L0 
     /tmp/ccX7HQ2N.s:1533   .text.eclic_set_vmode:000000000000001a .L0 
     /tmp/ccX7HQ2N.s:1534   .text.eclic_set_vmode:000000000000001c .L0 
     /tmp/ccX7HQ2N.s:1541   .text.eclic_set_nonvmode:0000000000000000 eclic_set_nonvmode
     /tmp/ccX7HQ2N.s:1544   .text.eclic_set_nonvmode:0000000000000000 .L0 
     /tmp/ccX7HQ2N.s:1546   .text.eclic_set_nonvmode:0000000000000000 .L0 
     /tmp/ccX7HQ2N.s:1549   .text.eclic_set_nonvmode:0000000000000000 .L0 
     /tmp/ccX7HQ2N.s:1550   .text.eclic_set_nonvmode:0000000000000000 .L0 
     /tmp/ccX7HQ2N.s:1551   .text.eclic_set_nonvmode:0000000000000000 .L0 
     /tmp/ccX7HQ2N.s:1554   .text.eclic_set_nonvmode:0000000000000006 .L0 
     /tmp/ccX7HQ2N.s:1557   .text.eclic_set_nonvmode:0000000000000008 .L0 
     /tmp/ccX7HQ2N.s:1559   .text.eclic_set_nonvmode:000000000000000a .L0 
     /tmp/ccX7HQ2N.s:1564   .text.eclic_set_nonvmode:000000000000000e .L0 
     /tmp/ccX7HQ2N.s:1565   .text.eclic_set_nonvmode:000000000000000e .L0 
     /tmp/ccX7HQ2N.s:1570   .text.eclic_set_nonvmode:0000000000000012 .L0 
     /tmp/ccX7HQ2N.s:1571   .text.eclic_set_nonvmode:0000000000000012 .L0 
     /tmp/ccX7HQ2N.s:1572   .text.eclic_set_nonvmode:0000000000000012 .L0 
     /tmp/ccX7HQ2N.s:1577   .text.eclic_set_nonvmode:0000000000000016 .L0 
     /tmp/ccX7HQ2N.s:1578   .text.eclic_set_nonvmode:0000000000000018 .L0 
     /tmp/ccX7HQ2N.s:1585   .text.eclic_set_level_trig:0000000000000000 eclic_set_level_trig
     /tmp/ccX7HQ2N.s:1588   .text.eclic_set_level_trig:0000000000000000 .L0 
     /tmp/ccX7HQ2N.s:1590   .text.eclic_set_level_trig:0000000000000000 .L0 
     /tmp/ccX7HQ2N.s:1593   .text.eclic_set_level_trig:0000000000000000 .L0 
     /tmp/ccX7HQ2N.s:1594   .text.eclic_set_level_trig:0000000000000000 .L0 
     /tmp/ccX7HQ2N.s:1595   .text.eclic_set_level_trig:0000000000000000 .L0 
GAS LISTING /tmp/ccX7HQ2N.s 			page 51


     /tmp/ccX7HQ2N.s:1598   .text.eclic_set_level_trig:0000000000000006 .L0 
     /tmp/ccX7HQ2N.s:1601   .text.eclic_set_level_trig:0000000000000008 .L0 
     /tmp/ccX7HQ2N.s:1603   .text.eclic_set_level_trig:000000000000000a .L0 
     /tmp/ccX7HQ2N.s:1608   .text.eclic_set_level_trig:000000000000000e .L0 
     /tmp/ccX7HQ2N.s:1609   .text.eclic_set_level_trig:000000000000000e .L0 
     /tmp/ccX7HQ2N.s:1614   .text.eclic_set_level_trig:0000000000000012 .L0 
     /tmp/ccX7HQ2N.s:1615   .text.eclic_set_level_trig:0000000000000012 .L0 
     /tmp/ccX7HQ2N.s:1616   .text.eclic_set_level_trig:0000000000000012 .L0 
     /tmp/ccX7HQ2N.s:1621   .text.eclic_set_level_trig:0000000000000016 .L0 
     /tmp/ccX7HQ2N.s:1622   .text.eclic_set_level_trig:0000000000000018 .L0 
     /tmp/ccX7HQ2N.s:1629   .text.eclic_set_posedge_trig:0000000000000000 eclic_set_posedge_trig
     /tmp/ccX7HQ2N.s:1632   .text.eclic_set_posedge_trig:0000000000000000 .L0 
     /tmp/ccX7HQ2N.s:1634   .text.eclic_set_posedge_trig:0000000000000000 .L0 
     /tmp/ccX7HQ2N.s:1637   .text.eclic_set_posedge_trig:0000000000000000 .L0 
     /tmp/ccX7HQ2N.s:1638   .text.eclic_set_posedge_trig:0000000000000000 .L0 
     /tmp/ccX7HQ2N.s:1639   .text.eclic_set_posedge_trig:0000000000000000 .L0 
     /tmp/ccX7HQ2N.s:1642   .text.eclic_set_posedge_trig:0000000000000006 .L0 
     /tmp/ccX7HQ2N.s:1645   .text.eclic_set_posedge_trig:0000000000000008 .L0 
     /tmp/ccX7HQ2N.s:1647   .text.eclic_set_posedge_trig:000000000000000a .L0 
     /tmp/ccX7HQ2N.s:1652   .text.eclic_set_posedge_trig:000000000000000e .L0 
     /tmp/ccX7HQ2N.s:1653   .text.eclic_set_posedge_trig:000000000000000e .L0 
     /tmp/ccX7HQ2N.s:1654   .text.eclic_set_posedge_trig:000000000000000e .L0 
     /tmp/ccX7HQ2N.s:1659   .text.eclic_set_posedge_trig:0000000000000012 .L0 
     /tmp/ccX7HQ2N.s:1660   .text.eclic_set_posedge_trig:0000000000000012 .L0 
     /tmp/ccX7HQ2N.s:1661   .text.eclic_set_posedge_trig:0000000000000012 .L0 
     /tmp/ccX7HQ2N.s:1666   .text.eclic_set_posedge_trig:0000000000000016 .L0 
     /tmp/ccX7HQ2N.s:1667   .text.eclic_set_posedge_trig:0000000000000018 .L0 
     /tmp/ccX7HQ2N.s:1674   .text.eclic_set_negedge_trig:0000000000000000 eclic_set_negedge_trig
     /tmp/ccX7HQ2N.s:1677   .text.eclic_set_negedge_trig:0000000000000000 .L0 
     /tmp/ccX7HQ2N.s:1679   .text.eclic_set_negedge_trig:0000000000000000 .L0 
     /tmp/ccX7HQ2N.s:1682   .text.eclic_set_negedge_trig:0000000000000000 .L0 
     /tmp/ccX7HQ2N.s:1683   .text.eclic_set_negedge_trig:0000000000000000 .L0 
     /tmp/ccX7HQ2N.s:1684   .text.eclic_set_negedge_trig:0000000000000000 .L0 
     /tmp/ccX7HQ2N.s:1687   .text.eclic_set_negedge_trig:0000000000000006 .L0 
     /tmp/ccX7HQ2N.s:1690   .text.eclic_set_negedge_trig:0000000000000008 .L0 
     /tmp/ccX7HQ2N.s:1692   .text.eclic_set_negedge_trig:000000000000000a .L0 
     /tmp/ccX7HQ2N.s:1698   .text.eclic_set_negedge_trig:0000000000000012 .L0 
     /tmp/ccX7HQ2N.s:1699   .text.eclic_set_negedge_trig:0000000000000012 .L0 
     /tmp/ccX7HQ2N.s:1700   .text.eclic_set_negedge_trig:0000000000000012 .L0 
     /tmp/ccX7HQ2N.s:1705   .text.eclic_set_negedge_trig:0000000000000016 .L0 
     /tmp/ccX7HQ2N.s:1706   .text.eclic_set_negedge_trig:0000000000000016 .L0 
     /tmp/ccX7HQ2N.s:1707   .text.eclic_set_negedge_trig:0000000000000016 .L0 
     /tmp/ccX7HQ2N.s:1712   .text.eclic_set_negedge_trig:000000000000001a .L0 
     /tmp/ccX7HQ2N.s:1713   .text.eclic_set_negedge_trig:000000000000001c .L0 
     /tmp/ccX7HQ2N.s:41     .text.pmp_open_all_space:0000000000000012 .L0 
     /tmp/ccX7HQ2N.s:87     .text.switch_m2u_mode:000000000000001c .L0 
     /tmp/ccX7HQ2N.s:104    .text.mtime_lo:0000000000000008 .L0 
     /tmp/ccX7HQ2N.s:121    .text.mtime_hi:0000000000000008 .L0 
     /tmp/ccX7HQ2N.s:175    .text.get_timer_value:0000000000000010 .L0 
     /tmp/ccX7HQ2N.s:193    .text.get_timer_freq:000000000000000c .L0 
     /tmp/ccX7HQ2N.s:249    .text.get_instret_value:0000000000000012 .L0 
     /tmp/ccX7HQ2N.s:305    .text.get_cycle_value:0000000000000012 .L0 
     /tmp/ccX7HQ2N.s:428    .text.measure_cpu_freq:0000000000000044 .L0 
     /tmp/ccX7HQ2N.s:466    .text.get_cpu_freq:000000000000001e .L0 
     /tmp/ccX7HQ2N.s:518    .text.eclic_init:0000000000000024 .L0 
     /tmp/ccX7HQ2N.s:544    .text.eclic_enable_interrupt:0000000000000012 .L0 
     /tmp/ccX7HQ2N.s:569    .text.eclic_disable_interrupt:0000000000000010 .L0 
GAS LISTING /tmp/ccX7HQ2N.s 			page 52


     /tmp/ccX7HQ2N.s:594    .text.eclic_set_pending:0000000000000014 .L0 
     /tmp/ccX7HQ2N.s:618    .text.eclic_clear_pending:0000000000000012 .L0 
     /tmp/ccX7HQ2N.s:643    .text.eclic_set_intctrl:0000000000000010 .L0 
     /tmp/ccX7HQ2N.s:669    .text.eclic_get_intctrl:0000000000000014 .L0 
     /tmp/ccX7HQ2N.s:694    .text.eclic_set_intattr:0000000000000010 .L0 
     /tmp/ccX7HQ2N.s:720    .text.eclic_get_intattr:0000000000000014 .L0 
     /tmp/ccX7HQ2N.s:738    .text.eclic_set_cliccfg:000000000000000a .L0 
     /tmp/ccX7HQ2N.s:756    .text.eclic_get_cliccfg:000000000000000e .L0 
     /tmp/ccX7HQ2N.s:774    .text.eclic_set_mth:000000000000000a .L0 
     /tmp/ccX7HQ2N.s:792    .text.eclic_get_mth:000000000000000e .L0 
     /tmp/ccX7HQ2N.s:842    .text.eclic_set_nlbits:0000000000000018 .L0 
     /tmp/ccX7HQ2N.s:871    .text.eclic_get_nlbits:000000000000000e .L0 
     /tmp/ccX7HQ2N.s:973    .text.eclic_set_irq_lvl:000000000000004c .L0 
     /tmp/ccX7HQ2N.s:1070   .text.eclic_get_irq_lvl:000000000000003c .L0 
     /tmp/ccX7HQ2N.s:1171   .text.eclic_set_irq_lvl_abs:0000000000000048 .L0 
     /tmp/ccX7HQ2N.s:1264   .text.eclic_get_irq_lvl_abs:000000000000003a .L0 
     /tmp/ccX7HQ2N.s:1370   .text.eclic_set_irq_priority:0000000000000050 .L0 
     /tmp/ccX7HQ2N.s:1451   .text.eclic_get_irq_priority:000000000000003e .L0 
     /tmp/ccX7HQ2N.s:1492   .text.eclic_mode_enable:0000000000000012 .L0 
     /tmp/ccX7HQ2N.s:1537   .text.eclic_set_vmode:000000000000001c .L0 
     /tmp/ccX7HQ2N.s:1581   .text.eclic_set_nonvmode:0000000000000018 .L0 
     /tmp/ccX7HQ2N.s:1625   .text.eclic_set_level_trig:0000000000000018 .L0 
     /tmp/ccX7HQ2N.s:1670   .text.eclic_set_posedge_trig:0000000000000018 .L0 
     /tmp/ccX7HQ2N.s:1716   .text.eclic_set_negedge_trig:000000000000001c .L0 
                     .debug_frame:0000000000000000 .L0 
../Firmware/RISCV/drivers/n200_func.c:28     .text.switch_m2u_mode:000000000000001a .L11
../Firmware/RISCV/drivers/n200_func.c:25     .text.switch_m2u_mode:000000000000000a .L0 
     /tmp/ccX7HQ2N.s:134    .text.get_timer_value:0000000000000004 .L7
     /tmp/ccX7HQ2N.s:201    .text.get_instret_value:0000000000000000 .L11
     /tmp/ccX7HQ2N.s:257    .text.get_cycle_value:0000000000000000 .L14
     /tmp/ccX7HQ2N.s:342    .text.measure_cpu_freq:0000000000000010 .L17
     /tmp/ccX7HQ2N.s:375    .text.measure_cpu_freq:000000000000001e .L18
     /tmp/ccX7HQ2N.s:512    .text.eclic_init:0000000000000022 .L23
     /tmp/ccX7HQ2N.s:500    .text.eclic_init:0000000000000018 .L25
     /tmp/ccX7HQ2N.s:914    .text.eclic_set_irq_lvl:0000000000000016 .L42
     /tmp/ccX7HQ2N.s:1053   .text.eclic_get_irq_lvl:000000000000002a .L44
     /tmp/ccX7HQ2N.s:1113   .text.eclic_set_irq_lvl_abs:0000000000000016 .L46
     /tmp/ccX7HQ2N.s:1253   .text.eclic_get_irq_lvl_abs:000000000000002a .L48
     /tmp/ccX7HQ2N.s:1361   .text.eclic_set_irq_priority:000000000000004c .L51
     /tmp/ccX7HQ2N.s:1408   .text.eclic_get_irq_priority:0000000000000016 .L53
     /tmp/ccX7HQ2N.s:3583   .debug_abbrev:0000000000000000 .Ldebug_abbrev0
     /tmp/ccX7HQ2N.s:6124   .debug_str:000000000000042b .LASF78
     /tmp/ccX7HQ2N.s:6070   .debug_str:000000000000025e .LASF79
     /tmp/ccX7HQ2N.s:6122   .debug_str:00000000000003f9 .LASF80
     /tmp/ccX7HQ2N.s:5774   .debug_ranges:0000000000000000 .Ldebug_ranges0
     /tmp/ccX7HQ2N.s:5976   .debug_line:0000000000000000 .Ldebug_line0
     /tmp/ccX7HQ2N.s:6082   .debug_str:00000000000002cf .LASF0
     /tmp/ccX7HQ2N.s:6074   .debug_str:000000000000029b .LASF1
     /tmp/ccX7HQ2N.s:6050   .debug_str:00000000000001cc .LASF6
     /tmp/ccX7HQ2N.s:6062   .debug_str:000000000000021f .LASF2
     /tmp/ccX7HQ2N.s:6000   .debug_str:0000000000000086 .LASF3
     /tmp/ccX7HQ2N.s:6092   .debug_str:0000000000000326 .LASF4
     /tmp/ccX7HQ2N.s:6044   .debug_str:00000000000001b2 .LASF5
     /tmp/ccX7HQ2N.s:6012   .debug_str:00000000000000c5 .LASF7
     /tmp/ccX7HQ2N.s:6116   .debug_str:00000000000003ba .LASF8
     /tmp/ccX7HQ2N.s:6038   .debug_str:0000000000000186 .LASF9
     /tmp/ccX7HQ2N.s:6110   .debug_str:0000000000000393 .LASF10
GAS LISTING /tmp/ccX7HQ2N.s 			page 53


     /tmp/ccX7HQ2N.s:6076   .debug_str:00000000000002a7 .LASF11
     /tmp/ccX7HQ2N.s:6026   .debug_str:000000000000012f .LASF12
     /tmp/ccX7HQ2N.s:6078   .debug_str:00000000000002be .LASF13
     /tmp/ccX7HQ2N.s:5996   .debug_str:0000000000000066 .LASF14
     /tmp/ccX7HQ2N.s:6108   .debug_str:0000000000000383 .LASF81
     /tmp/ccX7HQ2N.s:6002   .debug_str:0000000000000090 .LASF15
     /tmp/ccX7HQ2N.s:6010   .debug_str:00000000000000b9 .LASF16
     /tmp/ccX7HQ2N.s:6098   .debug_str:0000000000000352 .LASF17
     /tmp/ccX7HQ2N.s:6090   .debug_str:000000000000030f .LASF20
     /tmp/ccX7HQ2N.s:1675   .text.eclic_set_negedge_trig:0000000000000000 .LFB42
     /tmp/ccX7HQ2N.s:1714   .text.eclic_set_negedge_trig:000000000000001c .LFE42
     /tmp/ccX7HQ2N.s:6052   .debug_str:00000000000001d6 .LASF22
     /tmp/ccX7HQ2N.s:4582   .debug_loc:0000000000000000 .LLST72
     /tmp/ccX7HQ2N.s:5994   .debug_str:000000000000005a .LASF18
     /tmp/ccX7HQ2N.s:4596   .debug_loc:0000000000000021 .LLST73
     /tmp/ccX7HQ2N.s:5982   .debug_str:0000000000000016 .LASF19
     /tmp/ccX7HQ2N.s:4603   .debug_loc:0000000000000034 .LLST74
     /tmp/ccX7HQ2N.s:1680   .text.eclic_set_negedge_trig:0000000000000000 .LBB225
     /tmp/ccX7HQ2N.s:1696   .text.eclic_set_negedge_trig:0000000000000012 .LBE225
     /tmp/ccX7HQ2N.s:4618   .debug_loc:0000000000000056 .LLST75
     /tmp/ccX7HQ2N.s:1703   .text.eclic_set_negedge_trig:0000000000000016 .LBB227
     /tmp/ccX7HQ2N.s:1710   .text.eclic_set_negedge_trig:000000000000001a .LBE227
     /tmp/ccX7HQ2N.s:4632   .debug_loc:0000000000000077 .LLST76
     /tmp/ccX7HQ2N.s:4639   .debug_loc:000000000000008a .LLST77
     /tmp/ccX7HQ2N.s:6072   .debug_str:0000000000000284 .LASF21
     /tmp/ccX7HQ2N.s:1630   .text.eclic_set_posedge_trig:0000000000000000 .LFB41
     /tmp/ccX7HQ2N.s:1668   .text.eclic_set_posedge_trig:0000000000000018 .LFE41
     /tmp/ccX7HQ2N.s:4649   .debug_loc:00000000000000a0 .LLST67
     /tmp/ccX7HQ2N.s:4663   .debug_loc:00000000000000c1 .LLST68
     /tmp/ccX7HQ2N.s:4670   .debug_loc:00000000000000d4 .LLST69
     /tmp/ccX7HQ2N.s:1635   .text.eclic_set_posedge_trig:0000000000000000 .LBB221
     /tmp/ccX7HQ2N.s:1650   .text.eclic_set_posedge_trig:000000000000000e .LBE221
     /tmp/ccX7HQ2N.s:1657   .text.eclic_set_posedge_trig:0000000000000012 .LBB223
     /tmp/ccX7HQ2N.s:1664   .text.eclic_set_posedge_trig:0000000000000016 .LBE223
     /tmp/ccX7HQ2N.s:4685   .debug_loc:00000000000000f6 .LLST70
     /tmp/ccX7HQ2N.s:4692   .debug_loc:0000000000000109 .LLST71
     /tmp/ccX7HQ2N.s:6024   .debug_str:000000000000011a .LASF23
     /tmp/ccX7HQ2N.s:1586   .text.eclic_set_level_trig:0000000000000000 .LFB40
     /tmp/ccX7HQ2N.s:1623   .text.eclic_set_level_trig:0000000000000018 .LFE40
     /tmp/ccX7HQ2N.s:4702   .debug_loc:000000000000011f .LLST63
     /tmp/ccX7HQ2N.s:4716   .debug_loc:0000000000000140 .LLST64
     /tmp/ccX7HQ2N.s:1591   .text.eclic_set_level_trig:0000000000000000 .LBB217
     /tmp/ccX7HQ2N.s:1606   .text.eclic_set_level_trig:000000000000000e .LBE217
     /tmp/ccX7HQ2N.s:1612   .text.eclic_set_level_trig:0000000000000012 .LBB219
     /tmp/ccX7HQ2N.s:1619   .text.eclic_set_level_trig:0000000000000016 .LBE219
     /tmp/ccX7HQ2N.s:4723   .debug_loc:0000000000000153 .LLST65
     /tmp/ccX7HQ2N.s:4730   .debug_loc:0000000000000166 .LLST66
     /tmp/ccX7HQ2N.s:6030   .debug_str:0000000000000149 .LASF24
     /tmp/ccX7HQ2N.s:1542   .text.eclic_set_nonvmode:0000000000000000 .LFB39
     /tmp/ccX7HQ2N.s:1579   .text.eclic_set_nonvmode:0000000000000018 .LFE39
     /tmp/ccX7HQ2N.s:4740   .debug_loc:000000000000017c .LLST59
     /tmp/ccX7HQ2N.s:4754   .debug_loc:000000000000019d .LLST60
     /tmp/ccX7HQ2N.s:1547   .text.eclic_set_nonvmode:0000000000000000 .LBB213
     /tmp/ccX7HQ2N.s:1562   .text.eclic_set_nonvmode:000000000000000e .LBE213
     /tmp/ccX7HQ2N.s:1568   .text.eclic_set_nonvmode:0000000000000012 .LBB215
     /tmp/ccX7HQ2N.s:1575   .text.eclic_set_nonvmode:0000000000000016 .LBE215
     /tmp/ccX7HQ2N.s:4761   .debug_loc:00000000000001b0 .LLST61
GAS LISTING /tmp/ccX7HQ2N.s 			page 54


     /tmp/ccX7HQ2N.s:4768   .debug_loc:00000000000001c3 .LLST62
     /tmp/ccX7HQ2N.s:6094   .debug_str:0000000000000339 .LASF25
     /tmp/ccX7HQ2N.s:1497   .text.eclic_set_vmode:0000000000000000 .LFB38
     /tmp/ccX7HQ2N.s:1535   .text.eclic_set_vmode:000000000000001c .LFE38
     /tmp/ccX7HQ2N.s:4778   .debug_loc:00000000000001d9 .LLST54
     /tmp/ccX7HQ2N.s:4792   .debug_loc:00000000000001fa .LLST55
     /tmp/ccX7HQ2N.s:1502   .text.eclic_set_vmode:0000000000000000 .LBB209
     /tmp/ccX7HQ2N.s:1518   .text.eclic_set_vmode:0000000000000012 .LBE209
     /tmp/ccX7HQ2N.s:4799   .debug_loc:000000000000020d .LLST56
     /tmp/ccX7HQ2N.s:1524   .text.eclic_set_vmode:0000000000000016 .LBB211
     /tmp/ccX7HQ2N.s:1531   .text.eclic_set_vmode:000000000000001a .LBE211
     /tmp/ccX7HQ2N.s:4813   .debug_loc:000000000000022e .LLST57
     /tmp/ccX7HQ2N.s:4820   .debug_loc:0000000000000241 .LLST58
     /tmp/ccX7HQ2N.s:6114   .debug_str:00000000000003a8 .LASF76
     /tmp/ccX7HQ2N.s:1456   .text.eclic_mode_enable:0000000000000000 .LFB37
     /tmp/ccX7HQ2N.s:1490   .text.eclic_mode_enable:0000000000000012 .LFE37
     /tmp/ccX7HQ2N.s:6048   .debug_str:00000000000001c0 .LASF26
     /tmp/ccX7HQ2N.s:4830   .debug_loc:0000000000000257 .LLST52
     /tmp/ccX7HQ2N.s:1460   .text.eclic_mode_enable:0000000000000000 .LBB208
     /tmp/ccX7HQ2N.s:1470   .text.eclic_mode_enable:0000000000000004 .LBE208
     /tmp/ccX7HQ2N.s:6032   .debug_str:000000000000015c .LASF27
     /tmp/ccX7HQ2N.s:4849   .debug_loc:0000000000000284 .LLST53
     /tmp/ccX7HQ2N.s:5998   .debug_str:000000000000006f .LASF31
     /tmp/ccX7HQ2N.s:1375   .text.eclic_get_irq_priority:0000000000000000 .LFB36
     /tmp/ccX7HQ2N.s:1449   .text.eclic_get_irq_priority:000000000000003e .LFE36
     /tmp/ccX7HQ2N.s:4856   .debug_loc:0000000000000297 .LLST48
     /tmp/ccX7HQ2N.s:6004   .debug_str:0000000000000097 .LASF28
     /tmp/ccX7HQ2N.s:4870   .debug_loc:00000000000002b8 .LLST49
     /tmp/ccX7HQ2N.s:6068   .debug_str:0000000000000256 .LASF29
     /tmp/ccX7HQ2N.s:4887   .debug_loc:00000000000002dc .LLST50
     /tmp/ccX7HQ2N.s:5990   .debug_str:0000000000000043 .LASF30
     /tmp/ccX7HQ2N.s:4905   .debug_loc:00000000000002fa .LLST51
     /tmp/ccX7HQ2N.s:1380   .text.eclic_get_irq_priority:0000000000000000 .LBB198
     /tmp/ccX7HQ2N.s:1383   .text.eclic_get_irq_priority:0000000000000000 .LBB200
     /tmp/ccX7HQ2N.s:1391   .text.eclic_get_irq_priority:0000000000000008 .LBE200
     /tmp/ccX7HQ2N.s:1411   .text.eclic_get_irq_priority:0000000000000016 .LBB204
     /tmp/ccX7HQ2N.s:6084   .debug_str:00000000000002dc .LASF32
     /tmp/ccX7HQ2N.s:1269   .text.eclic_set_irq_priority:0000000000000000 .LFB35
     /tmp/ccX7HQ2N.s:1368   .text.eclic_set_irq_priority:0000000000000050 .LFE35
     /tmp/ccX7HQ2N.s:4950   .debug_loc:000000000000033a .LLST42
     /tmp/ccX7HQ2N.s:4975   .debug_loc:0000000000000374 .LLST43
     /tmp/ccX7HQ2N.s:4997   .debug_loc:00000000000003ab .LLST44
     /tmp/ccX7HQ2N.s:6136   .debug_str:0000000000000516 .LASF34
     /tmp/ccX7HQ2N.s:1274   .text.eclic_set_irq_priority:0000000000000000 .LBB186
     /tmp/ccX7HQ2N.s:1293   .text.eclic_set_irq_priority:000000000000000e .LBE186
     /tmp/ccX7HQ2N.s:5016   .debug_loc:00000000000003d1 .LLST45
     /tmp/ccX7HQ2N.s:1277   .text.eclic_set_irq_priority:0000000000000000 .LBB188
     /tmp/ccX7HQ2N.s:1286   .text.eclic_set_irq_priority:000000000000000c .LBE188
     /tmp/ccX7HQ2N.s:1299   .text.eclic_set_irq_priority:0000000000000014 .LBB190
     /tmp/ccX7HQ2N.s:1349   .text.eclic_set_irq_priority:0000000000000046 .LBB196
     /tmp/ccX7HQ2N.s:1356   .text.eclic_set_irq_priority:000000000000004a .LBE196
     /tmp/ccX7HQ2N.s:5023   .debug_loc:00000000000003e4 .LLST46
     /tmp/ccX7HQ2N.s:5030   .debug_loc:00000000000003f7 .LLST47
     /tmp/ccX7HQ2N.s:6066   .debug_str:0000000000000240 .LASF33
     /tmp/ccX7HQ2N.s:1176   .text.eclic_get_irq_lvl_abs:0000000000000000 .LFB34
     /tmp/ccX7HQ2N.s:1262   .text.eclic_get_irq_lvl_abs:000000000000003a .LFE34
     /tmp/ccX7HQ2N.s:5040   .debug_loc:000000000000040d .LLST39
GAS LISTING /tmp/ccX7HQ2N.s 			page 55


     /tmp/ccX7HQ2N.s:5054   .debug_loc:000000000000042e .LLST40
     /tmp/ccX7HQ2N.s:6106   .debug_str:000000000000037b .LASF35
     /tmp/ccX7HQ2N.s:1181   .text.eclic_get_irq_lvl_abs:0000000000000000 .LBB170
     /tmp/ccX7HQ2N.s:1184   .text.eclic_get_irq_lvl_abs:0000000000000000 .LBB172
     /tmp/ccX7HQ2N.s:1193   .text.eclic_get_irq_lvl_abs:0000000000000004 .LBB178
     /tmp/ccX7HQ2N.s:5082   .debug_loc:0000000000000457 .LLST41
     /tmp/ccX7HQ2N.s:6120   .debug_str:00000000000003e3 .LASF36
     /tmp/ccX7HQ2N.s:1075   .text.eclic_set_irq_lvl_abs:0000000000000000 .LFB33
     /tmp/ccX7HQ2N.s:1169   .text.eclic_set_irq_lvl_abs:0000000000000048 .LFE33
     /tmp/ccX7HQ2N.s:5096   .debug_loc:0000000000000478 .LLST32
     /tmp/ccX7HQ2N.s:5110   .debug_loc:0000000000000499 .LLST33
     /tmp/ccX7HQ2N.s:5124   .debug_loc:00000000000004ba .LLST34
     /tmp/ccX7HQ2N.s:5152   .debug_loc:00000000000004e3 .LLST35
     /tmp/ccX7HQ2N.s:5184   .debug_loc:0000000000000516 .LLST36
     /tmp/ccX7HQ2N.s:1080   .text.eclic_set_irq_lvl_abs:0000000000000000 .LBB158
     /tmp/ccX7HQ2N.s:1083   .text.eclic_set_irq_lvl_abs:0000000000000000 .LBB160
     /tmp/ccX7HQ2N.s:1091   .text.eclic_set_irq_lvl_abs:0000000000000008 .LBE160
     /tmp/ccX7HQ2N.s:1114   .text.eclic_set_irq_lvl_abs:0000000000000016 .LBB164
     /tmp/ccX7HQ2N.s:1158   .text.eclic_set_irq_lvl_abs:0000000000000042 .LBB168
     /tmp/ccX7HQ2N.s:1165   .text.eclic_set_irq_lvl_abs:0000000000000046 .LBE168
     /tmp/ccX7HQ2N.s:5205   .debug_loc:0000000000000537 .LLST37
     /tmp/ccX7HQ2N.s:5212   .debug_loc:000000000000054a .LLST38
     /tmp/ccX7HQ2N.s:6020   .debug_str:00000000000000fc .LASF37
     /tmp/ccX7HQ2N.s:978    .text.eclic_get_irq_lvl:0000000000000000 .LFB32
     /tmp/ccX7HQ2N.s:1068   .text.eclic_get_irq_lvl:000000000000003c .LFE32
     /tmp/ccX7HQ2N.s:5222   .debug_loc:0000000000000560 .LLST27
     /tmp/ccX7HQ2N.s:5236   .debug_loc:0000000000000581 .LLST28
     /tmp/ccX7HQ2N.s:5264   .debug_loc:00000000000005aa .LLST29
     /tmp/ccX7HQ2N.s:5283   .debug_loc:00000000000005d0 .LLST30
     /tmp/ccX7HQ2N.s:983    .text.eclic_get_irq_lvl:0000000000000000 .LBB142
     /tmp/ccX7HQ2N.s:986    .text.eclic_get_irq_lvl:0000000000000000 .LBB144
     /tmp/ccX7HQ2N.s:995    .text.eclic_get_irq_lvl:0000000000000004 .LBB150
     /tmp/ccX7HQ2N.s:5301   .debug_loc:00000000000005ee .LLST31
     /tmp/ccX7HQ2N.s:6028   .debug_str:0000000000000137 .LASF38
     /tmp/ccX7HQ2N.s:876    .text.eclic_set_irq_lvl:0000000000000000 .LFB31
     /tmp/ccX7HQ2N.s:971    .text.eclic_set_irq_lvl:000000000000004c .LFE31
     /tmp/ccX7HQ2N.s:5315   .debug_loc:000000000000060f .LLST22
     /tmp/ccX7HQ2N.s:5329   .debug_loc:0000000000000630 .LLST23
     /tmp/ccX7HQ2N.s:5365   .debug_loc:0000000000000675 .LLST24
     /tmp/ccX7HQ2N.s:881    .text.eclic_set_irq_lvl:0000000000000000 .LBB130
     /tmp/ccX7HQ2N.s:884    .text.eclic_set_irq_lvl:0000000000000000 .LBB132
     /tmp/ccX7HQ2N.s:892    .text.eclic_set_irq_lvl:0000000000000008 .LBE132
     /tmp/ccX7HQ2N.s:915    .text.eclic_set_irq_lvl:0000000000000016 .LBB136
     /tmp/ccX7HQ2N.s:960    .text.eclic_set_irq_lvl:0000000000000046 .LBB140
     /tmp/ccX7HQ2N.s:967    .text.eclic_set_irq_lvl:000000000000004a .LBE140
     /tmp/ccX7HQ2N.s:5393   .debug_loc:000000000000069e .LLST25
     /tmp/ccX7HQ2N.s:5400   .debug_loc:00000000000006b1 .LLST26
     /tmp/ccX7HQ2N.s:6130   .debug_str:00000000000004ea .LASF44
     /tmp/ccX7HQ2N.s:6054   .debug_str:00000000000001dd .LASF39
     /tmp/ccX7HQ2N.s:797    .text.eclic_set_nlbits:0000000000000000 .LFB29
     /tmp/ccX7HQ2N.s:840    .text.eclic_set_nlbits:0000000000000018 .LFE29
     /tmp/ccX7HQ2N.s:5410   .debug_loc:00000000000006c7 .LLST17
     /tmp/ccX7HQ2N.s:6086   .debug_str:00000000000002f3 .LASF40
     /tmp/ccX7HQ2N.s:5424   .debug_loc:00000000000006e8 .LLST18
     /tmp/ccX7HQ2N.s:6016   .debug_str:00000000000000e2 .LASF41
     /tmp/ccX7HQ2N.s:5444   .debug_loc:000000000000070f .LLST19
     /tmp/ccX7HQ2N.s:6008   .debug_str:00000000000000ad .LASF42
GAS LISTING /tmp/ccX7HQ2N.s 			page 56


     /tmp/ccX7HQ2N.s:802    .text.eclic_set_nlbits:0000000000000000 .LBB122
     /tmp/ccX7HQ2N.s:829    .text.eclic_set_nlbits:0000000000000012 .LBB126
     /tmp/ccX7HQ2N.s:836    .text.eclic_set_nlbits:0000000000000016 .LBE126
     /tmp/ccX7HQ2N.s:5451   .debug_loc:0000000000000722 .LLST20
     /tmp/ccX7HQ2N.s:5992   .debug_str:000000000000004c .LASF82
     /tmp/ccX7HQ2N.s:779    .text.eclic_get_mth:0000000000000000 .LFB28
     /tmp/ccX7HQ2N.s:790    .text.eclic_get_mth:000000000000000e .LFE28
     /tmp/ccX7HQ2N.s:6018   .debug_str:00000000000000ee .LASF43
     /tmp/ccX7HQ2N.s:761    .text.eclic_set_mth:0000000000000000 .LFB27
     /tmp/ccX7HQ2N.s:772    .text.eclic_set_mth:000000000000000a .LFE27
     /tmp/ccX7HQ2N.s:6056   .debug_str:00000000000001ee .LASF71
     /tmp/ccX7HQ2N.s:6034   .debug_str:0000000000000162 .LASF47
     /tmp/ccX7HQ2N.s:6100   .debug_str:0000000000000357 .LASF46
     /tmp/ccX7HQ2N.s:6042   .debug_str:00000000000001a0 .LASF45
     /tmp/ccX7HQ2N.s:6132   .debug_str:00000000000004fb .LASF48
     /tmp/ccX7HQ2N.s:6080   .debug_str:00000000000002c7 .LASF49
     /tmp/ccX7HQ2N.s:6036   .debug_str:0000000000000174 .LASF50
     /tmp/ccX7HQ2N.s:6014   .debug_str:00000000000000d0 .LASF51
     /tmp/ccX7HQ2N.s:6126   .debug_str:00000000000004c4 .LASF52
     /tmp/ccX7HQ2N.s:599    .text.eclic_clear_pending:0000000000000000 .LFB20
     /tmp/ccX7HQ2N.s:616    .text.eclic_clear_pending:0000000000000012 .LFE20
     /tmp/ccX7HQ2N.s:5458   .debug_loc:0000000000000735 .LLST12
     /tmp/ccX7HQ2N.s:6128   .debug_str:00000000000004d8 .LASF53
     /tmp/ccX7HQ2N.s:574    .text.eclic_set_pending:0000000000000000 .LFB19
     /tmp/ccX7HQ2N.s:592    .text.eclic_set_pending:0000000000000014 .LFE19
     /tmp/ccX7HQ2N.s:5478   .debug_loc:0000000000000767 .LLST11
     /tmp/ccX7HQ2N.s:6144   .debug_str:000000000000054e .LASF54
     /tmp/ccX7HQ2N.s:549    .text.eclic_disable_interrupt:0000000000000000 .LFB18
     /tmp/ccX7HQ2N.s:567    .text.eclic_disable_interrupt:0000000000000010 .LFE18
     /tmp/ccX7HQ2N.s:5498   .debug_loc:0000000000000799 .LLST10
     /tmp/ccX7HQ2N.s:6118   .debug_str:00000000000003cc .LASF55
     /tmp/ccX7HQ2N.s:523    .text.eclic_enable_interrupt:0000000000000000 .LFB17
     /tmp/ccX7HQ2N.s:542    .text.eclic_enable_interrupt:0000000000000012 .LFE17
     /tmp/ccX7HQ2N.s:5512   .debug_loc:00000000000007ba .LLST9
     /tmp/ccX7HQ2N.s:5986   .debug_str:0000000000000032 .LASF56
     /tmp/ccX7HQ2N.s:471    .text.eclic_init:0000000000000000 .LFB16
     /tmp/ccX7HQ2N.s:516    .text.eclic_init:0000000000000024 .LFE16
     /tmp/ccX7HQ2N.s:6138   .debug_str:0000000000000526 .LASF57
     /tmp/ccX7HQ2N.s:5526   .debug_loc:00000000000007db .LLST7
     /tmp/ccX7HQ2N.s:6112   .debug_str:000000000000039e .LASF58
     /tmp/ccX7HQ2N.s:5540   .debug_loc:00000000000007fc .LLST8
     /tmp/ccX7HQ2N.s:6046   .debug_str:00000000000001bb .LASF59
     /tmp/ccX7HQ2N.s:5988   .debug_str:000000000000003d .LASF60
     /tmp/ccX7HQ2N.s:5978   .debug_str:0000000000000000 .LASF61
     /tmp/ccX7HQ2N.s:433    .text.get_cpu_freq:0000000000000000 .LFB15
     /tmp/ccX7HQ2N.s:464    .text.get_cpu_freq:000000000000001e .LFE15
     /tmp/ccX7HQ2N.s:5553   .debug_loc:000000000000081f .LLST6
     /tmp/ccX7HQ2N.s:6096   .debug_str:0000000000000349 .LASF62
     /tmp/ccX7HQ2N.s:449    .text.get_cpu_freq:000000000000000e .LVL20
     /tmp/ccX7HQ2N.s:462    .text.get_cpu_freq:000000000000001e .LVL21
     /tmp/ccX7HQ2N.s:6102   .debug_str:000000000000035f .LASF63
     /tmp/ccX7HQ2N.s:310    .text.measure_cpu_freq:0000000000000000 .LFB14
     /tmp/ccX7HQ2N.s:426    .text.measure_cpu_freq:0000000000000044 .LFE14
     /tmp/ccX7HQ2N.s:5571   .debug_loc:000000000000084b .LLST0
     /tmp/ccX7HQ2N.s:6022   .debug_str:000000000000010e .LASF64
     /tmp/ccX7HQ2N.s:5585   .debug_loc:000000000000086c .LLST1
     /tmp/ccX7HQ2N.s:6040   .debug_str:0000000000000194 .LASF65
GAS LISTING /tmp/ccX7HQ2N.s 			page 57


     /tmp/ccX7HQ2N.s:5592   .debug_loc:000000000000087f .LLST2
     /tmp/ccX7HQ2N.s:6104   .debug_str:0000000000000370 .LASF66
     /tmp/ccX7HQ2N.s:5599   .debug_loc:0000000000000892 .LLST3
     /tmp/ccX7HQ2N.s:6088   .debug_str:0000000000000302 .LASF67
     /tmp/ccX7HQ2N.s:6060   .debug_str:0000000000000212 .LASF68
     /tmp/ccX7HQ2N.s:5606   .debug_loc:00000000000008a5 .LLST4
     /tmp/ccX7HQ2N.s:359    .text.measure_cpu_freq:0000000000000016 .LBB116
     /tmp/ccX7HQ2N.s:369    .text.measure_cpu_freq:000000000000001a .LBE116
     /tmp/ccX7HQ2N.s:394    .text.measure_cpu_freq:0000000000000026 .LBB121
     /tmp/ccX7HQ2N.s:404    .text.measure_cpu_freq:000000000000002a .LBE121
     /tmp/ccX7HQ2N.s:5613   .debug_loc:00000000000008b8 .LLST5
     /tmp/ccX7HQ2N.s:316    .text.measure_cpu_freq:0000000000000000 .LBB106
     /tmp/ccX7HQ2N.s:324    .text.measure_cpu_freq:0000000000000008 .LBB109
     /tmp/ccX7HQ2N.s:347    .text.measure_cpu_freq:0000000000000010 .LBB114
     /tmp/ccX7HQ2N.s:354    .text.measure_cpu_freq:0000000000000012 .LBE114
     /tmp/ccX7HQ2N.s:370    .text.measure_cpu_freq:000000000000001a .LBB117
     /tmp/ccX7HQ2N.s:5984   .debug_str:0000000000000022 .LASF69
     /tmp/ccX7HQ2N.s:254    .text.get_cycle_value:0000000000000000 .LFB13
     /tmp/ccX7HQ2N.s:303    .text.get_cycle_value:0000000000000012 .LFE13
     /tmp/ccX7HQ2N.s:259    .text.get_cycle_value:0000000000000000 .LBB102
     /tmp/ccX7HQ2N.s:299    .text.get_cycle_value:0000000000000010 .LBE102
     /tmp/ccX7HQ2N.s:261    .text.get_cycle_value:0000000000000000 .LBB103
     /tmp/ccX7HQ2N.s:271    .text.get_cycle_value:0000000000000004 .LBE103
     /tmp/ccX7HQ2N.s:273    .text.get_cycle_value:0000000000000004 .LBB104
     /tmp/ccX7HQ2N.s:283    .text.get_cycle_value:0000000000000008 .LBE104
     /tmp/ccX7HQ2N.s:285    .text.get_cycle_value:0000000000000008 .LBB105
     /tmp/ccX7HQ2N.s:295    .text.get_cycle_value:000000000000000c .LBE105
     /tmp/ccX7HQ2N.s:6058   .debug_str:0000000000000200 .LASF70
     /tmp/ccX7HQ2N.s:198    .text.get_instret_value:0000000000000000 .LFB12
     /tmp/ccX7HQ2N.s:247    .text.get_instret_value:0000000000000012 .LFE12
     /tmp/ccX7HQ2N.s:203    .text.get_instret_value:0000000000000000 .LBB98
     /tmp/ccX7HQ2N.s:243    .text.get_instret_value:0000000000000010 .LBE98
     /tmp/ccX7HQ2N.s:205    .text.get_instret_value:0000000000000000 .LBB99
     /tmp/ccX7HQ2N.s:215    .text.get_instret_value:0000000000000004 .LBE99
     /tmp/ccX7HQ2N.s:217    .text.get_instret_value:0000000000000004 .LBB100
     /tmp/ccX7HQ2N.s:227    .text.get_instret_value:0000000000000008 .LBE100
     /tmp/ccX7HQ2N.s:229    .text.get_instret_value:0000000000000008 .LBB101
     /tmp/ccX7HQ2N.s:239    .text.get_instret_value:000000000000000c .LBE101
     /tmp/ccX7HQ2N.s:6006   .debug_str:000000000000009e .LASF72
     /tmp/ccX7HQ2N.s:6140   .debug_str:000000000000052e .LASF73
     /tmp/ccX7HQ2N.s:126    .text.get_timer_value:0000000000000000 .LFB10
     /tmp/ccX7HQ2N.s:173    .text.get_timer_value:0000000000000010 .LFE10
     /tmp/ccX7HQ2N.s:130    .text.get_timer_value:0000000000000000 .LBB89
     /tmp/ccX7HQ2N.s:150    .text.get_timer_value:0000000000000006 .LBB93
     /tmp/ccX7HQ2N.s:157    .text.get_timer_value:0000000000000008 .LBE93
     /tmp/ccX7HQ2N.s:159    .text.get_timer_value:0000000000000008 .LBB95
     /tmp/ccX7HQ2N.s:165    .text.get_timer_value:000000000000000a .LBE95
     /tmp/ccX7HQ2N.s:6134   .debug_str:000000000000050d .LASF74
     /tmp/ccX7HQ2N.s:5980   .debug_str:000000000000000d .LASF75
     /tmp/ccX7HQ2N.s:6142   .debug_str:000000000000053e .LASF77
     /tmp/ccX7HQ2N.s:46     .text.switch_m2u_mode:0000000000000000 .LFB7
     /tmp/ccX7HQ2N.s:85     .text.switch_m2u_mode:000000000000001c .LFE7
     /tmp/ccX7HQ2N.s:50     .text.switch_m2u_mode:0000000000000000 .LBB87
     /tmp/ccX7HQ2N.s:63     .text.switch_m2u_mode:000000000000000a .LBE87
     /tmp/ccX7HQ2N.s:6064   .debug_str:000000000000022d .LASF83
     /tmp/ccX7HQ2N.s:14     .text.pmp_open_all_space:0000000000000000 .LFB6
     /tmp/ccX7HQ2N.s:39     .text.pmp_open_all_space:0000000000000012 .LFE6
GAS LISTING /tmp/ccX7HQ2N.s 			page 58


     /tmp/ccX7HQ2N.s:92     .text.mtime_lo:0000000000000000 .LFB8
     /tmp/ccX7HQ2N.s:102    .text.mtime_lo:0000000000000008 .LFE8
     /tmp/ccX7HQ2N.s:109    .text.mtime_hi:0000000000000000 .LFB9
     /tmp/ccX7HQ2N.s:119    .text.mtime_hi:0000000000000008 .LFE9
     /tmp/ccX7HQ2N.s:180    .text.get_timer_freq:0000000000000000 .LFB11
     /tmp/ccX7HQ2N.s:191    .text.get_timer_freq:000000000000000c .LFE11
     /tmp/ccX7HQ2N.s:623    .text.eclic_set_intctrl:0000000000000000 .LFB21
     /tmp/ccX7HQ2N.s:641    .text.eclic_set_intctrl:0000000000000010 .LFE21
     /tmp/ccX7HQ2N.s:5620   .debug_loc:00000000000008cb .LLST13
     /tmp/ccX7HQ2N.s:648    .text.eclic_get_intctrl:0000000000000000 .LFB22
     /tmp/ccX7HQ2N.s:667    .text.eclic_get_intctrl:0000000000000014 .LFE22
     /tmp/ccX7HQ2N.s:5634   .debug_loc:00000000000008ec .LLST14
     /tmp/ccX7HQ2N.s:674    .text.eclic_set_intattr:0000000000000000 .LFB23
     /tmp/ccX7HQ2N.s:692    .text.eclic_set_intattr:0000000000000010 .LFE23
     /tmp/ccX7HQ2N.s:5648   .debug_loc:000000000000090d .LLST15
     /tmp/ccX7HQ2N.s:699    .text.eclic_get_intattr:0000000000000000 .LFB24
     /tmp/ccX7HQ2N.s:718    .text.eclic_get_intattr:0000000000000014 .LFE24
     /tmp/ccX7HQ2N.s:5662   .debug_loc:000000000000092e .LLST16
     /tmp/ccX7HQ2N.s:725    .text.eclic_set_cliccfg:0000000000000000 .LFB25
     /tmp/ccX7HQ2N.s:736    .text.eclic_set_cliccfg:000000000000000a .LFE25
     /tmp/ccX7HQ2N.s:743    .text.eclic_get_cliccfg:0000000000000000 .LFB26
     /tmp/ccX7HQ2N.s:754    .text.eclic_get_cliccfg:000000000000000e .LFE26
     /tmp/ccX7HQ2N.s:847    .text.eclic_get_nlbits:0000000000000000 .LFB30
     /tmp/ccX7HQ2N.s:869    .text.eclic_get_nlbits:000000000000000e .LFE30
     /tmp/ccX7HQ2N.s:5676   .debug_loc:000000000000094f .LLST21
     /tmp/ccX7HQ2N.s:851    .text.eclic_get_nlbits:0000000000000000 .LBB128
     /tmp/ccX7HQ2N.s:859    .text.eclic_get_nlbits:0000000000000008 .LBE128
     /tmp/ccX7HQ2N.s:1678   .text.eclic_set_negedge_trig:0000000000000000 .LVL128
     /tmp/ccX7HQ2N.s:1688   .text.eclic_set_negedge_trig:0000000000000008 .LVL129
     /tmp/ccX7HQ2N.s:1694   .text.eclic_set_negedge_trig:0000000000000012 .LVL130
     /tmp/ccX7HQ2N.s:1701   .text.eclic_set_negedge_trig:0000000000000016 .LVL131
     /tmp/ccX7HQ2N.s:1708   .text.eclic_set_negedge_trig:000000000000001a .LVL132
     /tmp/ccX7HQ2N.s:1633   .text.eclic_set_posedge_trig:0000000000000000 .LVL123
     /tmp/ccX7HQ2N.s:1643   .text.eclic_set_posedge_trig:0000000000000008 .LVL124
     /tmp/ccX7HQ2N.s:1648   .text.eclic_set_posedge_trig:000000000000000e .LVL125
     /tmp/ccX7HQ2N.s:1655   .text.eclic_set_posedge_trig:0000000000000012 .LVL126
     /tmp/ccX7HQ2N.s:1662   .text.eclic_set_posedge_trig:0000000000000016 .LVL127
     /tmp/ccX7HQ2N.s:1589   .text.eclic_set_level_trig:0000000000000000 .LVL118
     /tmp/ccX7HQ2N.s:1599   .text.eclic_set_level_trig:0000000000000008 .LVL119
     /tmp/ccX7HQ2N.s:1604   .text.eclic_set_level_trig:000000000000000e .LVL120
     /tmp/ccX7HQ2N.s:1610   .text.eclic_set_level_trig:0000000000000012 .LVL121
     /tmp/ccX7HQ2N.s:1617   .text.eclic_set_level_trig:0000000000000016 .LVL122
     /tmp/ccX7HQ2N.s:1545   .text.eclic_set_nonvmode:0000000000000000 .LVL113
     /tmp/ccX7HQ2N.s:1555   .text.eclic_set_nonvmode:0000000000000008 .LVL114
     /tmp/ccX7HQ2N.s:1560   .text.eclic_set_nonvmode:000000000000000e .LVL115
     /tmp/ccX7HQ2N.s:1566   .text.eclic_set_nonvmode:0000000000000012 .LVL116
     /tmp/ccX7HQ2N.s:1573   .text.eclic_set_nonvmode:0000000000000016 .LVL117
     /tmp/ccX7HQ2N.s:1500   .text.eclic_set_vmode:0000000000000000 .LVL108
     /tmp/ccX7HQ2N.s:1510   .text.eclic_set_vmode:0000000000000008 .LVL109
     /tmp/ccX7HQ2N.s:1516   .text.eclic_set_vmode:0000000000000012 .LVL110
     /tmp/ccX7HQ2N.s:1522   .text.eclic_set_vmode:0000000000000016 .LVL111
     /tmp/ccX7HQ2N.s:1529   .text.eclic_set_vmode:000000000000001a .LVL112
     /tmp/ccX7HQ2N.s:1467   .text.eclic_mode_enable:0000000000000004 .LVL105
     /tmp/ccX7HQ2N.s:1474   .text.eclic_mode_enable:0000000000000008 .LVL106
     /tmp/ccX7HQ2N.s:1480   .text.eclic_mode_enable:000000000000000c .LVL107
     /tmp/ccX7HQ2N.s:1378   .text.eclic_get_irq_priority:0000000000000000 .LVL98
     /tmp/ccX7HQ2N.s:1422   .text.eclic_get_irq_priority:0000000000000026 .LVL101
GAS LISTING /tmp/ccX7HQ2N.s 			page 59


     /tmp/ccX7HQ2N.s:1389   .text.eclic_get_irq_priority:0000000000000008 .LVL99
     /tmp/ccX7HQ2N.s:1402   .text.eclic_get_irq_priority:000000000000000c .LVL100
     /tmp/ccX7HQ2N.s:1424   .text.eclic_get_irq_priority:000000000000002a .LVL102
     /tmp/ccX7HQ2N.s:1441   .text.eclic_get_irq_priority:0000000000000030 .LVL104
     /tmp/ccX7HQ2N.s:1438   .text.eclic_get_irq_priority:000000000000002c .LVL103
     /tmp/ccX7HQ2N.s:1272   .text.eclic_set_irq_priority:0000000000000000 .LVL87
     /tmp/ccX7HQ2N.s:1305   .text.eclic_set_irq_priority:000000000000001a .LVL90
     /tmp/ccX7HQ2N.s:1360   .text.eclic_set_irq_priority:000000000000004c .LVL96
     /tmp/ccX7HQ2N.s:1364   .text.eclic_set_irq_priority:000000000000004e .LVL97
     /tmp/ccX7HQ2N.s:1328   .text.eclic_set_irq_priority:0000000000000034 .LVL92
     /tmp/ccX7HQ2N.s:1333   .text.eclic_set_irq_priority:000000000000003c .LVL93
     /tmp/ccX7HQ2N.s:1290   .text.eclic_set_irq_priority:000000000000000e .LVL89
     /tmp/ccX7HQ2N.s:1316   .text.eclic_set_irq_priority:0000000000000026 .LVL91
     /tmp/ccX7HQ2N.s:1284   .text.eclic_set_irq_priority:000000000000000c .LVL88
     /tmp/ccX7HQ2N.s:1348   .text.eclic_set_irq_priority:0000000000000046 .LVL94
     /tmp/ccX7HQ2N.s:1354   .text.eclic_set_irq_priority:000000000000004a .LVL95
     /tmp/ccX7HQ2N.s:1179   .text.eclic_get_irq_lvl_abs:0000000000000000 .LVL82
     /tmp/ccX7HQ2N.s:1221   .text.eclic_get_irq_lvl_abs:0000000000000010 .LVL84
     /tmp/ccX7HQ2N.s:1205   .text.eclic_get_irq_lvl_abs:000000000000000c .LVL83
     /tmp/ccX7HQ2N.s:1232   .text.eclic_get_irq_lvl_abs:0000000000000018 .LVL85
     /tmp/ccX7HQ2N.s:1243   .text.eclic_get_irq_lvl_abs:0000000000000020 .LVL86
     /tmp/ccX7HQ2N.s:1078   .text.eclic_set_irq_lvl_abs:0000000000000000 .LVL73
     /tmp/ccX7HQ2N.s:1121   .text.eclic_set_irq_lvl_abs:000000000000001e .LVL76
     /tmp/ccX7HQ2N.s:1153   .text.eclic_set_irq_lvl_abs:000000000000003c .LVL79
     /tmp/ccX7HQ2N.s:1089   .text.eclic_set_irq_lvl_abs:0000000000000008 .LVL74
     /tmp/ccX7HQ2N.s:1104   .text.eclic_set_irq_lvl_abs:000000000000000c .LVL75
     /tmp/ccX7HQ2N.s:1130   .text.eclic_set_irq_lvl_abs:0000000000000028 .LVL77
     /tmp/ccX7HQ2N.s:1144   .text.eclic_set_irq_lvl_abs:000000000000002e .LVL78
     /tmp/ccX7HQ2N.s:1157   .text.eclic_set_irq_lvl_abs:0000000000000042 .LVL80
     /tmp/ccX7HQ2N.s:1163   .text.eclic_set_irq_lvl_abs:0000000000000046 .LVL81
     /tmp/ccX7HQ2N.s:981    .text.eclic_get_irq_lvl:0000000000000000 .LVL66
     /tmp/ccX7HQ2N.s:1023   .text.eclic_get_irq_lvl:0000000000000010 .LVL68
     /tmp/ccX7HQ2N.s:1007   .text.eclic_get_irq_lvl:000000000000000c .LVL67
     /tmp/ccX7HQ2N.s:1034   .text.eclic_get_irq_lvl:0000000000000018 .LVL69
     /tmp/ccX7HQ2N.s:1045   .text.eclic_get_irq_lvl:0000000000000020 .LVL70
     /tmp/ccX7HQ2N.s:1056   .text.eclic_get_irq_lvl:000000000000002e .LVL71
     /tmp/ccX7HQ2N.s:1061   .text.eclic_get_irq_lvl:0000000000000032 .LVL72
     /tmp/ccX7HQ2N.s:879    .text.eclic_set_irq_lvl:0000000000000000 .LVL57
     /tmp/ccX7HQ2N.s:922    .text.eclic_set_irq_lvl:000000000000001e .LVL60
     /tmp/ccX7HQ2N.s:933    .text.eclic_set_irq_lvl:000000000000002c .LVL61
     /tmp/ccX7HQ2N.s:939    .text.eclic_set_irq_lvl:0000000000000034 .LVL62
     /tmp/ccX7HQ2N.s:944    .text.eclic_set_irq_lvl:000000000000003c .LVL63
     /tmp/ccX7HQ2N.s:890    .text.eclic_set_irq_lvl:0000000000000008 .LVL58
     /tmp/ccX7HQ2N.s:905    .text.eclic_set_irq_lvl:000000000000000c .LVL59
     /tmp/ccX7HQ2N.s:959    .text.eclic_set_irq_lvl:0000000000000046 .LVL64
     /tmp/ccX7HQ2N.s:965    .text.eclic_set_irq_lvl:000000000000004a .LVL65
     /tmp/ccX7HQ2N.s:800    .text.eclic_set_nlbits:0000000000000000 .LVL49
     /tmp/ccX7HQ2N.s:819    .text.eclic_set_nlbits:000000000000000a .LVL51
     /tmp/ccX7HQ2N.s:807    .text.eclic_set_nlbits:0000000000000008 .LVL50
     /tmp/ccX7HQ2N.s:824    .text.eclic_set_nlbits:0000000000000010 .LVL52
     /tmp/ccX7HQ2N.s:827    .text.eclic_set_nlbits:0000000000000012 .LVL53
     /tmp/ccX7HQ2N.s:834    .text.eclic_set_nlbits:0000000000000016 .LVL54
     /tmp/ccX7HQ2N.s:602    .text.eclic_clear_pending:0000000000000000 .LVL36
     /tmp/ccX7HQ2N.s:608    .text.eclic_clear_pending:000000000000000a .LVL37
     /tmp/ccX7HQ2N.s:610    .text.eclic_clear_pending:000000000000000c .LVL38
     /tmp/ccX7HQ2N.s:577    .text.eclic_set_pending:0000000000000000 .LVL33
     /tmp/ccX7HQ2N.s:583    .text.eclic_set_pending:000000000000000a .LVL34
GAS LISTING /tmp/ccX7HQ2N.s 			page 60


     /tmp/ccX7HQ2N.s:585    .text.eclic_set_pending:000000000000000c .LVL35
     /tmp/ccX7HQ2N.s:552    .text.eclic_disable_interrupt:0000000000000000 .LVL31
     /tmp/ccX7HQ2N.s:558    .text.eclic_disable_interrupt:0000000000000006 .LVL32
     /tmp/ccX7HQ2N.s:526    .text.eclic_enable_interrupt:0000000000000000 .LVL29
     /tmp/ccX7HQ2N.s:533    .text.eclic_enable_interrupt:0000000000000008 .LVL30
     /tmp/ccX7HQ2N.s:474    .text.eclic_init:0000000000000000 .LVL22
     /tmp/ccX7HQ2N.s:483    .text.eclic_init:000000000000000a .LVL23
     /tmp/ccX7HQ2N.s:494    .text.eclic_init:0000000000000014 .LVL25
     /tmp/ccX7HQ2N.s:499    .text.eclic_init:0000000000000018 .LVL26
     /tmp/ccX7HQ2N.s:511    .text.eclic_init:0000000000000022 .LVL28
     /tmp/ccX7HQ2N.s:440    .text.get_cpu_freq:0000000000000002 .LCFI0
     /tmp/ccX7HQ2N.s:458    .text.get_cpu_freq:0000000000000016 .LCFI1
     /tmp/ccX7HQ2N.s:313    .text.measure_cpu_freq:0000000000000000 .LVL9
     /tmp/ccX7HQ2N.s:401    .text.measure_cpu_freq:000000000000002a .LVL15
     /tmp/ccX7HQ2N.s:352    .text.measure_cpu_freq:0000000000000012 .LVL11
     /tmp/ccX7HQ2N.s:411    .text.measure_cpu_freq:0000000000000030 .LVL17
     /tmp/ccX7HQ2N.s:389    .text.measure_cpu_freq:0000000000000022 .LVL14
     /tmp/ccX7HQ2N.s:419    .text.measure_cpu_freq:000000000000003c .LVL19
     /tmp/ccX7HQ2N.s:335    .text.measure_cpu_freq:0000000000000010 .LVL10
     /tmp/ccX7HQ2N.s:374    .text.measure_cpu_freq:000000000000001e .LVL13
     /tmp/ccX7HQ2N.s:407    .text.measure_cpu_freq:000000000000002c .LVL16
     /tmp/ccX7HQ2N.s:414    .text.measure_cpu_freq:0000000000000034 .LVL18
     /tmp/ccX7HQ2N.s:626    .text.eclic_set_intctrl:0000000000000000 .LVL39
     /tmp/ccX7HQ2N.s:632    .text.eclic_set_intctrl:0000000000000006 .LVL40
     /tmp/ccX7HQ2N.s:651    .text.eclic_get_intctrl:0000000000000000 .LVL41
     /tmp/ccX7HQ2N.s:658    .text.eclic_get_intctrl:0000000000000008 .LVL42
     /tmp/ccX7HQ2N.s:677    .text.eclic_set_intattr:0000000000000000 .LVL43
     /tmp/ccX7HQ2N.s:683    .text.eclic_set_intattr:0000000000000006 .LVL44
     /tmp/ccX7HQ2N.s:702    .text.eclic_get_intattr:0000000000000000 .LVL45
     /tmp/ccX7HQ2N.s:709    .text.eclic_get_intattr:0000000000000008 .LVL46
     /tmp/ccX7HQ2N.s:857    .text.eclic_get_nlbits:0000000000000008 .LVL55
     /tmp/ccX7HQ2N.s:864    .text.eclic_get_nlbits:000000000000000a .LVL56
     /tmp/ccX7HQ2N.s:1723   .debug_info:0000000000000000 .Ldebug_info0
     /tmp/ccX7HQ2N.s:129    .text.get_timer_value:0000000000000000 .LBB88
     /tmp/ccX7HQ2N.s:137    .text.get_timer_value:0000000000000004 .LBE88
     /tmp/ccX7HQ2N.s:139    .text.get_timer_value:0000000000000004 .LBB97
     /tmp/ccX7HQ2N.s:169    .text.get_timer_value:000000000000000e .LBE97
     /tmp/ccX7HQ2N.s:136    .text.get_timer_value:0000000000000004 .LBE89
     /tmp/ccX7HQ2N.s:141    .text.get_timer_value:0000000000000004 .LBB92
     /tmp/ccX7HQ2N.s:148    .text.get_timer_value:0000000000000006 .LBE92
     /tmp/ccX7HQ2N.s:323    .text.measure_cpu_freq:0000000000000008 .LBE106
     /tmp/ccX7HQ2N.s:331    .text.measure_cpu_freq:000000000000000e .LBB112
     /tmp/ccX7HQ2N.s:337    .text.measure_cpu_freq:0000000000000010 .LBE112
     /tmp/ccX7HQ2N.s:330    .text.measure_cpu_freq:000000000000000e .LBE109
     /tmp/ccX7HQ2N.s:339    .text.measure_cpu_freq:0000000000000010 .LBB113
     /tmp/ccX7HQ2N.s:344    .text.measure_cpu_freq:0000000000000010 .LBE113
     /tmp/ccX7HQ2N.s:377    .text.measure_cpu_freq:000000000000001e .LBE117
     /tmp/ccX7HQ2N.s:380    .text.measure_cpu_freq:000000000000001e .LBB120
     /tmp/ccX7HQ2N.s:386    .text.measure_cpu_freq:0000000000000020 .LBE120
     /tmp/ccX7HQ2N.s:809    .text.eclic_set_nlbits:0000000000000008 .LBE122
     /tmp/ccX7HQ2N.s:811    .text.eclic_set_nlbits:0000000000000008 .LBB125
     /tmp/ccX7HQ2N.s:815    .text.eclic_set_nlbits:0000000000000008 .LBE125
     /tmp/ccX7HQ2N.s:896    .text.eclic_set_irq_lvl:0000000000000008 .LBE130
     /tmp/ccX7HQ2N.s:901    .text.eclic_set_irq_lvl:000000000000000a .LBB135
     /tmp/ccX7HQ2N.s:909    .text.eclic_set_irq_lvl:000000000000000e .LBE135
     /tmp/ccX7HQ2N.s:928    .text.eclic_set_irq_lvl:0000000000000024 .LBE136
     /tmp/ccX7HQ2N.s:946    .text.eclic_set_irq_lvl:000000000000003c .LBB139
GAS LISTING /tmp/ccX7HQ2N.s 			page 61


     /tmp/ccX7HQ2N.s:950    .text.eclic_set_irq_lvl:000000000000003c .LBE139
     /tmp/ccX7HQ2N.s:994    .text.eclic_get_irq_lvl:0000000000000004 .LBE142
     /tmp/ccX7HQ2N.s:1001   .text.eclic_get_irq_lvl:0000000000000008 .LBB154
     /tmp/ccX7HQ2N.s:1013   .text.eclic_get_irq_lvl:000000000000000c .LBE154
     /tmp/ccX7HQ2N.s:1030   .text.eclic_get_irq_lvl:0000000000000016 .LBB156
     /tmp/ccX7HQ2N.s:1038   .text.eclic_get_irq_lvl:000000000000001a .LBE156
     /tmp/ccX7HQ2N.s:992    .text.eclic_get_irq_lvl:0000000000000004 .LBE144
     /tmp/ccX7HQ2N.s:1003   .text.eclic_get_irq_lvl:0000000000000008 .LBB147
     /tmp/ccX7HQ2N.s:1009   .text.eclic_get_irq_lvl:000000000000000c .LBE147
     /tmp/ccX7HQ2N.s:1000   .text.eclic_get_irq_lvl:0000000000000008 .LBE150
     /tmp/ccX7HQ2N.s:1016   .text.eclic_get_irq_lvl:000000000000000c .LBB155
     /tmp/ccX7HQ2N.s:1029   .text.eclic_get_irq_lvl:0000000000000016 .LBE155
     /tmp/ccX7HQ2N.s:1041   .text.eclic_get_irq_lvl:000000000000001c .LBB157
     /tmp/ccX7HQ2N.s:1047   .text.eclic_get_irq_lvl:0000000000000020 .LBE157
     /tmp/ccX7HQ2N.s:1095   .text.eclic_set_irq_lvl_abs:0000000000000008 .LBE158
     /tmp/ccX7HQ2N.s:1100   .text.eclic_set_irq_lvl_abs:000000000000000a .LBB163
     /tmp/ccX7HQ2N.s:1108   .text.eclic_set_irq_lvl_abs:000000000000000e .LBE163
     /tmp/ccX7HQ2N.s:1127   .text.eclic_set_irq_lvl_abs:0000000000000024 .LBE164
     /tmp/ccX7HQ2N.s:1132   .text.eclic_set_irq_lvl_abs:0000000000000028 .LBB167
     /tmp/ccX7HQ2N.s:1136   .text.eclic_set_irq_lvl_abs:0000000000000028 .LBE167
     /tmp/ccX7HQ2N.s:1192   .text.eclic_get_irq_lvl_abs:0000000000000004 .LBE170
     /tmp/ccX7HQ2N.s:1199   .text.eclic_get_irq_lvl_abs:0000000000000008 .LBB182
     /tmp/ccX7HQ2N.s:1211   .text.eclic_get_irq_lvl_abs:000000000000000c .LBE182
     /tmp/ccX7HQ2N.s:1228   .text.eclic_get_irq_lvl_abs:0000000000000016 .LBB184
     /tmp/ccX7HQ2N.s:1236   .text.eclic_get_irq_lvl_abs:000000000000001a .LBE184
     /tmp/ccX7HQ2N.s:1190   .text.eclic_get_irq_lvl_abs:0000000000000004 .LBE172
     /tmp/ccX7HQ2N.s:1201   .text.eclic_get_irq_lvl_abs:0000000000000008 .LBB175
     /tmp/ccX7HQ2N.s:1207   .text.eclic_get_irq_lvl_abs:000000000000000c .LBE175
     /tmp/ccX7HQ2N.s:1198   .text.eclic_get_irq_lvl_abs:0000000000000008 .LBE178
     /tmp/ccX7HQ2N.s:1214   .text.eclic_get_irq_lvl_abs:000000000000000c .LBB183
     /tmp/ccX7HQ2N.s:1227   .text.eclic_get_irq_lvl_abs:0000000000000016 .LBE183
     /tmp/ccX7HQ2N.s:1239   .text.eclic_get_irq_lvl_abs:000000000000001c .LBB185
     /tmp/ccX7HQ2N.s:1245   .text.eclic_get_irq_lvl_abs:0000000000000020 .LBE185
     /tmp/ccX7HQ2N.s:1312   .text.eclic_set_irq_priority:0000000000000022 .LBE190
     /tmp/ccX7HQ2N.s:1318   .text.eclic_set_irq_priority:000000000000002a .LBB194
     /tmp/ccX7HQ2N.s:1323   .text.eclic_set_irq_priority:000000000000002e .LBE194
     /tmp/ccX7HQ2N.s:1335   .text.eclic_set_irq_priority:000000000000003c .LBB195
     /tmp/ccX7HQ2N.s:1339   .text.eclic_set_irq_priority:000000000000003c .LBE195
     /tmp/ccX7HQ2N.s:1395   .text.eclic_get_irq_priority:0000000000000008 .LBE198
     /tmp/ccX7HQ2N.s:1398   .text.eclic_get_irq_priority:000000000000000a .LBB203
     /tmp/ccX7HQ2N.s:1410   .text.eclic_get_irq_priority:0000000000000016 .LBE203
     /tmp/ccX7HQ2N.s:1426   .text.eclic_get_irq_priority:000000000000002a .LBE204
     /tmp/ccX7HQ2N.s:1428   .text.eclic_get_irq_priority:000000000000002a .LBB207
     /tmp/ccX7HQ2N.s:1432   .text.eclic_get_irq_priority:000000000000002a .LBE207

UNDEFINED SYMBOLS
SystemCoreClock
